
optimization_main_app.elf:     file format elf32-littlearm

Sections:
Idx Name          Size      VMA       LMA       File off  Algn
  0 .isr_vector   000001ac  08000000  08000000  00001000  2**0
                  CONTENTS, ALLOC, LOAD, READONLY, DATA
  1 .text         000087e8  080001b0  080001b0  000011b0  2**4
                  CONTENTS, ALLOC, LOAD, READONLY, CODE
  2 .rodata       00012d48  08008998  08008998  00009998  2**2
                  CONTENTS, ALLOC, LOAD, READONLY, DATA
  3 .ARM.extab    00000000  0801b6e0  0801b6e0  0001d468  2**0
                  CONTENTS
  4 .ARM          00000008  0801b6e0  0801b6e0  0001c6e0  2**2
                  CONTENTS, ALLOC, LOAD, READONLY, DATA
  5 .preinit_array 00000000  0801b6e8  0801b6e8  0001d468  2**0
                  CONTENTS, ALLOC, LOAD, DATA
  6 .init_array   00000004  0801b6e8  0801b6e8  0001c6e8  2**2
                  CONTENTS, ALLOC, LOAD, READONLY, DATA
  7 .fini_array   00000004  0801b6ec  0801b6ec  0001c6ec  2**2
                  CONTENTS, ALLOC, LOAD, READONLY, DATA
  8 .data         00000468  20000000  0801b6f0  0001d000  2**2
                  CONTENTS, ALLOC, LOAD, DATA
  9 .bss          00001b04  20000468  0801bb58  0001d468  2**3
                  ALLOC
 10 ._user_heap_stack 00000604  20001f6c  0801bb58  0001df6c  2**0
                  ALLOC
 11 .ARM.attributes 00000030  00000000  00000000  0001d468  2**0
                  CONTENTS, READONLY
 12 .debug_info   00040766  00000000  00000000  0001d498  2**0
                  CONTENTS, READONLY, DEBUGGING, OCTETS
 13 .debug_abbrev 000077c2  00000000  00000000  0005dbfe  2**0
                  CONTENTS, READONLY, DEBUGGING, OCTETS
 14 .debug_loclists 00016c26  00000000  00000000  000653c0  2**0
                  CONTENTS, READONLY, DEBUGGING, OCTETS
 15 .debug_aranges 00001858  00000000  00000000  0007bfe8  2**3
                  CONTENTS, READONLY, DEBUGGING, OCTETS
 16 .debug_rnglists 00002baa  00000000  00000000  0007d840  2**0
                  CONTENTS, READONLY, DEBUGGING, OCTETS
 17 .debug_macro  00030d20  00000000  00000000  000803ea  2**0
                  CONTENTS, READONLY, DEBUGGING, OCTETS
 18 .debug_line   00039fbd  00000000  00000000  000b110a  2**0
                  CONTENTS, READONLY, DEBUGGING, OCTETS
 19 .debug_str    00123551  00000000  00000000  000eb0c7  2**0
                  CONTENTS, READONLY, DEBUGGING, OCTETS
 20 .comment      000000bc  00000000  00000000  0020e618  2**0
                  CONTENTS, READONLY
 21 .debug_frame  00005048  00000000  00000000  0020e6d4  2**2
                  CONTENTS, READONLY, DEBUGGING, OCTETS
 22 .debug_line_str 00000065  00000000  00000000  0021371c  2**0
                  CONTENTS, READONLY, DEBUGGING, OCTETS
 23 .debug_loc    0000835f  00000000  00000000  00213781  2**0
                  CONTENTS, READONLY, DEBUGGING, OCTETS
 24 .debug_ranges 000011a8  00000000  00000000  0021bae0  2**0
                  CONTENTS, READONLY, DEBUGGING, OCTETS

Disassembly of section .text:

080001b0 <__do_global_dtors_aux>:
 80001b0:	b510      	push	{r4, lr}
 80001b2:	4c05      	ldr	r4, [pc, #20]	@ (80001c8 <__do_global_dtors_aux+0x18>)
 80001b4:	7823      	ldrb	r3, [r4, #0]
 80001b6:	b933      	cbnz	r3, 80001c6 <__do_global_dtors_aux+0x16>
 80001b8:	4b04      	ldr	r3, [pc, #16]	@ (80001cc <__do_global_dtors_aux+0x1c>)
 80001ba:	b113      	cbz	r3, 80001c2 <__do_global_dtors_aux+0x12>
 80001bc:	4804      	ldr	r0, [pc, #16]	@ (80001d0 <__do_global_dtors_aux+0x20>)
 80001be:	f3af 8000 	nop.w
 80001c2:	2301      	movs	r3, #1
 80001c4:	7023      	strb	r3, [r4, #0]
 80001c6:	bd10      	pop	{r4, pc}
 80001c8:	20000468 	.word	0x20000468
 80001cc:	00000000 	.word	0x00000000
 80001d0:	08008980 	.word	0x08008980

080001d4 <frame_dummy>:
 80001d4:	b508      	push	{r3, lr}
 80001d6:	4b03      	ldr	r3, [pc, #12]	@ (80001e4 <frame_dummy+0x10>)
 80001d8:	b11b      	cbz	r3, 80001e2 <frame_dummy+0xe>
 80001da:	4903      	ldr	r1, [pc, #12]	@ (80001e8 <frame_dummy+0x14>)
 80001dc:	4803      	ldr	r0, [pc, #12]	@ (80001ec <frame_dummy+0x18>)
 80001de:	f3af 8000 	nop.w
 80001e2:	bd08      	pop	{r3, pc}
 80001e4:	00000000 	.word	0x00000000
 80001e8:	2000046c 	.word	0x2000046c
 80001ec:	08008980 	.word	0x08008980

080001f0 <memchr>:
 80001f0:	f001 01ff 	and.w	r1, r1, #255	@ 0xff
 80001f4:	2a10      	cmp	r2, #16
 80001f6:	db2b      	blt.n	8000250 <memchr+0x60>
 80001f8:	f010 0f07 	tst.w	r0, #7
 80001fc:	d008      	beq.n	8000210 <memchr+0x20>
 80001fe:	f810 3b01 	ldrb.w	r3, [r0], #1
 8000202:	3a01      	subs	r2, #1
 8000204:	428b      	cmp	r3, r1
 8000206:	d02d      	beq.n	8000264 <memchr+0x74>
 8000208:	f010 0f07 	tst.w	r0, #7
 800020c:	b342      	cbz	r2, 8000260 <memchr+0x70>
 800020e:	d1f6      	bne.n	80001fe <memchr+0xe>
 8000210:	b4f0      	push	{r4, r5, r6, r7}
 8000212:	ea41 2101 	orr.w	r1, r1, r1, lsl #8
 8000216:	ea41 4101 	orr.w	r1, r1, r1, lsl #16
 800021a:	f022 0407 	bic.w	r4, r2, #7
 800021e:	f07f 0700 	mvns.w	r7, #0
 8000222:	2300      	movs	r3, #0
 8000224:	e8f0 5602 	ldrd	r5, r6, [r0], #8
 8000228:	3c08      	subs	r4, #8
 800022a:	ea85 0501 	eor.w	r5, r5, r1
 800022e:	ea86 0601 	eor.w	r6, r6, r1
 8000232:	fa85 f547 	uadd8	r5, r5, r7
 8000236:	faa3 f587 	sel	r5, r3, r7
 800023a:	fa86 f647 	uadd8	r6, r6, r7
 800023e:	faa5 f687 	sel	r6, r5, r7
 8000242:	b98e      	cbnz	r6, 8000268 <memchr+0x78>
 8000244:	d1ee      	bne.n	8000224 <memchr+0x34>
 8000246:	bcf0      	pop	{r4, r5, r6, r7}
 8000248:	f001 01ff 	and.w	r1, r1, #255	@ 0xff
 800024c:	f002 0207 	and.w	r2, r2, #7
 8000250:	b132      	cbz	r2, 8000260 <memchr+0x70>
 8000252:	f810 3b01 	ldrb.w	r3, [r0], #1
 8000256:	3a01      	subs	r2, #1
 8000258:	ea83 0301 	eor.w	r3, r3, r1
 800025c:	b113      	cbz	r3, 8000264 <memchr+0x74>
 800025e:	d1f8      	bne.n	8000252 <memchr+0x62>
 8000260:	2000      	movs	r0, #0
 8000262:	4770      	bx	lr
 8000264:	3801      	subs	r0, #1
 8000266:	4770      	bx	lr
 8000268:	2d00      	cmp	r5, #0
 800026a:	bf06      	itte	eq
 800026c:	4635      	moveq	r5, r6
 800026e:	3803      	subeq	r0, #3
 8000270:	3807      	subne	r0, #7
 8000272:	f015 0f01 	tst.w	r5, #1
 8000276:	d107      	bne.n	8000288 <memchr+0x98>
 8000278:	3001      	adds	r0, #1
 800027a:	f415 7f80 	tst.w	r5, #256	@ 0x100
 800027e:	bf02      	ittt	eq
 8000280:	3001      	addeq	r0, #1
 8000282:	f415 3fc0 	tsteq.w	r5, #98304	@ 0x18000
 8000286:	3001      	addeq	r0, #1
 8000288:	bcf0      	pop	{r4, r5, r6, r7}
 800028a:	3801      	subs	r0, #1
 800028c:	4770      	bx	lr
 800028e:	bf00      	nop

08000290 <__aeabi_uldivmod>:
 8000290:	b953      	cbnz	r3, 80002a8 <__aeabi_uldivmod+0x18>
 8000292:	b94a      	cbnz	r2, 80002a8 <__aeabi_uldivmod+0x18>
 8000294:	2900      	cmp	r1, #0
 8000296:	bf08      	it	eq
 8000298:	2800      	cmpeq	r0, #0
 800029a:	bf1c      	itt	ne
 800029c:	f04f 31ff 	movne.w	r1, #4294967295
 80002a0:	f04f 30ff 	movne.w	r0, #4294967295
 80002a4:	f000 b96a 	b.w	800057c <__aeabi_idiv0>
 80002a8:	f1ad 0c08 	sub.w	ip, sp, #8
 80002ac:	e96d ce04 	strd	ip, lr, [sp, #-16]!
 80002b0:	f000 f806 	bl	80002c0 <__udivmoddi4>
 80002b4:	f8dd e004 	ldr.w	lr, [sp, #4]
 80002b8:	e9dd 2302 	ldrd	r2, r3, [sp, #8]
 80002bc:	b004      	add	sp, #16
 80002be:	4770      	bx	lr

080002c0 <__udivmoddi4>:
 80002c0:	e92d 47f0 	stmdb	sp!, {r4, r5, r6, r7, r8, r9, sl, lr}
 80002c4:	9d08      	ldr	r5, [sp, #32]
 80002c6:	460c      	mov	r4, r1
 80002c8:	2b00      	cmp	r3, #0
 80002ca:	d14e      	bne.n	800036a <__udivmoddi4+0xaa>
 80002cc:	4694      	mov	ip, r2
 80002ce:	458c      	cmp	ip, r1
 80002d0:	4686      	mov	lr, r0
 80002d2:	fab2 f282 	clz	r2, r2
 80002d6:	d962      	bls.n	800039e <__udivmoddi4+0xde>
 80002d8:	b14a      	cbz	r2, 80002ee <__udivmoddi4+0x2e>
 80002da:	f1c2 0320 	rsb	r3, r2, #32
 80002de:	4091      	lsls	r1, r2
 80002e0:	fa20 f303 	lsr.w	r3, r0, r3
 80002e4:	fa0c fc02 	lsl.w	ip, ip, r2
 80002e8:	4319      	orrs	r1, r3
 80002ea:	fa00 fe02 	lsl.w	lr, r0, r2
 80002ee:	ea4f 471c 	mov.w	r7, ip, lsr #16
 80002f2:	fa1f f68c 	uxth.w	r6, ip
 80002f6:	fbb1 f4f7 	udiv	r4, r1, r7
 80002fa:	ea4f 431e 	mov.w	r3, lr, lsr #16
 80002fe:	fb07 1114 	mls	r1, r7, r4, r1
 8000302:	ea43 4301 	orr.w	r3, r3, r1, lsl #16
 8000306:	fb04 f106 	mul.w	r1, r4, r6
 800030a:	4299      	cmp	r1, r3
 800030c:	d90a      	bls.n	8000324 <__udivmoddi4+0x64>
 800030e:	eb1c 0303 	adds.w	r3, ip, r3
 8000312:	f104 30ff 	add.w	r0, r4, #4294967295
 8000316:	f080 8112 	bcs.w	800053e <__udivmoddi4+0x27e>
 800031a:	4299      	cmp	r1, r3
 800031c:	f240 810f 	bls.w	800053e <__udivmoddi4+0x27e>
 8000320:	3c02      	subs	r4, #2
 8000322:	4463      	add	r3, ip
 8000324:	1a59      	subs	r1, r3, r1
 8000326:	fa1f f38e 	uxth.w	r3, lr
 800032a:	fbb1 f0f7 	udiv	r0, r1, r7
 800032e:	fb07 1110 	mls	r1, r7, r0, r1
 8000332:	ea43 4301 	orr.w	r3, r3, r1, lsl #16
 8000336:	fb00 f606 	mul.w	r6, r0, r6
 800033a:	429e      	cmp	r6, r3
 800033c:	d90a      	bls.n	8000354 <__udivmoddi4+0x94>
 800033e:	eb1c 0303 	adds.w	r3, ip, r3
 8000342:	f100 31ff 	add.w	r1, r0, #4294967295
 8000346:	f080 80fc 	bcs.w	8000542 <__udivmoddi4+0x282>
 800034a:	429e      	cmp	r6, r3
 800034c:	f240 80f9 	bls.w	8000542 <__udivmoddi4+0x282>
 8000350:	4463      	add	r3, ip
 8000352:	3802      	subs	r0, #2
 8000354:	1b9b      	subs	r3, r3, r6
 8000356:	ea40 4004 	orr.w	r0, r0, r4, lsl #16
 800035a:	2100      	movs	r1, #0
 800035c:	b11d      	cbz	r5, 8000366 <__udivmoddi4+0xa6>
 800035e:	40d3      	lsrs	r3, r2
 8000360:	2200      	movs	r2, #0
 8000362:	e9c5 3200 	strd	r3, r2, [r5]
 8000366:	e8bd 87f0 	ldmia.w	sp!, {r4, r5, r6, r7, r8, r9, sl, pc}
 800036a:	428b      	cmp	r3, r1
 800036c:	d905      	bls.n	800037a <__udivmoddi4+0xba>
 800036e:	b10d      	cbz	r5, 8000374 <__udivmoddi4+0xb4>
 8000370:	e9c5 0100 	strd	r0, r1, [r5]
 8000374:	2100      	movs	r1, #0
 8000376:	4608      	mov	r0, r1
 8000378:	e7f5      	b.n	8000366 <__udivmoddi4+0xa6>
 800037a:	fab3 f183 	clz	r1, r3
 800037e:	2900      	cmp	r1, #0
 8000380:	d146      	bne.n	8000410 <__udivmoddi4+0x150>
 8000382:	42a3      	cmp	r3, r4
 8000384:	d302      	bcc.n	800038c <__udivmoddi4+0xcc>
 8000386:	4290      	cmp	r0, r2
 8000388:	f0c0 80f0 	bcc.w	800056c <__udivmoddi4+0x2ac>
 800038c:	1a86      	subs	r6, r0, r2
 800038e:	eb64 0303 	sbc.w	r3, r4, r3
 8000392:	2001      	movs	r0, #1
 8000394:	2d00      	cmp	r5, #0
 8000396:	d0e6      	beq.n	8000366 <__udivmoddi4+0xa6>
 8000398:	e9c5 6300 	strd	r6, r3, [r5]
 800039c:	e7e3      	b.n	8000366 <__udivmoddi4+0xa6>
 800039e:	2a00      	cmp	r2, #0
 80003a0:	f040 8090 	bne.w	80004c4 <__udivmoddi4+0x204>
 80003a4:	eba1 040c 	sub.w	r4, r1, ip
 80003a8:	ea4f 481c 	mov.w	r8, ip, lsr #16
 80003ac:	fa1f f78c 	uxth.w	r7, ip
 80003b0:	2101      	movs	r1, #1
 80003b2:	fbb4 f6f8 	udiv	r6, r4, r8
 80003b6:	ea4f 431e 	mov.w	r3, lr, lsr #16
 80003ba:	fb08 4416 	mls	r4, r8, r6, r4
 80003be:	ea43 4304 	orr.w	r3, r3, r4, lsl #16
 80003c2:	fb07 f006 	mul.w	r0, r7, r6
 80003c6:	4298      	cmp	r0, r3
 80003c8:	d908      	bls.n	80003dc <__udivmoddi4+0x11c>
 80003ca:	eb1c 0303 	adds.w	r3, ip, r3
 80003ce:	f106 34ff 	add.w	r4, r6, #4294967295
 80003d2:	d202      	bcs.n	80003da <__udivmoddi4+0x11a>
 80003d4:	4298      	cmp	r0, r3
 80003d6:	f200 80cd 	bhi.w	8000574 <__udivmoddi4+0x2b4>
 80003da:	4626      	mov	r6, r4
 80003dc:	1a1c      	subs	r4, r3, r0
 80003de:	fa1f f38e 	uxth.w	r3, lr
 80003e2:	fbb4 f0f8 	udiv	r0, r4, r8
 80003e6:	fb08 4410 	mls	r4, r8, r0, r4
 80003ea:	ea43 4304 	orr.w	r3, r3, r4, lsl #16
 80003ee:	fb00 f707 	mul.w	r7, r0, r7
 80003f2:	429f      	cmp	r7, r3
 80003f4:	d908      	bls.n	8000408 <__udivmoddi4+0x148>
 80003f6:	eb1c 0303 	adds.w	r3, ip, r3
 80003fa:	f100 34ff 	add.w	r4, r0, #4294967295
 80003fe:	d202      	bcs.n	8000406 <__udivmoddi4+0x146>
 8000400:	429f      	cmp	r7, r3
 8000402:	f200 80b0 	bhi.w	8000566 <__udivmoddi4+0x2a6>
 8000406:	4620      	mov	r0, r4
 8000408:	1bdb      	subs	r3, r3, r7
 800040a:	ea40 4006 	orr.w	r0, r0, r6, lsl #16
 800040e:	e7a5      	b.n	800035c <__udivmoddi4+0x9c>
 8000410:	f1c1 0620 	rsb	r6, r1, #32
 8000414:	408b      	lsls	r3, r1
 8000416:	fa22 f706 	lsr.w	r7, r2, r6
 800041a:	431f      	orrs	r7, r3
 800041c:	fa20 fc06 	lsr.w	ip, r0, r6
 8000420:	fa04 f301 	lsl.w	r3, r4, r1
 8000424:	ea43 030c 	orr.w	r3, r3, ip
 8000428:	40f4      	lsrs	r4, r6
 800042a:	fa00 f801 	lsl.w	r8, r0, r1
 800042e:	0c38      	lsrs	r0, r7, #16
 8000430:	ea4f 4913 	mov.w	r9, r3, lsr #16
 8000434:	fbb4 fef0 	udiv	lr, r4, r0
 8000438:	fa1f fc87 	uxth.w	ip, r7
 800043c:	fb00 441e 	mls	r4, r0, lr, r4
 8000440:	ea49 4404 	orr.w	r4, r9, r4, lsl #16
 8000444:	fb0e f90c 	mul.w	r9, lr, ip
 8000448:	45a1      	cmp	r9, r4
 800044a:	fa02 f201 	lsl.w	r2, r2, r1
 800044e:	d90a      	bls.n	8000466 <__udivmoddi4+0x1a6>
 8000450:	193c      	adds	r4, r7, r4
 8000452:	f10e 3aff 	add.w	sl, lr, #4294967295
 8000456:	f080 8084 	bcs.w	8000562 <__udivmoddi4+0x2a2>
 800045a:	45a1      	cmp	r9, r4
 800045c:	f240 8081 	bls.w	8000562 <__udivmoddi4+0x2a2>
 8000460:	f1ae 0e02 	sub.w	lr, lr, #2
 8000464:	443c      	add	r4, r7
 8000466:	eba4 0409 	sub.w	r4, r4, r9
 800046a:	fa1f f983 	uxth.w	r9, r3
 800046e:	fbb4 f3f0 	udiv	r3, r4, r0
 8000472:	fb00 4413 	mls	r4, r0, r3, r4
 8000476:	ea49 4404 	orr.w	r4, r9, r4, lsl #16
 800047a:	fb03 fc0c 	mul.w	ip, r3, ip
 800047e:	45a4      	cmp	ip, r4
 8000480:	d907      	bls.n	8000492 <__udivmoddi4+0x1d2>
 8000482:	193c      	adds	r4, r7, r4
 8000484:	f103 30ff 	add.w	r0, r3, #4294967295
 8000488:	d267      	bcs.n	800055a <__udivmoddi4+0x29a>
 800048a:	45a4      	cmp	ip, r4
 800048c:	d965      	bls.n	800055a <__udivmoddi4+0x29a>
 800048e:	3b02      	subs	r3, #2
 8000490:	443c      	add	r4, r7
 8000492:	ea43 400e 	orr.w	r0, r3, lr, lsl #16
 8000496:	fba0 9302 	umull	r9, r3, r0, r2
 800049a:	eba4 040c 	sub.w	r4, r4, ip
 800049e:	429c      	cmp	r4, r3
 80004a0:	46ce      	mov	lr, r9
 80004a2:	469c      	mov	ip, r3
 80004a4:	d351      	bcc.n	800054a <__udivmoddi4+0x28a>
 80004a6:	d04e      	beq.n	8000546 <__udivmoddi4+0x286>
 80004a8:	b155      	cbz	r5, 80004c0 <__udivmoddi4+0x200>
 80004aa:	ebb8 030e 	subs.w	r3, r8, lr
 80004ae:	eb64 040c 	sbc.w	r4, r4, ip
 80004b2:	fa04 f606 	lsl.w	r6, r4, r6
 80004b6:	40cb      	lsrs	r3, r1
 80004b8:	431e      	orrs	r6, r3
 80004ba:	40cc      	lsrs	r4, r1
 80004bc:	e9c5 6400 	strd	r6, r4, [r5]
 80004c0:	2100      	movs	r1, #0
 80004c2:	e750      	b.n	8000366 <__udivmoddi4+0xa6>
 80004c4:	f1c2 0320 	rsb	r3, r2, #32
 80004c8:	fa20 f103 	lsr.w	r1, r0, r3
 80004cc:	fa0c fc02 	lsl.w	ip, ip, r2
 80004d0:	fa24 f303 	lsr.w	r3, r4, r3
 80004d4:	4094      	lsls	r4, r2
 80004d6:	430c      	orrs	r4, r1
 80004d8:	ea4f 481c 	mov.w	r8, ip, lsr #16
 80004dc:	fa00 fe02 	lsl.w	lr, r0, r2
 80004e0:	fa1f f78c 	uxth.w	r7, ip
 80004e4:	fbb3 f0f8 	udiv	r0, r3, r8
 80004e8:	fb08 3110 	mls	r1, r8, r0, r3
 80004ec:	0c23      	lsrs	r3, r4, #16
 80004ee:	ea43 4301 	orr.w	r3, r3, r1, lsl #16
 80004f2:	fb00 f107 	mul.w	r1, r0, r7
 80004f6:	4299      	cmp	r1, r3
 80004f8:	d908      	bls.n	800050c <__udivmoddi4+0x24c>
 80004fa:	eb1c 0303 	adds.w	r3, ip, r3
 80004fe:	f100 36ff 	add.w	r6, r0, #4294967295
 8000502:	d22c      	bcs.n	800055e <__udivmoddi4+0x29e>
 8000504:	4299      	cmp	r1, r3
 8000506:	d92a      	bls.n	800055e <__udivmoddi4+0x29e>
 8000508:	3802      	subs	r0, #2
 800050a:	4463      	add	r3, ip
 800050c:	1a5b      	subs	r3, r3, r1
 800050e:	b2a4      	uxth	r4, r4
 8000510:	fbb3 f1f8 	udiv	r1, r3, r8
 8000514:	fb08 3311 	mls	r3, r8, r1, r3
 8000518:	ea44 4403 	orr.w	r4, r4, r3, lsl #16
 800051c:	fb01 f307 	mul.w	r3, r1, r7
 8000520:	42a3      	cmp	r3, r4
 8000522:	d908      	bls.n	8000536 <__udivmoddi4+0x276>
 8000524:	eb1c 0404 	adds.w	r4, ip, r4
 8000528:	f101 36ff 	add.w	r6, r1, #4294967295
 800052c:	d213      	bcs.n	8000556 <__udivmoddi4+0x296>
 800052e:	42a3      	cmp	r3, r4
 8000530:	d911      	bls.n	8000556 <__udivmoddi4+0x296>
 8000532:	3902      	subs	r1, #2
 8000534:	4464      	add	r4, ip
 8000536:	1ae4      	subs	r4, r4, r3
 8000538:	ea41 4100 	orr.w	r1, r1, r0, lsl #16
 800053c:	e739      	b.n	80003b2 <__udivmoddi4+0xf2>
 800053e:	4604      	mov	r4, r0
 8000540:	e6f0      	b.n	8000324 <__udivmoddi4+0x64>
 8000542:	4608      	mov	r0, r1
 8000544:	e706      	b.n	8000354 <__udivmoddi4+0x94>
 8000546:	45c8      	cmp	r8, r9
 8000548:	d2ae      	bcs.n	80004a8 <__udivmoddi4+0x1e8>
 800054a:	ebb9 0e02 	subs.w	lr, r9, r2
 800054e:	eb63 0c07 	sbc.w	ip, r3, r7
 8000552:	3801      	subs	r0, #1
 8000554:	e7a8      	b.n	80004a8 <__udivmoddi4+0x1e8>
 8000556:	4631      	mov	r1, r6
 8000558:	e7ed      	b.n	8000536 <__udivmoddi4+0x276>
 800055a:	4603      	mov	r3, r0
 800055c:	e799      	b.n	8000492 <__udivmoddi4+0x1d2>
 800055e:	4630      	mov	r0, r6
 8000560:	e7d4      	b.n	800050c <__udivmoddi4+0x24c>
 8000562:	46d6      	mov	lr, sl
 8000564:	e77f      	b.n	8000466 <__udivmoddi4+0x1a6>
 8000566:	4463      	add	r3, ip
 8000568:	3802      	subs	r0, #2
 800056a:	e74d      	b.n	8000408 <__udivmoddi4+0x148>
 800056c:	4606      	mov	r6, r0
 800056e:	4623      	mov	r3, r4
 8000570:	4608      	mov	r0, r1
 8000572:	e70f      	b.n	8000394 <__udivmoddi4+0xd4>
 8000574:	3e02      	subs	r6, #2
 8000576:	4463      	add	r3, ip
 8000578:	e730      	b.n	80003dc <__udivmoddi4+0x11c>
 800057a:	bf00      	nop

0800057c <__aeabi_idiv0>:
 800057c:	4770      	bx	lr
 800057e:	bf00      	nop

08000580 <MX_ADC1_Init>:
ADC_HandleTypeDef hadc1;
DMA_HandleTypeDef hdma_adc1;

/* ADC1 init function */
void MX_ADC1_Init(void)
{
 8000580:	b510      	push	{r4, lr}

  /* USER CODE END ADC1_Init 1 */

  /** Common config
  */
  hadc1.Instance = ADC1;
 8000582:	4826      	ldr	r0, [pc, #152]	@ (800061c <MX_ADC1_Init+0x9c>)
 8000584:	4a26      	ldr	r2, [pc, #152]	@ (8000620 <MX_ADC1_Init+0xa0>)
 8000586:	6002      	str	r2, [r0, #0]
  hadc1.Init.ClockPrescaler = ADC_CLOCK_ASYNC_DIV10;
 8000588:	f44f 12a0 	mov.w	r2, #1310720	@ 0x140000
  ADC_MultiModeTypeDef multimode = {0};
 800058c:	2300      	movs	r3, #0
{
 800058e:	b08a      	sub	sp, #40	@ 0x28
  hadc1.Init.ClockPrescaler = ADC_CLOCK_ASYNC_DIV10;
 8000590:	6042      	str	r2, [r0, #4]
  hadc1.Init.Resolution = ADC_RESOLUTION_12B;
  hadc1.Init.DataAlign = ADC_DATAALIGN_RIGHT;
  hadc1.Init.ScanConvMode = ADC_SCAN_DISABLE;
  hadc1.Init.EOCSelection = ADC_EOC_SINGLE_CONV;
 8000592:	2204      	movs	r2, #4
 8000594:	e9c0 3204 	strd	r3, r2, [r0, #16]
  hadc1.Init.LowPowerAutoWait = DISABLE;
  hadc1.Init.ContinuousConvMode = DISABLE;
  hadc1.Init.NbrOfConversion = 1;
 8000598:	2201      	movs	r2, #1
  ADC_MultiModeTypeDef multimode = {0};
 800059a:	e9cd 3301 	strd	r3, r3, [sp, #4]
  ADC_ChannelConfTypeDef sConfig = {0};
 800059e:	e9cd 3303 	strd	r3, r3, [sp, #12]
 80005a2:	e9cd 3305 	strd	r3, r3, [sp, #20]
 80005a6:	e9cd 3307 	strd	r3, r3, [sp, #28]
  hadc1.Init.DataAlign = ADC_DATAALIGN_RIGHT;
 80005aa:	e9c0 3302 	strd	r3, r3, [r0, #8]
  ADC_ChannelConfTypeDef sConfig = {0};
 80005ae:	9309      	str	r3, [sp, #36]	@ 0x24
  hadc1.Init.LowPowerAutoWait = DISABLE;
 80005b0:	8303      	strh	r3, [r0, #24]
  hadc1.Init.NbrOfConversion = 1;
 80005b2:	61c2      	str	r2, [r0, #28]
  hadc1.Init.DiscontinuousConvMode = DISABLE;
  hadc1.Init.ExternalTrigConv = ADC_EXTERNALTRIG_T3_TRGO;
  hadc1.Init.ExternalTrigConvEdge = ADC_EXTERNALTRIGCONVEDGE_RISING;
  hadc1.Init.DMAContinuousRequests = ENABLE;
 80005b4:	f880 2030 	strb.w	r2, [r0, #48]	@ 0x30
  hadc1.Init.DiscontinuousConvMode = DISABLE;
 80005b8:	f880 3020 	strb.w	r3, [r0, #32]
  hadc1.Init.Overrun = ADC_OVR_DATA_PRESERVED;
 80005bc:	6343      	str	r3, [r0, #52]	@ 0x34
  hadc1.Init.OversamplingMode = DISABLE;
 80005be:	f880 3038 	strb.w	r3, [r0, #56]	@ 0x38
  hadc1.Init.ExternalTrigConvEdge = ADC_EXTERNALTRIGCONVEDGE_RISING;
 80005c2:	f44f 62a0 	mov.w	r2, #1280	@ 0x500
 80005c6:	f44f 6380 	mov.w	r3, #1024	@ 0x400
 80005ca:	e9c0 230a 	strd	r2, r3, [r0, #40]	@ 0x28
  if (HAL_ADC_Init(&hadc1) != HAL_OK)
 80005ce:	f002 f979 	bl	80028c4 <HAL_ADC_Init>
 80005d2:	b9c0      	cbnz	r0, 8000606 <MX_ADC1_Init+0x86>
    Error_Handler();
  }

  /** Configure the ADC multi-mode
  */
  multimode.Mode = ADC_MODE_INDEPENDENT;
 80005d4:	2300      	movs	r3, #0
  if (HAL_ADCEx_MultiModeConfigChannel(&hadc1, &multimode) != HAL_OK)
 80005d6:	4811      	ldr	r0, [pc, #68]	@ (800061c <MX_ADC1_Init+0x9c>)
  multimode.Mode = ADC_MODE_INDEPENDENT;
 80005d8:	9301      	str	r3, [sp, #4]
  if (HAL_ADCEx_MultiModeConfigChannel(&hadc1, &multimode) != HAL_OK)
 80005da:	a901      	add	r1, sp, #4
 80005dc:	f002 ff24 	bl	8003428 <HAL_ADCEx_MultiModeConfigChannel>
 80005e0:	b9c0      	cbnz	r0, 8000614 <MX_ADC1_Init+0x94>
    Error_Handler();
  }

  /** Configure Regular Channel
  */
  sConfig.Channel = ADC_CHANNEL_5;
 80005e2:	4a10      	ldr	r2, [pc, #64]	@ (8000624 <MX_ADC1_Init+0xa4>)
 80005e4:	9204      	str	r2, [sp, #16]
  sConfig.Rank = ADC_REGULAR_RANK_1;
  sConfig.SamplingTime = ADC_SAMPLETIME_2CYCLES_5;
  sConfig.SingleDiff = ADC_SINGLE_ENDED;
 80005e6:	227f      	movs	r2, #127	@ 0x7f
  sConfig.SamplingTime = ADC_SAMPLETIME_2CYCLES_5;
 80005e8:	2300      	movs	r3, #0
  sConfig.Rank = ADC_REGULAR_RANK_1;
 80005ea:	2406      	movs	r4, #6
  sConfig.SingleDiff = ADC_SINGLE_ENDED;
 80005ec:	9207      	str	r2, [sp, #28]
  sConfig.OffsetNumber = ADC_OFFSET_NONE;
  sConfig.Offset = 0;
  if (HAL_ADC_ConfigChannel(&hadc1, &sConfig) != HAL_OK)
 80005ee:	480b      	ldr	r0, [pc, #44]	@ (800061c <MX_ADC1_Init+0x9c>)
  sConfig.OffsetNumber = ADC_OFFSET_NONE;
 80005f0:	2204      	movs	r2, #4
  if (HAL_ADC_ConfigChannel(&hadc1, &sConfig) != HAL_OK)
 80005f2:	a904      	add	r1, sp, #16
  sConfig.SamplingTime = ADC_SAMPLETIME_2CYCLES_5;
 80005f4:	e9cd 4305 	strd	r4, r3, [sp, #20]
  sConfig.Offset = 0;
 80005f8:	e9cd 2308 	strd	r2, r3, [sp, #32]
  if (HAL_ADC_ConfigChannel(&hadc1, &sConfig) != HAL_OK)
 80005fc:	f002 fa8c 	bl	8002b18 <HAL_ADC_ConfigChannel>
 8000600:	b920      	cbnz	r0, 800060c <MX_ADC1_Init+0x8c>
  }
  /* USER CODE BEGIN ADC1_Init 2 */

  /* USER CODE END ADC1_Init 2 */

}
 8000602:	b00a      	add	sp, #40	@ 0x28
 8000604:	bd10      	pop	{r4, pc}
    Error_Handler();
 8000606:	f000 fbe9 	bl	8000ddc <Error_Handler>
 800060a:	e7e3      	b.n	80005d4 <MX_ADC1_Init+0x54>
    Error_Handler();
 800060c:	f000 fbe6 	bl	8000ddc <Error_Handler>
}
 8000610:	b00a      	add	sp, #40	@ 0x28
 8000612:	bd10      	pop	{r4, pc}
    Error_Handler();
 8000614:	f000 fbe2 	bl	8000ddc <Error_Handler>
 8000618:	e7e3      	b.n	80005e2 <MX_ADC1_Init+0x62>
 800061a:	bf00      	nop
 800061c:	200004cc 	.word	0x200004cc
 8000620:	50040000 	.word	0x50040000
 8000624:	14f00020 	.word	0x14f00020

08000628 <HAL_ADC_MspInit>:

void HAL_ADC_MspInit(ADC_HandleTypeDef* adcHandle)
{
 8000628:	b570      	push	{r4, r5, r6, lr}
 800062a:	4604      	mov	r4, r0
 800062c:	b0aa      	sub	sp, #168	@ 0xa8

  GPIO_InitTypeDef GPIO_InitStruct = {0};
 800062e:	2100      	movs	r1, #0
  RCC_PeriphCLKInitTypeDef PeriphClkInit = {0};
 8000630:	228c      	movs	r2, #140	@ 0x8c
 8000632:	a807      	add	r0, sp, #28
  GPIO_InitTypeDef GPIO_InitStruct = {0};
 8000634:	e9cd 1102 	strd	r1, r1, [sp, #8]
 8000638:	e9cd 1104 	strd	r1, r1, [sp, #16]
 800063c:	9106      	str	r1, [sp, #24]
  RCC_PeriphCLKInitTypeDef PeriphClkInit = {0};
 800063e:	f007 fc05 	bl	8007e4c <memset>
  if(adcHandle->Instance==ADC1)
 8000642:	4b27      	ldr	r3, [pc, #156]	@ (80006e0 <HAL_ADC_MspInit+0xb8>)
 8000644:	6822      	ldr	r2, [r4, #0]
 8000646:	429a      	cmp	r2, r3
 8000648:	d001      	beq.n	800064e <HAL_ADC_MspInit+0x26>

  /* USER CODE BEGIN ADC1_MspInit 1 */

  /* USER CODE END ADC1_MspInit 1 */
  }
}
 800064a:	b02a      	add	sp, #168	@ 0xa8
 800064c:	bd70      	pop	{r4, r5, r6, pc}
    PeriphClkInit.PeriphClockSelection = RCC_PERIPHCLK_ADC;
 800064e:	f44f 4280 	mov.w	r2, #16384	@ 0x4000
    PeriphClkInit.AdcClockSelection = RCC_ADCCLKSOURCE_SYSCLK;
 8000652:	f04f 5340 	mov.w	r3, #805306368	@ 0x30000000
    if (HAL_RCCEx_PeriphCLKConfig(&PeriphClkInit) != HAL_OK)
 8000656:	a807      	add	r0, sp, #28
    PeriphClkInit.PeriphClockSelection = RCC_PERIPHCLK_ADC;
 8000658:	9207      	str	r2, [sp, #28]
    PeriphClkInit.AdcClockSelection = RCC_ADCCLKSOURCE_SYSCLK;
 800065a:	9326      	str	r3, [sp, #152]	@ 0x98
    if (HAL_RCCEx_PeriphCLKConfig(&PeriphClkInit) != HAL_OK)
 800065c:	f004 fd48 	bl	80050f0 <HAL_RCCEx_PeriphCLKConfig>
 8000660:	2800      	cmp	r0, #0
 8000662:	d136      	bne.n	80006d2 <HAL_ADC_MspInit+0xaa>
    __HAL_RCC_ADC_CLK_ENABLE();
 8000664:	4b1f      	ldr	r3, [pc, #124]	@ (80006e4 <HAL_ADC_MspInit+0xbc>)
    hdma_adc1.Instance = DMA1_Channel1;
 8000666:	4d20      	ldr	r5, [pc, #128]	@ (80006e8 <HAL_ADC_MspInit+0xc0>)
    __HAL_RCC_ADC_CLK_ENABLE();
 8000668:	6cda      	ldr	r2, [r3, #76]	@ 0x4c
 800066a:	f442 5200 	orr.w	r2, r2, #8192	@ 0x2000
 800066e:	64da      	str	r2, [r3, #76]	@ 0x4c
 8000670:	6cda      	ldr	r2, [r3, #76]	@ 0x4c
 8000672:	f402 5200 	and.w	r2, r2, #8192	@ 0x2000
 8000676:	9200      	str	r2, [sp, #0]
 8000678:	9a00      	ldr	r2, [sp, #0]
    __HAL_RCC_GPIOA_CLK_ENABLE();
 800067a:	6cda      	ldr	r2, [r3, #76]	@ 0x4c
 800067c:	f042 0201 	orr.w	r2, r2, #1
 8000680:	64da      	str	r2, [r3, #76]	@ 0x4c
 8000682:	6cdb      	ldr	r3, [r3, #76]	@ 0x4c
 8000684:	f003 0301 	and.w	r3, r3, #1
    GPIO_InitStruct.Pull = GPIO_NOPULL;
 8000688:	2600      	movs	r6, #0
    __HAL_RCC_GPIOA_CLK_ENABLE();
 800068a:	9301      	str	r3, [sp, #4]
    GPIO_InitStruct.Pin = GPIO_PIN_0;
 800068c:	2201      	movs	r2, #1
    HAL_GPIO_Init(GPIOA, &GPIO_InitStruct);
 800068e:	f04f 4090 	mov.w	r0, #1207959552	@ 0x48000000
    GPIO_InitStruct.Pin = GPIO_PIN_0;
 8000692:	2303      	movs	r3, #3
    HAL_GPIO_Init(GPIOA, &GPIO_InitStruct);
 8000694:	a902      	add	r1, sp, #8
    GPIO_InitStruct.Pin = GPIO_PIN_0;
 8000696:	e9cd 2302 	strd	r2, r3, [sp, #8]
    GPIO_InitStruct.Pull = GPIO_NOPULL;
 800069a:	9604      	str	r6, [sp, #16]
    __HAL_RCC_GPIOA_CLK_ENABLE();
 800069c:	9b01      	ldr	r3, [sp, #4]
    HAL_GPIO_Init(GPIOA, &GPIO_InitStruct);
 800069e:	f003 fe07 	bl	80042b0 <HAL_GPIO_Init>
    hdma_adc1.Instance = DMA1_Channel1;
 80006a2:	4a12      	ldr	r2, [pc, #72]	@ (80006ec <HAL_ADC_MspInit+0xc4>)
    hdma_adc1.Init.MemInc = DMA_MINC_ENABLE;
 80006a4:	2380      	movs	r3, #128	@ 0x80
    hdma_adc1.Init.Request = DMA_REQUEST_0;
 80006a6:	e9c5 2600 	strd	r2, r6, [r5]
    hdma_adc1.Init.MemInc = DMA_MINC_ENABLE;
 80006aa:	612b      	str	r3, [r5, #16]
    hdma_adc1.Init.MemDataAlignment = DMA_MDATAALIGN_HALFWORD;
 80006ac:	f44f 7280 	mov.w	r2, #256	@ 0x100
 80006b0:	f44f 6380 	mov.w	r3, #1024	@ 0x400
 80006b4:	e9c5 2305 	strd	r2, r3, [r5, #20]
    if (HAL_DMA_Init(&hdma_adc1) != HAL_OK)
 80006b8:	4628      	mov	r0, r5
    hdma_adc1.Init.Mode = DMA_CIRCULAR;
 80006ba:	2320      	movs	r3, #32
    hdma_adc1.Init.PeriphInc = DMA_PINC_DISABLE;
 80006bc:	e9c5 6602 	strd	r6, r6, [r5, #8]
    hdma_adc1.Init.Priority = DMA_PRIORITY_LOW;
 80006c0:	e9c5 3607 	strd	r3, r6, [r5, #28]
    if (HAL_DMA_Init(&hdma_adc1) != HAL_OK)
 80006c4:	f003 fcd0 	bl	8004068 <HAL_DMA_Init>
 80006c8:	b930      	cbnz	r0, 80006d8 <HAL_ADC_MspInit+0xb0>
    __HAL_LINKDMA(adcHandle,DMA_Handle,hdma_adc1);
 80006ca:	6525      	str	r5, [r4, #80]	@ 0x50
 80006cc:	62ac      	str	r4, [r5, #40]	@ 0x28
}
 80006ce:	b02a      	add	sp, #168	@ 0xa8
 80006d0:	bd70      	pop	{r4, r5, r6, pc}
      Error_Handler();
 80006d2:	f000 fb83 	bl	8000ddc <Error_Handler>
 80006d6:	e7c5      	b.n	8000664 <HAL_ADC_MspInit+0x3c>
      Error_Handler();
 80006d8:	f000 fb80 	bl	8000ddc <Error_Handler>
 80006dc:	e7f5      	b.n	80006ca <HAL_ADC_MspInit+0xa2>
 80006de:	bf00      	nop
 80006e0:	50040000 	.word	0x50040000
 80006e4:	40021000 	.word	0x40021000
 80006e8:	20000484 	.word	0x20000484
 80006ec:	40020008 	.word	0x40020008

080006f0 <send_spectrogram>:
		DEBUG_PRINT("Packet counter overflow.\r\n");
		Error_Handler();
	}
}

static void send_spectrogram() {
 80006f0:	b510      	push	{r4, lr}
 80006f2:	f5ad 6d1b 	sub.w	sp, sp, #2480	@ 0x9b0
	uint8_t packet[PACKET_LENGTH];

	start_cycle_count();
 80006f6:	f002 f809 	bl	800270c <start_cycle_count>
	for (size_t i=0; i<N_MELVECS; i++) {
 80006fa:	491f      	ldr	r1, [pc, #124]	@ (8000778 <send_spectrogram+0x88>)
 80006fc:	ab01      	add	r3, sp, #4
 80006fe:	f50d 7e49 	add.w	lr, sp, #804	@ 0x324
static void send_spectrogram() {
 8000702:	4608      	mov	r0, r1
 8000704:	f103 0c28 	add.w	ip, r3, #40	@ 0x28
			(packet+PACKET_HEADER_LENGTH)[(i*MELVEC_LENGTH+j)*2]   = mel_vectors[i][j] >> 8;
 8000708:	f930 2f02 	ldrsh.w	r2, [r0, #2]!
			(packet+PACKET_HEADER_LENGTH)[(i*MELVEC_LENGTH+j)*2+1] = mel_vectors[i][j] & 0xFF;
 800070c:	725a      	strb	r2, [r3, #9]
			(packet+PACKET_HEADER_LENGTH)[(i*MELVEC_LENGTH+j)*2]   = mel_vectors[i][j] >> 8;
 800070e:	1212      	asrs	r2, r2, #8
 8000710:	721a      	strb	r2, [r3, #8]
		for (size_t j=0; j<MELVEC_LENGTH; j++) {
 8000712:	3302      	adds	r3, #2
 8000714:	4563      	cmp	r3, ip
 8000716:	d1f7      	bne.n	8000708 <send_spectrogram+0x18>
	for (size_t i=0; i<N_MELVECS; i++) {
 8000718:	459e      	cmp	lr, r3
 800071a:	f101 0128 	add.w	r1, r1, #40	@ 0x28
 800071e:	d1f0      	bne.n	8000702 <send_spectrogram+0x12>
	make_packet(packet, PAYLOAD_LENGTH, 0, *packet_cnt);
 8000720:	4c16      	ldr	r4, [pc, #88]	@ (800077c <send_spectrogram+0x8c>)
 8000722:	2200      	movs	r2, #0
 8000724:	6823      	ldr	r3, [r4, #0]
 8000726:	f44f 7148 	mov.w	r1, #800	@ 0x320
 800072a:	a801      	add	r0, sp, #4
 800072c:	f000 fc1e 	bl	8000f6c <make_packet>
	*packet_cnt += 1;
 8000730:	6823      	ldr	r3, [r4, #0]
 8000732:	3301      	adds	r3, #1
 8000734:	6023      	str	r3, [r4, #0]
	if (*packet_cnt == 0) {
 8000736:	b1cb      	cbz	r3, 800076c <send_spectrogram+0x7c>
	encode_packet(packet, &packet_cnt);
	stop_cycle_count("Encode packet");
 8000738:	4811      	ldr	r0, [pc, #68]	@ (8000780 <send_spectrogram+0x90>)
 800073a:	f002 f807 	bl	800274c <stop_cycle_count>

	start_cycle_count();
 800073e:	f001 ffe5 	bl	800270c <start_cycle_count>
	S2LP_Send(packet, PACKET_LENGTH);
 8000742:	f44f 714e 	mov.w	r1, #824	@ 0x338
 8000746:	a801      	add	r0, sp, #4
 8000748:	f000 fd9e 	bl	8001288 <S2LP_Send>
	stop_cycle_count("Send packet");
 800074c:	480d      	ldr	r0, [pc, #52]	@ (8000784 <send_spectrogram+0x94>)
 800074e:	f001 fffd 	bl	800274c <stop_cycle_count>
	hex_encode(hex_encoded_packet, packet, PACKET_LENGTH);
 8000752:	a8cf      	add	r0, sp, #828	@ 0x33c
 8000754:	f44f 724e 	mov.w	r2, #824	@ 0x338
 8000758:	a901      	add	r1, sp, #4
 800075a:	f002 f813 	bl	8002784 <hex_encode>
	DEBUG_PRINT("DF:HEX:%s\r\n", hex_encoded_packet);
 800075e:	a9cf      	add	r1, sp, #828	@ 0x33c
 8000760:	4809      	ldr	r0, [pc, #36]	@ (8000788 <send_spectrogram+0x98>)
 8000762:	f007 f977 	bl	8007a54 <iprintf>

	print_encoded_packet(packet);
}
 8000766:	f50d 6d1b 	add.w	sp, sp, #2480	@ 0x9b0
 800076a:	bd10      	pop	{r4, pc}
		DEBUG_PRINT("Packet counter overflow.\r\n");
 800076c:	4807      	ldr	r0, [pc, #28]	@ (800078c <send_spectrogram+0x9c>)
 800076e:	f007 f9d9 	bl	8007b24 <puts>
		Error_Handler();
 8000772:	f000 fb33 	bl	8000ddc <Error_Handler>
 8000776:	e7df      	b.n	8000738 <send_spectrogram+0x48>
 8000778:	2000053a 	.word	0x2000053a
 800077c:	20000538 	.word	0x20000538
 8000780:	08008c58 	.word	0x08008c58
 8000784:	08008c68 	.word	0x08008c68
 8000788:	08008c74 	.word	0x08008c74
 800078c:	08008c3c 	.word	0x08008c3c

08000790 <StartADCAcq>:
int StartADCAcq(int32_t n_bufs) {
 8000790:	b508      	push	{r3, lr}
	cur_melvec = 0;
 8000792:	4a07      	ldr	r2, [pc, #28]	@ (80007b0 <StartADCAcq+0x20>)
	rem_n_bufs = n_bufs;
 8000794:	4b07      	ldr	r3, [pc, #28]	@ (80007b4 <StartADCAcq+0x24>)
	cur_melvec = 0;
 8000796:	2100      	movs	r1, #0
	rem_n_bufs = n_bufs;
 8000798:	6018      	str	r0, [r3, #0]
	cur_melvec = 0;
 800079a:	7011      	strb	r1, [r2, #0]
	if (rem_n_bufs != 0) {
 800079c:	6818      	ldr	r0, [r3, #0]
 800079e:	b900      	cbnz	r0, 80007a2 <StartADCAcq+0x12>
}
 80007a0:	bd08      	pop	{r3, pc}
		return HAL_ADC_Start_DMA(&hadc1, (uint32_t *)ADCDoubleBuf, 2*ADC_BUF_SIZE);
 80007a2:	4905      	ldr	r1, [pc, #20]	@ (80007b8 <StartADCAcq+0x28>)
 80007a4:	4805      	ldr	r0, [pc, #20]	@ (80007bc <StartADCAcq+0x2c>)
 80007a6:	f44f 6280 	mov.w	r2, #1024	@ 0x400
 80007aa:	f002 fcf3 	bl	8003194 <HAL_ADC_Start_DMA>
}
 80007ae:	bd08      	pop	{r3, pc}
 80007b0:	2000085c 	.word	0x2000085c
 80007b4:	20000534 	.word	0x20000534
 80007b8:	20000864 	.word	0x20000864
 80007bc:	200004cc 	.word	0x200004cc

080007c0 <IsADCFinished>:
	return (rem_n_bufs == 0);
 80007c0:	4b02      	ldr	r3, [pc, #8]	@ (80007cc <IsADCFinished+0xc>)
 80007c2:	6818      	ldr	r0, [r3, #0]
}
 80007c4:	fab0 f080 	clz	r0, r0
 80007c8:	0940      	lsrs	r0, r0, #5
 80007ca:	4770      	bx	lr
 80007cc:	20000534 	.word	0x20000534

080007d0 <HAL_ADC_ConvCpltCallback>:
		send_spectrogram();
	}
}

void HAL_ADC_ConvCpltCallback(ADC_HandleTypeDef *hadc)
{
 80007d0:	b570      	push	{r4, r5, r6, lr}
	if (rem_n_bufs != -1) {
 80007d2:	4c19      	ldr	r4, [pc, #100]	@ (8000838 <HAL_ADC_ConvCpltCallback+0x68>)
 80007d4:	6823      	ldr	r3, [r4, #0]
 80007d6:	3301      	adds	r3, #1
 80007d8:	d002      	beq.n	80007e0 <HAL_ADC_ConvCpltCallback+0x10>
		rem_n_bufs--;
 80007da:	6823      	ldr	r3, [r4, #0]
 80007dc:	3b01      	subs	r3, #1
 80007de:	6023      	str	r3, [r4, #0]
	if (rem_n_bufs == 0) {
 80007e0:	6823      	ldr	r3, [r4, #0]
 80007e2:	b303      	cbz	r3, 8000826 <HAL_ADC_ConvCpltCallback+0x56>
	} else if (ADCDataRdy[1-buf_cplt]) {
 80007e4:	4e15      	ldr	r6, [pc, #84]	@ (800083c <HAL_ADC_ConvCpltCallback+0x6c>)
 80007e6:	7833      	ldrb	r3, [r6, #0]
 80007e8:	b9bb      	cbnz	r3, 800081a <HAL_ADC_ConvCpltCallback+0x4a>
	Spectrogram_Compute((q15_t *)ADCData[buf_cplt], mel_vectors[cur_melvec]);
 80007ea:	4d15      	ldr	r5, [pc, #84]	@ (8000840 <HAL_ADC_ConvCpltCallback+0x70>)
	Spectrogram_Format((q15_t *)ADCData[buf_cplt]);
 80007ec:	4815      	ldr	r0, [pc, #84]	@ (8000844 <HAL_ADC_ConvCpltCallback+0x74>)
	ADCDataRdy[buf_cplt] = 1;
 80007ee:	2301      	movs	r3, #1
 80007f0:	7073      	strb	r3, [r6, #1]
	Spectrogram_Format((q15_t *)ADCData[buf_cplt]);
 80007f2:	f001 fd25 	bl	8002240 <Spectrogram_Format>
	Spectrogram_Compute((q15_t *)ADCData[buf_cplt], mel_vectors[cur_melvec]);
 80007f6:	782b      	ldrb	r3, [r5, #0]
 80007f8:	4913      	ldr	r1, [pc, #76]	@ (8000848 <HAL_ADC_ConvCpltCallback+0x78>)
 80007fa:	4812      	ldr	r0, [pc, #72]	@ (8000844 <HAL_ADC_ConvCpltCallback+0x74>)
 80007fc:	eb03 0383 	add.w	r3, r3, r3, lsl #2
 8000800:	eb01 01c3 	add.w	r1, r1, r3, lsl #3
 8000804:	f001 fd30 	bl	8002268 <Spectrogram_Compute>
	cur_melvec++;
 8000808:	782b      	ldrb	r3, [r5, #0]
 800080a:	3301      	adds	r3, #1
 800080c:	b2db      	uxtb	r3, r3
	ADCDataRdy[buf_cplt] = 0;
 800080e:	2200      	movs	r2, #0
	cur_melvec++;
 8000810:	702b      	strb	r3, [r5, #0]
	ADCDataRdy[buf_cplt] = 0;
 8000812:	7072      	strb	r2, [r6, #1]
	if (rem_n_bufs == 0) {
 8000814:	6823      	ldr	r3, [r4, #0]
 8000816:	b15b      	cbz	r3, 8000830 <HAL_ADC_ConvCpltCallback+0x60>
	ADC_Callback(1);
}
 8000818:	bd70      	pop	{r4, r5, r6, pc}
		DEBUG_PRINT("Error: ADC Data buffer full\r\n");
 800081a:	480c      	ldr	r0, [pc, #48]	@ (800084c <HAL_ADC_ConvCpltCallback+0x7c>)
 800081c:	f007 f982 	bl	8007b24 <puts>
		Error_Handler();
 8000820:	f000 fadc 	bl	8000ddc <Error_Handler>
 8000824:	e7e1      	b.n	80007ea <HAL_ADC_ConvCpltCallback+0x1a>
	HAL_ADC_Stop_DMA(&hadc1);
 8000826:	480a      	ldr	r0, [pc, #40]	@ (8000850 <HAL_ADC_ConvCpltCallback+0x80>)
 8000828:	4e04      	ldr	r6, [pc, #16]	@ (800083c <HAL_ADC_ConvCpltCallback+0x6c>)
 800082a:	f002 fd69 	bl	8003300 <HAL_ADC_Stop_DMA>
}
 800082e:	e7dc      	b.n	80007ea <HAL_ADC_ConvCpltCallback+0x1a>
}
 8000830:	e8bd 4070 	ldmia.w	sp!, {r4, r5, r6, lr}
		send_spectrogram();
 8000834:	f7ff bf5c 	b.w	80006f0 <send_spectrogram>
 8000838:	20000534 	.word	0x20000534
 800083c:	20000860 	.word	0x20000860
 8000840:	2000085c 	.word	0x2000085c
 8000844:	20000c64 	.word	0x20000c64
 8000848:	2000053c 	.word	0x2000053c
 800084c:	08008c80 	.word	0x08008c80
 8000850:	200004cc 	.word	0x200004cc

08000854 <HAL_ADC_ConvHalfCpltCallback>:

void HAL_ADC_ConvHalfCpltCallback(ADC_HandleTypeDef *hadc)
{
 8000854:	b570      	push	{r4, r5, r6, lr}
	if (rem_n_bufs != -1) {
 8000856:	4c19      	ldr	r4, [pc, #100]	@ (80008bc <HAL_ADC_ConvHalfCpltCallback+0x68>)
 8000858:	6823      	ldr	r3, [r4, #0]
 800085a:	3301      	adds	r3, #1
 800085c:	d002      	beq.n	8000864 <HAL_ADC_ConvHalfCpltCallback+0x10>
		rem_n_bufs--;
 800085e:	6823      	ldr	r3, [r4, #0]
 8000860:	3b01      	subs	r3, #1
 8000862:	6023      	str	r3, [r4, #0]
	if (rem_n_bufs == 0) {
 8000864:	6823      	ldr	r3, [r4, #0]
 8000866:	b303      	cbz	r3, 80008aa <HAL_ADC_ConvHalfCpltCallback+0x56>
	} else if (ADCDataRdy[1-buf_cplt]) {
 8000868:	4e15      	ldr	r6, [pc, #84]	@ (80008c0 <HAL_ADC_ConvHalfCpltCallback+0x6c>)
 800086a:	7873      	ldrb	r3, [r6, #1]
 800086c:	b9bb      	cbnz	r3, 800089e <HAL_ADC_ConvHalfCpltCallback+0x4a>
	Spectrogram_Compute((q15_t *)ADCData[buf_cplt], mel_vectors[cur_melvec]);
 800086e:	4d15      	ldr	r5, [pc, #84]	@ (80008c4 <HAL_ADC_ConvHalfCpltCallback+0x70>)
	Spectrogram_Format((q15_t *)ADCData[buf_cplt]);
 8000870:	4815      	ldr	r0, [pc, #84]	@ (80008c8 <HAL_ADC_ConvHalfCpltCallback+0x74>)
	ADCDataRdy[buf_cplt] = 1;
 8000872:	2301      	movs	r3, #1
 8000874:	7033      	strb	r3, [r6, #0]
	Spectrogram_Format((q15_t *)ADCData[buf_cplt]);
 8000876:	f001 fce3 	bl	8002240 <Spectrogram_Format>
	Spectrogram_Compute((q15_t *)ADCData[buf_cplt], mel_vectors[cur_melvec]);
 800087a:	782b      	ldrb	r3, [r5, #0]
 800087c:	4913      	ldr	r1, [pc, #76]	@ (80008cc <HAL_ADC_ConvHalfCpltCallback+0x78>)
 800087e:	4812      	ldr	r0, [pc, #72]	@ (80008c8 <HAL_ADC_ConvHalfCpltCallback+0x74>)
 8000880:	eb03 0383 	add.w	r3, r3, r3, lsl #2
 8000884:	eb01 01c3 	add.w	r1, r1, r3, lsl #3
 8000888:	f001 fcee 	bl	8002268 <Spectrogram_Compute>
	cur_melvec++;
 800088c:	782b      	ldrb	r3, [r5, #0]
 800088e:	3301      	adds	r3, #1
 8000890:	b2db      	uxtb	r3, r3
	ADCDataRdy[buf_cplt] = 0;
 8000892:	2200      	movs	r2, #0
	cur_melvec++;
 8000894:	702b      	strb	r3, [r5, #0]
	ADCDataRdy[buf_cplt] = 0;
 8000896:	7032      	strb	r2, [r6, #0]
	if (rem_n_bufs == 0) {
 8000898:	6823      	ldr	r3, [r4, #0]
 800089a:	b15b      	cbz	r3, 80008b4 <HAL_ADC_ConvHalfCpltCallback+0x60>
	ADC_Callback(0);
}
 800089c:	bd70      	pop	{r4, r5, r6, pc}
		DEBUG_PRINT("Error: ADC Data buffer full\r\n");
 800089e:	480c      	ldr	r0, [pc, #48]	@ (80008d0 <HAL_ADC_ConvHalfCpltCallback+0x7c>)
 80008a0:	f007 f940 	bl	8007b24 <puts>
		Error_Handler();
 80008a4:	f000 fa9a 	bl	8000ddc <Error_Handler>
 80008a8:	e7e1      	b.n	800086e <HAL_ADC_ConvHalfCpltCallback+0x1a>
	HAL_ADC_Stop_DMA(&hadc1);
 80008aa:	480a      	ldr	r0, [pc, #40]	@ (80008d4 <HAL_ADC_ConvHalfCpltCallback+0x80>)
 80008ac:	4e04      	ldr	r6, [pc, #16]	@ (80008c0 <HAL_ADC_ConvHalfCpltCallback+0x6c>)
 80008ae:	f002 fd27 	bl	8003300 <HAL_ADC_Stop_DMA>
}
 80008b2:	e7dc      	b.n	800086e <HAL_ADC_ConvHalfCpltCallback+0x1a>
}
 80008b4:	e8bd 4070 	ldmia.w	sp!, {r4, r5, r6, lr}
		send_spectrogram();
 80008b8:	f7ff bf1a 	b.w	80006f0 <send_spectrogram>
 80008bc:	20000534 	.word	0x20000534
 80008c0:	20000860 	.word	0x20000860
 80008c4:	2000085c 	.word	0x2000085c
 80008c8:	20000864 	.word	0x20000864
 80008cc:	2000053c 	.word	0x2000053c
 80008d0:	08008c80 	.word	0x08008c80
 80008d4:	200004cc 	.word	0x200004cc

080008d8 <MX_AES_Init>:
  hcryp.Instance = AES;
  hcryp.Init.DataType = CRYP_DATATYPE_32B;
  hcryp.Init.KeySize = CRYP_KEYSIZE_128B;
  hcryp.Init.OperatingMode = CRYP_ALGOMODE_ENCRYPT;
  hcryp.Init.ChainingMode = CRYP_CHAINMODE_AES_CMAC;
  hcryp.Init.KeyWriteFlag = CRYP_KEY_WRITE_DISABLE;
 80008d8:	ed9f 7b0f 	vldr	d7, [pc, #60]	@ 8000918 <MX_AES_Init+0x40>
  hcryp.Init.OperatingMode = CRYP_ALGOMODE_ENCRYPT;
 80008dc:	4812      	ldr	r0, [pc, #72]	@ (8000928 <MX_AES_Init+0x50>)
  hcryp.Instance = AES;
 80008de:	4913      	ldr	r1, [pc, #76]	@ (800092c <MX_AES_Init+0x54>)
  hcryp.Init.GCMCMACPhase = CRYP_GCMCMAC_FINAL_PHASE;
  hcryp.Init.pKey = (uint8_t *)pKeyAES;
  hcryp.Init.Header = (uint8_t *)HeaderAES;
 80008e0:	4a13      	ldr	r2, [pc, #76]	@ (8000930 <MX_AES_Init+0x58>)
{
 80008e2:	b538      	push	{r3, r4, r5, lr}
  hcryp.Init.KeyWriteFlag = CRYP_KEY_WRITE_DISABLE;
 80008e4:	ed80 7b06 	vstr	d7, [r0, #24]
  hcryp.Init.HeaderSize = 64;
 80008e8:	ed9f 7b0d 	vldr	d7, [pc, #52]	@ 8000920 <MX_AES_Init+0x48>
  hcryp.Init.OperatingMode = CRYP_ALGOMODE_ENCRYPT;
 80008ec:	2300      	movs	r3, #0
  hcryp.Init.pKey = (uint8_t *)pKeyAES;
 80008ee:	4c11      	ldr	r4, [pc, #68]	@ (8000934 <MX_AES_Init+0x5c>)
 80008f0:	6204      	str	r4, [r0, #32]
  hcryp.Init.ChainingMode = CRYP_CHAINMODE_AES_CMAC;
 80008f2:	f44f 3580 	mov.w	r5, #65536	@ 0x10000
  hcryp.Init.KeySize = CRYP_KEYSIZE_128B;
 80008f6:	e9c0 3302 	strd	r3, r3, [r0, #8]
  hcryp.Init.HeaderSize = 64;
 80008fa:	ed80 7b0c 	vstr	d7, [r0, #48]	@ 0x30
  hcryp.Init.ChainingMode = CRYP_CHAINMODE_AES_CMAC;
 80008fe:	6145      	str	r5, [r0, #20]
  hcryp.Init.OperatingMode = CRYP_ALGOMODE_ENCRYPT;
 8000900:	6103      	str	r3, [r0, #16]
  hcryp.Instance = AES;
 8000902:	6001      	str	r1, [r0, #0]
  hcryp.Init.Header = (uint8_t *)HeaderAES;
 8000904:	6282      	str	r2, [r0, #40]	@ 0x28
  if (HAL_CRYP_Init(&hcryp) != HAL_OK)
 8000906:	f002 fe9d 	bl	8003644 <HAL_CRYP_Init>
 800090a:	b900      	cbnz	r0, 800090e <MX_AES_Init+0x36>
  }
  /* USER CODE BEGIN AES_Init 2 */

  /* USER CODE END AES_Init 2 */

}
 800090c:	bd38      	pop	{r3, r4, r5, pc}
 800090e:	e8bd 4038 	ldmia.w	sp!, {r3, r4, r5, lr}
    Error_Handler();
 8000912:	f000 ba63 	b.w	8000ddc <Error_Handler>
 8000916:	bf00      	nop
 8000918:	00000001 	.word	0x00000001
 800091c:	00006000 	.word	0x00006000
 8000920:	00000040 	.word	0x00000040
 8000924:	00000000 	.word	0x00000000
 8000928:	20001068 	.word	0x20001068
 800092c:	50060000 	.word	0x50060000
 8000930:	08008ca0 	.word	0x08008ca0
 8000934:	08008ce0 	.word	0x08008ce0

08000938 <HAL_CRYP_MspInit>:

void HAL_CRYP_MspInit(CRYP_HandleTypeDef* crypHandle)
{

  if(crypHandle->Instance==AES)
 8000938:	4b0a      	ldr	r3, [pc, #40]	@ (8000964 <HAL_CRYP_MspInit+0x2c>)
 800093a:	6802      	ldr	r2, [r0, #0]
 800093c:	429a      	cmp	r2, r3
 800093e:	d000      	beq.n	8000942 <HAL_CRYP_MspInit+0xa>
 8000940:	4770      	bx	lr
  {
  /* USER CODE BEGIN AES_MspInit 0 */

  /* USER CODE END AES_MspInit 0 */
    /* AES clock enable */
    __HAL_RCC_AES_CLK_ENABLE();
 8000942:	f103 4370 	add.w	r3, r3, #4026531840	@ 0xf0000000
 8000946:	f5a3 337c 	sub.w	r3, r3, #258048	@ 0x3f000
{
 800094a:	b082      	sub	sp, #8
    __HAL_RCC_AES_CLK_ENABLE();
 800094c:	6cda      	ldr	r2, [r3, #76]	@ 0x4c
 800094e:	f442 3280 	orr.w	r2, r2, #65536	@ 0x10000
 8000952:	64da      	str	r2, [r3, #76]	@ 0x4c
 8000954:	6cdb      	ldr	r3, [r3, #76]	@ 0x4c
 8000956:	f403 3380 	and.w	r3, r3, #65536	@ 0x10000
 800095a:	9301      	str	r3, [sp, #4]
 800095c:	9b01      	ldr	r3, [sp, #4]
  /* USER CODE BEGIN AES_MspInit 1 */

  /* USER CODE END AES_MspInit 1 */
  }
}
 800095e:	b002      	add	sp, #8
 8000960:	4770      	bx	lr
 8000962:	bf00      	nop
 8000964:	50060000 	.word	0x50060000

08000968 <arm_absmax_q15>:
void arm_absmax_q15(
  const q15_t * pSrc,
        uint32_t blockSize,
        q15_t * pResult,
        uint32_t * pIndex)
{
 8000968:	e92d 47f0 	stmdb	sp!, {r4, r5, r6, r7, r8, r9, sl, lr}
        uint32_t index;                                /* index of maximum value */                         \
                                                                                                            \
  /* Initialize index value to zero. */                                                                     \
  outIndex = 0U;                                                                                            \
  /* Load first input value that act as reference value for comparision */                                  \
  out = *pSrc++;                                                                                            \
 800096c:	4680      	mov	r8, r0
 800096e:	f938 cb02 	ldrsh.w	ip, [r8], #2
  out = (out > 0) ? out : (q15_t)__QSUB16(0, out);                                                                           \
 8000972:	f1bc 0f00 	cmp.w	ip, #0
 8000976:	dc04      	bgt.n	8000982 <arm_absmax_q15+0x1a>

__STATIC_FORCEINLINE uint32_t __QSUB16(uint32_t op1, uint32_t op2)
{
  uint32_t result;

  __ASM volatile ("qsub16 %0, %1, %2" : "=r" (result) : "r" (op1), "r" (op2) );
 8000978:	2400      	movs	r4, #0
 800097a:	fad4 f41c 	qsub16	r4, r4, ip
 800097e:	fa0f fc84 	sxth.w	ip, r4
  /* Initialize index of extrema value. */                                                                  \
  index = 0U;                                                                                               \
                                                                                                            \
  /* Loop unrolling: Compute 4 outputs at a time */                                                         \
  blkCnt = (blockSize - 1U) >> 2U;                                                                          \
 8000982:	f101 39ff 	add.w	r9, r1, #4294967295
                                                                                                            \
  while (blkCnt > 0U)                                                                                       \
 8000986:	ea5f 0a99 	movs.w	sl, r9, lsr #2
 800098a:	d07c      	beq.n	8000a86 <arm_absmax_q15+0x11e>
  index = 0U;                                                                                               \
 800098c:	2400      	movs	r4, #0
 800098e:	300a      	adds	r0, #10
 8000990:	ea4f 078a 	mov.w	r7, sl, lsl #2
  outIndex = 0U;                                                                                            \
 8000994:	4625      	mov	r5, r4
 8000996:	4626      	mov	r6, r4
  {                                                                                                         \
    /* Initialize cur_absmax to next consecutive values one by one */                                         \
    cur_absmax = *pSrc++;                                                                                     \
 8000998:	f930 ec08 	ldrsh.w	lr, [r0, #-8]
    cur_absmax = (cur_absmax > 0) ? cur_absmax : (q15_t)__QSUB16(0, cur_absmax);                                                                \
 800099c:	f1be 0f00 	cmp.w	lr, #0
 80009a0:	dc03      	bgt.n	80009aa <arm_absmax_q15+0x42>
 80009a2:	fad6 fe1e 	qsub16	lr, r6, lr
 80009a6:	fa0f fe8e 	sxth.w	lr, lr
    /* compare for the extrema value */                                                                     \
    if (cur_absmax > out)                                                                         \
 80009aa:	45e6      	cmp	lr, ip
    {                                                                                                       \
      /* Update the extrema value and it's index */                                                         \
      out = cur_absmax;                                                                                       \
      outIndex = index + 1U;                                                                                \
 80009ac:	bfc8      	it	gt
 80009ae:	46f4      	movgt	ip, lr
    }                                                                                                       \
                                                                                                            \
    cur_absmax = *pSrc++;                                                                                     \
 80009b0:	f930 ec06 	ldrsh.w	lr, [r0, #-6]
      outIndex = index + 1U;                                                                                \
 80009b4:	bfc8      	it	gt
 80009b6:	1c65      	addgt	r5, r4, #1
    cur_absmax = (cur_absmax > 0) ? cur_absmax : (q15_t)__QSUB16(0, cur_absmax);                                                                \
 80009b8:	f1be 0f00 	cmp.w	lr, #0
 80009bc:	dc03      	bgt.n	80009c6 <arm_absmax_q15+0x5e>
 80009be:	fad6 fe1e 	qsub16	lr, r6, lr
 80009c2:	fa0f fe8e 	sxth.w	lr, lr
    if (cur_absmax > out)                                                                         \
 80009c6:	45f4      	cmp	ip, lr
    {                                                                                                       \
      out = cur_absmax;                                                                                       \
      outIndex = index + 2U;                                                                                \
 80009c8:	bfb8      	it	lt
 80009ca:	46f4      	movlt	ip, lr
    }                                                                                                       \
                                                                                                            \
    cur_absmax = *pSrc++;                                                                                     \
 80009cc:	f930 ec04 	ldrsh.w	lr, [r0, #-4]
      outIndex = index + 2U;                                                                                \
 80009d0:	bfb8      	it	lt
 80009d2:	1ca5      	addlt	r5, r4, #2
    cur_absmax = (cur_absmax > 0) ? cur_absmax : (q15_t)__QSUB16(0, cur_absmax);                                                                \
 80009d4:	f1be 0f00 	cmp.w	lr, #0
 80009d8:	dc03      	bgt.n	80009e2 <arm_absmax_q15+0x7a>
 80009da:	fad6 fe1e 	qsub16	lr, r6, lr
 80009de:	fa0f fe8e 	sxth.w	lr, lr
    if (cur_absmax > out)                                                                          \
 80009e2:	45f4      	cmp	ip, lr
    {                                                                                                       \
      out = cur_absmax;                                                                                       \
      outIndex = index + 3U;                                                                                \
 80009e4:	bfa8      	it	ge
 80009e6:	46e6      	movge	lr, ip
    }                                                                                                       \
                                                                                                            \
    cur_absmax = *pSrc++;                                                                                     \
 80009e8:	f930 cc02 	ldrsh.w	ip, [r0, #-2]
      outIndex = index + 3U;                                                                                \
 80009ec:	bfb8      	it	lt
 80009ee:	1ce5      	addlt	r5, r4, #3
    cur_absmax = (cur_absmax > 0) ? cur_absmax : (q15_t)__QSUB16(0, cur_absmax);                                                                 \
 80009f0:	f1bc 0f00 	cmp.w	ip, #0
 80009f4:	dc03      	bgt.n	80009fe <arm_absmax_q15+0x96>
 80009f6:	fad6 fc1c 	qsub16	ip, r6, ip
 80009fa:	fa0f fc8c 	sxth.w	ip, ip
    if (cur_absmax > out)                                                                          \
 80009fe:	45e6      	cmp	lr, ip
    {                                                                                                       \
      out = cur_absmax;                                                                                       \
      outIndex = index + 4U;                                                                                \
 8000a00:	f104 0404 	add.w	r4, r4, #4
    if (cur_absmax > out)                                                                          \
 8000a04:	bfac      	ite	ge
 8000a06:	46f4      	movge	ip, lr
      outIndex = index + 4U;                                                                                \
 8000a08:	4625      	movlt	r5, r4
  while (blkCnt > 0U)                                                                                       \
 8000a0a:	42bc      	cmp	r4, r7
 8000a0c:	f100 0008 	add.w	r0, r0, #8
 8000a10:	d1c2      	bne.n	8000998 <arm_absmax_q15+0x30>
    cur_absmax = *pSrc++;                                                                                     \
 8000a12:	eb08 08ca 	add.w	r8, r8, sl, lsl #3
                                                                                                            \
  /* Loop unrolling: Compute remaining outputs */                                                           \
  blkCnt = (blockSize - 1U) % 4U;                                                                           \
                                                                                                            \
                                                                                                            \
  while (blkCnt > 0U)                                                                                       \
 8000a16:	f019 0403 	ands.w	r4, r9, #3
 8000a1a:	d01f      	beq.n	8000a5c <arm_absmax_q15+0xf4>
  {                                                                                                         \
    cur_absmax = *pSrc++;                                                                                     \
 8000a1c:	f9b8 0000 	ldrsh.w	r0, [r8]
    cur_absmax = (cur_absmax > 0) ? cur_absmax : (q15_t)__QSUB16(0, cur_absmax);                                                                 \
 8000a20:	2800      	cmp	r0, #0
 8000a22:	dd20      	ble.n	8000a66 <arm_absmax_q15+0xfe>
    if (cur_absmax > out)                                                                         \
 8000a24:	4560      	cmp	r0, ip
    {                                                                                                       \
      out = cur_absmax;                                                                                       \
      outIndex = blockSize - blkCnt;                                                                        \
 8000a26:	bfc4      	itt	gt
 8000a28:	4684      	movgt	ip, r0
 8000a2a:	1b0d      	subgt	r5, r1, r4
  while (blkCnt > 0U)                                                                                       \
 8000a2c:	1e66      	subs	r6, r4, #1
 8000a2e:	d015      	beq.n	8000a5c <arm_absmax_q15+0xf4>
    cur_absmax = *pSrc++;                                                                                     \
 8000a30:	f9b8 0002 	ldrsh.w	r0, [r8, #2]
    cur_absmax = (cur_absmax > 0) ? cur_absmax : (q15_t)__QSUB16(0, cur_absmax);                                                                 \
 8000a34:	2800      	cmp	r0, #0
 8000a36:	dd1b      	ble.n	8000a70 <arm_absmax_q15+0x108>
    if (cur_absmax > out)                                                                         \
 8000a38:	4584      	cmp	ip, r0
      outIndex = blockSize - blkCnt;                                                                        \
 8000a3a:	bfbc      	itt	lt
 8000a3c:	1b8d      	sublt	r5, r1, r6
 8000a3e:	4684      	movlt	ip, r0
  while (blkCnt > 0U)                                                                                       \
 8000a40:	2c02      	cmp	r4, #2
 8000a42:	d00b      	beq.n	8000a5c <arm_absmax_q15+0xf4>
    cur_absmax = *pSrc++;                                                                                     \
 8000a44:	f9b8 1004 	ldrsh.w	r1, [r8, #4]
    cur_absmax = (cur_absmax > 0) ? cur_absmax : (q15_t)__QSUB16(0, cur_absmax);                                                                 \
 8000a48:	2900      	cmp	r1, #0
 8000a4a:	dc03      	bgt.n	8000a54 <arm_absmax_q15+0xec>
 8000a4c:	2000      	movs	r0, #0
 8000a4e:	fad0 f111 	qsub16	r1, r0, r1
 8000a52:	b209      	sxth	r1, r1
    if (cur_absmax > out)                                                                         \
 8000a54:	4561      	cmp	r1, ip
 8000a56:	bfc4      	itt	gt
 8000a58:	464d      	movgt	r5, r9
 8000a5a:	468c      	movgt	ip, r1
    /* Decrement loop counter */                                                                            \
    blkCnt--;                                                                                               \
  }                                                                                                         \
                                                                                                            \
  /* Store the extrema value and it's index into destination pointers */                                    \
  *pResult = out;                                                                                           \
 8000a5c:	f8a2 c000 	strh.w	ip, [r2]
  *pIndex = outIndex;
 8000a60:	601d      	str	r5, [r3, #0]
}
 8000a62:	e8bd 87f0 	ldmia.w	sp!, {r4, r5, r6, r7, r8, r9, sl, pc}
 8000a66:	2600      	movs	r6, #0
 8000a68:	fad6 f010 	qsub16	r0, r6, r0
    cur_absmax = (cur_absmax > 0) ? cur_absmax : (q15_t)__QSUB16(0, cur_absmax);                                                                 \
 8000a6c:	b200      	sxth	r0, r0
 8000a6e:	e7d9      	b.n	8000a24 <arm_absmax_q15+0xbc>
 8000a70:	2700      	movs	r7, #0
 8000a72:	fad7 f010 	qsub16	r0, r7, r0
 8000a76:	b200      	sxth	r0, r0
    if (cur_absmax > out)                                                                         \
 8000a78:	4584      	cmp	ip, r0
      outIndex = blockSize - blkCnt;                                                                        \
 8000a7a:	bfbc      	itt	lt
 8000a7c:	1b8d      	sublt	r5, r1, r6
 8000a7e:	4684      	movlt	ip, r0
  while (blkCnt > 0U)                                                                                       \
 8000a80:	2c02      	cmp	r4, #2
 8000a82:	d1df      	bne.n	8000a44 <arm_absmax_q15+0xdc>
 8000a84:	e7ea      	b.n	8000a5c <arm_absmax_q15+0xf4>
  outIndex = 0U;                                                                                            \
 8000a86:	4655      	mov	r5, sl
 8000a88:	e7c5      	b.n	8000a16 <arm_absmax_q15+0xae>
 8000a8a:	bf00      	nop

08000a8c <MX_DMA_Init>:
  */
void MX_DMA_Init(void)
{

  /* DMA controller clock enable */
  __HAL_RCC_DMA1_CLK_ENABLE();
 8000a8c:	4b0a      	ldr	r3, [pc, #40]	@ (8000ab8 <MX_DMA_Init+0x2c>)
{
 8000a8e:	b500      	push	{lr}
  __HAL_RCC_DMA1_CLK_ENABLE();
 8000a90:	6c99      	ldr	r1, [r3, #72]	@ 0x48
 8000a92:	f041 0101 	orr.w	r1, r1, #1
 8000a96:	6499      	str	r1, [r3, #72]	@ 0x48
 8000a98:	6c9b      	ldr	r3, [r3, #72]	@ 0x48
{
 8000a9a:	b083      	sub	sp, #12

  /* DMA interrupt init */
  /* DMA1_Channel1_IRQn interrupt configuration */
  HAL_NVIC_SetPriority(DMA1_Channel1_IRQn, 1, 0);
 8000a9c:	2101      	movs	r1, #1
  __HAL_RCC_DMA1_CLK_ENABLE();
 8000a9e:	400b      	ands	r3, r1
 8000aa0:	9301      	str	r3, [sp, #4]
  HAL_NVIC_SetPriority(DMA1_Channel1_IRQn, 1, 0);
 8000aa2:	200b      	movs	r0, #11
 8000aa4:	2200      	movs	r2, #0
  __HAL_RCC_DMA1_CLK_ENABLE();
 8000aa6:	9b01      	ldr	r3, [sp, #4]
  HAL_NVIC_SetPriority(DMA1_Channel1_IRQn, 1, 0);
 8000aa8:	f002 fd3e 	bl	8003528 <HAL_NVIC_SetPriority>
  HAL_NVIC_EnableIRQ(DMA1_Channel1_IRQn);
 8000aac:	200b      	movs	r0, #11

}
 8000aae:	b003      	add	sp, #12
 8000ab0:	f85d eb04 	ldr.w	lr, [sp], #4
  HAL_NVIC_EnableIRQ(DMA1_Channel1_IRQn);
 8000ab4:	f002 bd74 	b.w	80035a0 <HAL_NVIC_EnableIRQ>
 8000ab8:	40021000 	.word	0x40021000

08000abc <MX_GPIO_Init>:
     PA10   ------> USB_OTG_FS_ID
     PA11   ------> USB_OTG_FS_DM
     PA12   ------> USB_OTG_FS_DP
*/
void MX_GPIO_Init(void)
{
 8000abc:	e92d 4ff0 	stmdb	sp!, {r4, r5, r6, r7, r8, r9, sl, fp, lr}

  GPIO_InitTypeDef GPIO_InitStruct = {0};
 8000ac0:	2400      	movs	r4, #0
{
 8000ac2:	b08f      	sub	sp, #60	@ 0x3c
  GPIO_InitTypeDef GPIO_InitStruct = {0};
 8000ac4:	e9cd 4408 	strd	r4, r4, [sp, #32]
 8000ac8:	e9cd 440a 	strd	r4, r4, [sp, #40]	@ 0x28

  /* GPIO Ports Clock Enable */
  __HAL_RCC_GPIOE_CLK_ENABLE();
 8000acc:	4b98      	ldr	r3, [pc, #608]	@ (8000d30 <MX_GPIO_Init+0x274>)
  GPIO_InitTypeDef GPIO_InitStruct = {0};
 8000ace:	940c      	str	r4, [sp, #48]	@ 0x30
  __HAL_RCC_GPIOE_CLK_ENABLE();
 8000ad0:	6cda      	ldr	r2, [r3, #76]	@ 0x4c
  __HAL_RCC_GPIOG_CLK_ENABLE();
  __HAL_RCC_GPIOD_CLK_ENABLE();
  HAL_PWREx_EnableVddIO2();

  /*Configure GPIO pin Output Level */
  HAL_GPIO_WritePin(RADIO_S2LP_CSN_GPIO_Port, RADIO_S2LP_CSN_Pin, GPIO_PIN_SET);
 8000ad2:	4f98      	ldr	r7, [pc, #608]	@ (8000d34 <MX_GPIO_Init+0x278>)

  /*Configure GPIO pin Output Level */
  HAL_GPIO_WritePin(RADIO_SDN_GPIO_Port, RADIO_SDN_Pin, GPIO_PIN_SET);
 8000ad4:	f8df a26c 	ldr.w	sl, [pc, #620]	@ 8000d44 <MX_GPIO_Init+0x288>

  /*Configure GPIO pin Output Level */
  HAL_GPIO_WritePin(RADIO_EEPROM_CSN_GPIO_Port, RADIO_EEPROM_CSN_Pin, GPIO_PIN_SET);
 8000ad8:	f8df 926c 	ldr.w	r9, [pc, #620]	@ 8000d48 <MX_GPIO_Init+0x28c>

  /*Configure GPIO pin Output Level */
  HAL_GPIO_WritePin(GPIOB, LD3_Pin|LD2_Pin, GPIO_PIN_RESET);
 8000adc:	f8df 826c 	ldr.w	r8, [pc, #620]	@ 8000d4c <MX_GPIO_Init+0x290>

  /*Configure GPIO pin Output Level */
  HAL_GPIO_WritePin(USB_PowerSwitchOn_GPIO_Port, USB_PowerSwitchOn_Pin, GPIO_PIN_RESET);
 8000ae0:	4e95      	ldr	r6, [pc, #596]	@ (8000d38 <MX_GPIO_Init+0x27c>)
  __HAL_RCC_GPIOE_CLK_ENABLE();
 8000ae2:	f042 0210 	orr.w	r2, r2, #16
 8000ae6:	64da      	str	r2, [r3, #76]	@ 0x4c
 8000ae8:	6cda      	ldr	r2, [r3, #76]	@ 0x4c
 8000aea:	f002 0210 	and.w	r2, r2, #16
 8000aee:	9200      	str	r2, [sp, #0]
 8000af0:	9a00      	ldr	r2, [sp, #0]
  __HAL_RCC_GPIOC_CLK_ENABLE();
 8000af2:	6cda      	ldr	r2, [r3, #76]	@ 0x4c
 8000af4:	f042 0204 	orr.w	r2, r2, #4
 8000af8:	64da      	str	r2, [r3, #76]	@ 0x4c
 8000afa:	6cda      	ldr	r2, [r3, #76]	@ 0x4c
 8000afc:	f002 0204 	and.w	r2, r2, #4
 8000b00:	9201      	str	r2, [sp, #4]
 8000b02:	9a01      	ldr	r2, [sp, #4]
  __HAL_RCC_GPIOF_CLK_ENABLE();
 8000b04:	6cda      	ldr	r2, [r3, #76]	@ 0x4c
 8000b06:	f042 0220 	orr.w	r2, r2, #32
 8000b0a:	64da      	str	r2, [r3, #76]	@ 0x4c
 8000b0c:	6cda      	ldr	r2, [r3, #76]	@ 0x4c
 8000b0e:	f002 0220 	and.w	r2, r2, #32
 8000b12:	9202      	str	r2, [sp, #8]
 8000b14:	9a02      	ldr	r2, [sp, #8]
  __HAL_RCC_GPIOH_CLK_ENABLE();
 8000b16:	6cda      	ldr	r2, [r3, #76]	@ 0x4c
 8000b18:	f042 0280 	orr.w	r2, r2, #128	@ 0x80
 8000b1c:	64da      	str	r2, [r3, #76]	@ 0x4c
 8000b1e:	6cda      	ldr	r2, [r3, #76]	@ 0x4c
 8000b20:	f002 0280 	and.w	r2, r2, #128	@ 0x80
 8000b24:	9203      	str	r2, [sp, #12]
 8000b26:	9a03      	ldr	r2, [sp, #12]
  __HAL_RCC_GPIOA_CLK_ENABLE();
 8000b28:	6cda      	ldr	r2, [r3, #76]	@ 0x4c
 8000b2a:	f042 0201 	orr.w	r2, r2, #1
 8000b2e:	64da      	str	r2, [r3, #76]	@ 0x4c
 8000b30:	6cda      	ldr	r2, [r3, #76]	@ 0x4c
 8000b32:	f002 0201 	and.w	r2, r2, #1
 8000b36:	9204      	str	r2, [sp, #16]
 8000b38:	9a04      	ldr	r2, [sp, #16]
  __HAL_RCC_GPIOB_CLK_ENABLE();
 8000b3a:	6cda      	ldr	r2, [r3, #76]	@ 0x4c
 8000b3c:	f042 0202 	orr.w	r2, r2, #2
 8000b40:	64da      	str	r2, [r3, #76]	@ 0x4c
 8000b42:	6cda      	ldr	r2, [r3, #76]	@ 0x4c
 8000b44:	f002 0202 	and.w	r2, r2, #2
 8000b48:	9205      	str	r2, [sp, #20]
 8000b4a:	9a05      	ldr	r2, [sp, #20]
  __HAL_RCC_GPIOG_CLK_ENABLE();
 8000b4c:	6cda      	ldr	r2, [r3, #76]	@ 0x4c
 8000b4e:	f042 0240 	orr.w	r2, r2, #64	@ 0x40
 8000b52:	64da      	str	r2, [r3, #76]	@ 0x4c
 8000b54:	6cda      	ldr	r2, [r3, #76]	@ 0x4c
 8000b56:	f002 0240 	and.w	r2, r2, #64	@ 0x40
 8000b5a:	9206      	str	r2, [sp, #24]
 8000b5c:	9a06      	ldr	r2, [sp, #24]
  __HAL_RCC_GPIOD_CLK_ENABLE();
 8000b5e:	6cda      	ldr	r2, [r3, #76]	@ 0x4c
 8000b60:	f042 0208 	orr.w	r2, r2, #8
 8000b64:	64da      	str	r2, [r3, #76]	@ 0x4c
 8000b66:	6cdb      	ldr	r3, [r3, #76]	@ 0x4c
 8000b68:	f003 0308 	and.w	r3, r3, #8
 8000b6c:	9307      	str	r3, [sp, #28]
 8000b6e:	9b07      	ldr	r3, [sp, #28]
  HAL_PWREx_EnableVddIO2();
 8000b70:	f003 fd1c 	bl	80045ac <HAL_PWREx_EnableVddIO2>
  HAL_GPIO_WritePin(RADIO_S2LP_CSN_GPIO_Port, RADIO_S2LP_CSN_Pin, GPIO_PIN_SET);
 8000b74:	2201      	movs	r2, #1
 8000b76:	4611      	mov	r1, r2
 8000b78:	4638      	mov	r0, r7
 8000b7a:	f003 fcbd 	bl	80044f8 <HAL_GPIO_WritePin>
  HAL_GPIO_WritePin(RADIO_SDN_GPIO_Port, RADIO_SDN_Pin, GPIO_PIN_SET);
 8000b7e:	4650      	mov	r0, sl
 8000b80:	2201      	movs	r2, #1
 8000b82:	f44f 5100 	mov.w	r1, #8192	@ 0x2000
 8000b86:	f003 fcb7 	bl	80044f8 <HAL_GPIO_WritePin>
  HAL_GPIO_WritePin(RADIO_EEPROM_CSN_GPIO_Port, RADIO_EEPROM_CSN_Pin, GPIO_PIN_SET);
 8000b8a:	4648      	mov	r0, r9
 8000b8c:	2201      	movs	r2, #1
 8000b8e:	f44f 6100 	mov.w	r1, #2048	@ 0x800
 8000b92:	f003 fcb1 	bl	80044f8 <HAL_GPIO_WritePin>
  HAL_GPIO_WritePin(GPIOB, LD3_Pin|LD2_Pin, GPIO_PIN_RESET);
 8000b96:	4622      	mov	r2, r4
 8000b98:	4640      	mov	r0, r8
 8000b9a:	f44f 4181 	mov.w	r1, #16512	@ 0x4080
 8000b9e:	f003 fcab 	bl	80044f8 <HAL_GPIO_WritePin>
  HAL_GPIO_WritePin(USB_PowerSwitchOn_GPIO_Port, USB_PowerSwitchOn_Pin, GPIO_PIN_RESET);
 8000ba2:	4622      	mov	r2, r4
 8000ba4:	4630      	mov	r0, r6
 8000ba6:	2140      	movs	r1, #64	@ 0x40
 8000ba8:	f003 fca6 	bl	80044f8 <HAL_GPIO_WritePin>
                          |GPIO_PIN_6|GPIO_PIN_7|GPIO_PIN_8|GPIO_PIN_9
                          |GPIO_PIN_10|GPIO_PIN_12|GPIO_PIN_14|GPIO_PIN_15
                          |GPIO_PIN_0|GPIO_PIN_1;
  GPIO_InitStruct.Mode = GPIO_MODE_ANALOG;
  GPIO_InitStruct.Pull = GPIO_NOPULL;
  HAL_GPIO_Init(GPIOE, &GPIO_InitStruct);
 8000bac:	a908      	add	r1, sp, #32
 8000bae:	4648      	mov	r0, r9
  GPIO_InitStruct.Pin = GPIO_PIN_2|GPIO_PIN_3|GPIO_PIN_4|GPIO_PIN_5
 8000bb0:	f24d 72ff 	movw	r2, #55295	@ 0xd7ff
 8000bb4:	2303      	movs	r3, #3
 8000bb6:	e9cd 2308 	strd	r2, r3, [sp, #32]
  GPIO_InitStruct.Pull = GPIO_NOPULL;
 8000bba:	940a      	str	r4, [sp, #40]	@ 0x28
  HAL_GPIO_Init(GPIOE, &GPIO_InitStruct);
 8000bbc:	f003 fb78 	bl	80042b0 <HAL_GPIO_Init>

  /*Configure GPIO pin : PtPin */
  GPIO_InitStruct.Pin = B1_Pin;
  GPIO_InitStruct.Mode = GPIO_MODE_IT_RISING;
  GPIO_InitStruct.Pull = GPIO_NOPULL;
  HAL_GPIO_Init(B1_GPIO_Port, &GPIO_InitStruct);
 8000bc0:	a908      	add	r1, sp, #32
 8000bc2:	4638      	mov	r0, r7
  GPIO_InitStruct.Pin = B1_Pin;
 8000bc4:	f44f 5200 	mov.w	r2, #8192	@ 0x2000
 8000bc8:	f44f 1388 	mov.w	r3, #1114112	@ 0x110000
 8000bcc:	e9cd 2308 	strd	r2, r3, [sp, #32]
  GPIO_InitStruct.Pull = GPIO_NOPULL;
 8000bd0:	940a      	str	r4, [sp, #40]	@ 0x28
  HAL_GPIO_Init(B1_GPIO_Port, &GPIO_InitStruct);
 8000bd2:	f003 fb6d 	bl	80042b0 <HAL_GPIO_Init>
                          |GPIO_PIN_4|GPIO_PIN_5|GPIO_PIN_6|GPIO_PIN_7
                          |GPIO_PIN_8|GPIO_PIN_9|GPIO_PIN_10|GPIO_PIN_11
                          |GPIO_PIN_12|GPIO_PIN_14|GPIO_PIN_15;
  GPIO_InitStruct.Mode = GPIO_MODE_ANALOG;
  GPIO_InitStruct.Pull = GPIO_NOPULL;
  HAL_GPIO_Init(GPIOF, &GPIO_InitStruct);
 8000bd6:	a908      	add	r1, sp, #32
 8000bd8:	4650      	mov	r0, sl
  GPIO_InitStruct.Pin = GPIO_PIN_0|GPIO_PIN_1|GPIO_PIN_2|GPIO_PIN_3
 8000bda:	f64d 72ff 	movw	r2, #57343	@ 0xdfff
 8000bde:	2303      	movs	r3, #3
 8000be0:	e9cd 2308 	strd	r2, r3, [sp, #32]
  GPIO_InitStruct.Pull = GPIO_NOPULL;
 8000be4:	940a      	str	r4, [sp, #40]	@ 0x28
  HAL_GPIO_Init(GPIOF, &GPIO_InitStruct);
 8000be6:	f003 fb63 	bl	80042b0 <HAL_GPIO_Init>

  /*Configure GPIO pins : PH0 PH3 */
  GPIO_InitStruct.Pin = GPIO_PIN_0|GPIO_PIN_3;
 8000bea:	2209      	movs	r2, #9
 8000bec:	2303      	movs	r3, #3
  GPIO_InitStruct.Mode = GPIO_MODE_ANALOG;
  GPIO_InitStruct.Pull = GPIO_NOPULL;
  HAL_GPIO_Init(GPIOH, &GPIO_InitStruct);
 8000bee:	a908      	add	r1, sp, #32
 8000bf0:	4852      	ldr	r0, [pc, #328]	@ (8000d3c <MX_GPIO_Init+0x280>)
  GPIO_InitStruct.Pull = GPIO_NOPULL;
 8000bf2:	940a      	str	r4, [sp, #40]	@ 0x28

  /*Configure GPIO pin : PtPin */
  GPIO_InitStruct.Pin = RADIO_S2LP_CSN_Pin;
 8000bf4:	2501      	movs	r5, #1
  GPIO_InitStruct.Pin = GPIO_PIN_0|GPIO_PIN_3;
 8000bf6:	e9cd 2308 	strd	r2, r3, [sp, #32]
  GPIO_InitStruct.Mode = GPIO_MODE_OUTPUT_PP;
  GPIO_InitStruct.Pull = GPIO_NOPULL;
  GPIO_InitStruct.Speed = GPIO_SPEED_FREQ_VERY_HIGH;
 8000bfa:	f04f 0b03 	mov.w	fp, #3
  HAL_GPIO_Init(GPIOH, &GPIO_InitStruct);
 8000bfe:	f003 fb57 	bl	80042b0 <HAL_GPIO_Init>
  HAL_GPIO_Init(RADIO_S2LP_CSN_GPIO_Port, &GPIO_InitStruct);
 8000c02:	a908      	add	r1, sp, #32
 8000c04:	4638      	mov	r0, r7
  GPIO_InitStruct.Mode = GPIO_MODE_OUTPUT_PP;
 8000c06:	e9cd 5508 	strd	r5, r5, [sp, #32]
  GPIO_InitStruct.Speed = GPIO_SPEED_FREQ_VERY_HIGH;
 8000c0a:	e9cd 4b0a 	strd	r4, fp, [sp, #40]	@ 0x28
  HAL_GPIO_Init(RADIO_S2LP_CSN_GPIO_Port, &GPIO_InitStruct);
 8000c0e:	f003 fb4f 	bl	80042b0 <HAL_GPIO_Init>
  GPIO_InitStruct.Pin = GPIO_PIN_1|GPIO_PIN_2|GPIO_PIN_3|GPIO_PIN_4
                          |GPIO_PIN_5|GPIO_PIN_6|GPIO_PIN_7|GPIO_PIN_8
                          |GPIO_PIN_9|GPIO_PIN_10|GPIO_PIN_11|GPIO_PIN_12;
  GPIO_InitStruct.Mode = GPIO_MODE_ANALOG;
  GPIO_InitStruct.Pull = GPIO_NOPULL;
  HAL_GPIO_Init(GPIOC, &GPIO_InitStruct);
 8000c12:	4638      	mov	r0, r7
 8000c14:	a908      	add	r1, sp, #32
  GPIO_InitStruct.Pin = GPIO_PIN_1|GPIO_PIN_2|GPIO_PIN_3|GPIO_PIN_4
 8000c16:	f641 72fe 	movw	r2, #8190	@ 0x1ffe
 8000c1a:	2303      	movs	r3, #3
 8000c1c:	e9cd 2308 	strd	r2, r3, [sp, #32]
  GPIO_InitStruct.Pull = GPIO_NOPULL;
 8000c20:	940a      	str	r4, [sp, #40]	@ 0x28
  HAL_GPIO_Init(GPIOC, &GPIO_InitStruct);
 8000c22:	f003 fb45 	bl	80042b0 <HAL_GPIO_Init>
                           PA15 */
  GPIO_InitStruct.Pin = GPIO_PIN_1|GPIO_PIN_2|GPIO_PIN_4|GPIO_PIN_5
                          |GPIO_PIN_15;
  GPIO_InitStruct.Mode = GPIO_MODE_ANALOG;
  GPIO_InitStruct.Pull = GPIO_NOPULL;
  HAL_GPIO_Init(GPIOA, &GPIO_InitStruct);
 8000c26:	a908      	add	r1, sp, #32
  GPIO_InitStruct.Pin = GPIO_PIN_1|GPIO_PIN_2|GPIO_PIN_4|GPIO_PIN_5
 8000c28:	f248 0236 	movw	r2, #32822	@ 0x8036
 8000c2c:	2303      	movs	r3, #3
  HAL_GPIO_Init(GPIOA, &GPIO_InitStruct);
 8000c2e:	f04f 4090 	mov.w	r0, #1207959552	@ 0x48000000
  GPIO_InitStruct.Pin = GPIO_PIN_1|GPIO_PIN_2|GPIO_PIN_4|GPIO_PIN_5
 8000c32:	e9cd 2308 	strd	r2, r3, [sp, #32]
  GPIO_InitStruct.Pull = GPIO_NOPULL;
 8000c36:	940a      	str	r4, [sp, #40]	@ 0x28
  HAL_GPIO_Init(GPIOA, &GPIO_InitStruct);
 8000c38:	f003 fb3a 	bl	80042b0 <HAL_GPIO_Init>

  /*Configure GPIO pin : PtPin */
  GPIO_InitStruct.Pin = RADIO_INT_Pin;
  GPIO_InitStruct.Mode = GPIO_MODE_IT_FALLING;
  GPIO_InitStruct.Pull = GPIO_NOPULL;
  HAL_GPIO_Init(RADIO_INT_GPIO_Port, &GPIO_InitStruct);
 8000c3c:	a908      	add	r1, sp, #32
  GPIO_InitStruct.Pin = RADIO_INT_Pin;
 8000c3e:	2208      	movs	r2, #8
 8000c40:	f44f 1304 	mov.w	r3, #2162688	@ 0x210000
  HAL_GPIO_Init(RADIO_INT_GPIO_Port, &GPIO_InitStruct);
 8000c44:	f04f 4090 	mov.w	r0, #1207959552	@ 0x48000000
  GPIO_InitStruct.Pin = RADIO_INT_Pin;
 8000c48:	e9cd 2308 	strd	r2, r3, [sp, #32]
  GPIO_InitStruct.Pull = GPIO_NOPULL;
 8000c4c:	940a      	str	r4, [sp, #40]	@ 0x28
  HAL_GPIO_Init(RADIO_INT_GPIO_Port, &GPIO_InitStruct);
 8000c4e:	f003 fb2f 	bl	80042b0 <HAL_GPIO_Init>

  /*Configure GPIO pins : PB0 PB1 PB2 PB10
                           PB11 PB12 PB13 PB15
                           PB4 PB5 PB6 PB8
                           PB9 */
  GPIO_InitStruct.Pin = GPIO_PIN_0|GPIO_PIN_1|GPIO_PIN_2|GPIO_PIN_10
 8000c52:	f64b 7277 	movw	r2, #49015	@ 0xbf77
                          |GPIO_PIN_11|GPIO_PIN_12|GPIO_PIN_13|GPIO_PIN_15
                          |GPIO_PIN_4|GPIO_PIN_5|GPIO_PIN_6|GPIO_PIN_8
                          |GPIO_PIN_9;
  GPIO_InitStruct.Mode = GPIO_MODE_ANALOG;
  GPIO_InitStruct.Pull = GPIO_NOPULL;
  HAL_GPIO_Init(GPIOB, &GPIO_InitStruct);
 8000c56:	a908      	add	r1, sp, #32
 8000c58:	4640      	mov	r0, r8
  GPIO_InitStruct.Pin = GPIO_PIN_0|GPIO_PIN_1|GPIO_PIN_2|GPIO_PIN_10
 8000c5a:	2303      	movs	r3, #3
 8000c5c:	e9cd 2308 	strd	r2, r3, [sp, #32]
  GPIO_InitStruct.Pull = GPIO_NOPULL;
 8000c60:	940a      	str	r4, [sp, #40]	@ 0x28
  HAL_GPIO_Init(GPIOB, &GPIO_InitStruct);
 8000c62:	f003 fb25 	bl	80042b0 <HAL_GPIO_Init>
  /*Configure GPIO pin : PtPin */
  GPIO_InitStruct.Pin = RADIO_SDN_Pin;
  GPIO_InitStruct.Mode = GPIO_MODE_OUTPUT_PP;
  GPIO_InitStruct.Pull = GPIO_NOPULL;
  GPIO_InitStruct.Speed = GPIO_SPEED_FREQ_LOW;
  HAL_GPIO_Init(RADIO_SDN_GPIO_Port, &GPIO_InitStruct);
 8000c66:	4650      	mov	r0, sl
 8000c68:	a908      	add	r1, sp, #32
  GPIO_InitStruct.Pin = RADIO_SDN_Pin;
 8000c6a:	f44f 5300 	mov.w	r3, #8192	@ 0x2000
 8000c6e:	9308      	str	r3, [sp, #32]
  GPIO_InitStruct.Pull = GPIO_NOPULL;
 8000c70:	e9cd 5409 	strd	r5, r4, [sp, #36]	@ 0x24
  GPIO_InitStruct.Speed = GPIO_SPEED_FREQ_LOW;
 8000c74:	940b      	str	r4, [sp, #44]	@ 0x2c
  HAL_GPIO_Init(RADIO_SDN_GPIO_Port, &GPIO_InitStruct);
 8000c76:	f003 fb1b 	bl	80042b0 <HAL_GPIO_Init>

  /*Configure GPIO pins : PG0 PG1 PG2 PG3
                           PG4 PG9 PG10 PG11
                           PG12 PG13 PG14 PG15 */
  GPIO_InitStruct.Pin = GPIO_PIN_0|GPIO_PIN_1|GPIO_PIN_2|GPIO_PIN_3
 8000c7a:	f64f 621f 	movw	r2, #65055	@ 0xfe1f
                          |GPIO_PIN_4|GPIO_PIN_9|GPIO_PIN_10|GPIO_PIN_11
                          |GPIO_PIN_12|GPIO_PIN_13|GPIO_PIN_14|GPIO_PIN_15;
  GPIO_InitStruct.Mode = GPIO_MODE_ANALOG;
  GPIO_InitStruct.Pull = GPIO_NOPULL;
  HAL_GPIO_Init(GPIOG, &GPIO_InitStruct);
 8000c7e:	a908      	add	r1, sp, #32
 8000c80:	4630      	mov	r0, r6
  GPIO_InitStruct.Pin = GPIO_PIN_0|GPIO_PIN_1|GPIO_PIN_2|GPIO_PIN_3
 8000c82:	2303      	movs	r3, #3
 8000c84:	e9cd 2308 	strd	r2, r3, [sp, #32]
  GPIO_InitStruct.Pull = GPIO_NOPULL;
 8000c88:	940a      	str	r4, [sp, #40]	@ 0x28
  HAL_GPIO_Init(GPIOG, &GPIO_InitStruct);
 8000c8a:	f003 fb11 	bl	80042b0 <HAL_GPIO_Init>
  /*Configure GPIO pin : PtPin */
  GPIO_InitStruct.Pin = RADIO_EEPROM_CSN_Pin;
  GPIO_InitStruct.Mode = GPIO_MODE_OUTPUT_PP;
  GPIO_InitStruct.Pull = GPIO_NOPULL;
  GPIO_InitStruct.Speed = GPIO_SPEED_FREQ_LOW;
  HAL_GPIO_Init(RADIO_EEPROM_CSN_GPIO_Port, &GPIO_InitStruct);
 8000c8e:	4648      	mov	r0, r9
 8000c90:	a908      	add	r1, sp, #32
  GPIO_InitStruct.Pin = RADIO_EEPROM_CSN_Pin;
 8000c92:	f44f 6300 	mov.w	r3, #2048	@ 0x800
 8000c96:	9308      	str	r3, [sp, #32]
  GPIO_InitStruct.Pull = GPIO_NOPULL;
 8000c98:	e9cd 5409 	strd	r5, r4, [sp, #36]	@ 0x24
  GPIO_InitStruct.Speed = GPIO_SPEED_FREQ_LOW;
 8000c9c:	940b      	str	r4, [sp, #44]	@ 0x2c
  HAL_GPIO_Init(RADIO_EEPROM_CSN_GPIO_Port, &GPIO_InitStruct);
 8000c9e:	f003 fb07 	bl	80042b0 <HAL_GPIO_Init>
  /*Configure GPIO pins : PBPin PBPin */
  GPIO_InitStruct.Pin = LD3_Pin|LD2_Pin;
  GPIO_InitStruct.Mode = GPIO_MODE_OUTPUT_PP;
  GPIO_InitStruct.Pull = GPIO_NOPULL;
  GPIO_InitStruct.Speed = GPIO_SPEED_FREQ_LOW;
  HAL_GPIO_Init(GPIOB, &GPIO_InitStruct);
 8000ca2:	4640      	mov	r0, r8
 8000ca4:	a908      	add	r1, sp, #32
  GPIO_InitStruct.Pin = LD3_Pin|LD2_Pin;
 8000ca6:	f44f 4381 	mov.w	r3, #16512	@ 0x4080
 8000caa:	9308      	str	r3, [sp, #32]
  GPIO_InitStruct.Pull = GPIO_NOPULL;
 8000cac:	e9cd 5409 	strd	r5, r4, [sp, #36]	@ 0x24
  GPIO_InitStruct.Speed = GPIO_SPEED_FREQ_LOW;
 8000cb0:	940b      	str	r4, [sp, #44]	@ 0x2c
  HAL_GPIO_Init(GPIOB, &GPIO_InitStruct);
 8000cb2:	f003 fafd 	bl	80042b0 <HAL_GPIO_Init>
                          |GPIO_PIN_12|GPIO_PIN_13|GPIO_PIN_14|GPIO_PIN_15
                          |GPIO_PIN_0|GPIO_PIN_1|GPIO_PIN_2|GPIO_PIN_3
                          |GPIO_PIN_4|GPIO_PIN_5|GPIO_PIN_6|GPIO_PIN_7;
  GPIO_InitStruct.Mode = GPIO_MODE_ANALOG;
  GPIO_InitStruct.Pull = GPIO_NOPULL;
  HAL_GPIO_Init(GPIOD, &GPIO_InitStruct);
 8000cb6:	a908      	add	r1, sp, #32
  GPIO_InitStruct.Pin = GPIO_PIN_8|GPIO_PIN_9|GPIO_PIN_10|GPIO_PIN_11
 8000cb8:	f64f 72ff 	movw	r2, #65535	@ 0xffff
 8000cbc:	2303      	movs	r3, #3
  HAL_GPIO_Init(GPIOD, &GPIO_InitStruct);
 8000cbe:	4820      	ldr	r0, [pc, #128]	@ (8000d40 <MX_GPIO_Init+0x284>)
  GPIO_InitStruct.Pull = GPIO_NOPULL;
 8000cc0:	940a      	str	r4, [sp, #40]	@ 0x28
  GPIO_InitStruct.Pin = GPIO_PIN_8|GPIO_PIN_9|GPIO_PIN_10|GPIO_PIN_11
 8000cc2:	e9cd 2308 	strd	r2, r3, [sp, #32]
  HAL_GPIO_Init(GPIOD, &GPIO_InitStruct);
 8000cc6:	f003 faf3 	bl	80042b0 <HAL_GPIO_Init>

  /*Configure GPIO pin : PtPin */
  GPIO_InitStruct.Pin = USB_OverCurrent_Pin;
 8000cca:	2220      	movs	r2, #32
  GPIO_InitStruct.Mode = GPIO_MODE_INPUT;
  GPIO_InitStruct.Pull = GPIO_NOPULL;
  HAL_GPIO_Init(USB_OverCurrent_GPIO_Port, &GPIO_InitStruct);
 8000ccc:	a908      	add	r1, sp, #32
 8000cce:	4630      	mov	r0, r6
  GPIO_InitStruct.Pin = USB_OverCurrent_Pin;
 8000cd0:	2300      	movs	r3, #0
 8000cd2:	e9cd 2308 	strd	r2, r3, [sp, #32]
  GPIO_InitStruct.Pull = GPIO_NOPULL;
 8000cd6:	940a      	str	r4, [sp, #40]	@ 0x28
  HAL_GPIO_Init(USB_OverCurrent_GPIO_Port, &GPIO_InitStruct);
 8000cd8:	f003 faea 	bl	80042b0 <HAL_GPIO_Init>
  /*Configure GPIO pin : PtPin */
  GPIO_InitStruct.Pin = USB_PowerSwitchOn_Pin;
  GPIO_InitStruct.Mode = GPIO_MODE_OUTPUT_PP;
  GPIO_InitStruct.Pull = GPIO_NOPULL;
  GPIO_InitStruct.Speed = GPIO_SPEED_FREQ_LOW;
  HAL_GPIO_Init(USB_PowerSwitchOn_GPIO_Port, &GPIO_InitStruct);
 8000cdc:	a908      	add	r1, sp, #32
 8000cde:	4630      	mov	r0, r6
  GPIO_InitStruct.Pin = USB_PowerSwitchOn_Pin;
 8000ce0:	2340      	movs	r3, #64	@ 0x40
 8000ce2:	9308      	str	r3, [sp, #32]
  GPIO_InitStruct.Speed = GPIO_SPEED_FREQ_LOW;
 8000ce4:	e9cd 440a 	strd	r4, r4, [sp, #40]	@ 0x28
  GPIO_InitStruct.Mode = GPIO_MODE_OUTPUT_PP;
 8000ce8:	9509      	str	r5, [sp, #36]	@ 0x24
  HAL_GPIO_Init(USB_PowerSwitchOn_GPIO_Port, &GPIO_InitStruct);
 8000cea:	f003 fae1 	bl	80042b0 <HAL_GPIO_Init>

  /*Configure GPIO pins : PAPin PAPin PAPin PAPin */
  GPIO_InitStruct.Pin = USB_SOF_Pin|USB_ID_Pin|USB_DM_Pin|USB_DP_Pin;
 8000cee:	f44f 53e8 	mov.w	r3, #7424	@ 0x1d00
 8000cf2:	9308      	str	r3, [sp, #32]
  GPIO_InitStruct.Mode = GPIO_MODE_AF_PP;
 8000cf4:	2302      	movs	r3, #2
  GPIO_InitStruct.Pull = GPIO_NOPULL;
  GPIO_InitStruct.Speed = GPIO_SPEED_FREQ_VERY_HIGH;
  GPIO_InitStruct.Alternate = GPIO_AF10_OTG_FS;
  HAL_GPIO_Init(GPIOA, &GPIO_InitStruct);
 8000cf6:	a908      	add	r1, sp, #32
  GPIO_InitStruct.Mode = GPIO_MODE_AF_PP;
 8000cf8:	9309      	str	r3, [sp, #36]	@ 0x24
  HAL_GPIO_Init(GPIOA, &GPIO_InitStruct);
 8000cfa:	f04f 4090 	mov.w	r0, #1207959552	@ 0x48000000
  GPIO_InitStruct.Alternate = GPIO_AF10_OTG_FS;
 8000cfe:	230a      	movs	r3, #10
 8000d00:	930c      	str	r3, [sp, #48]	@ 0x30
  GPIO_InitStruct.Speed = GPIO_SPEED_FREQ_VERY_HIGH;
 8000d02:	e9cd 4b0a 	strd	r4, fp, [sp, #40]	@ 0x28
  HAL_GPIO_Init(GPIOA, &GPIO_InitStruct);
 8000d06:	f003 fad3 	bl	80042b0 <HAL_GPIO_Init>

  /* EXTI interrupt init*/
  HAL_NVIC_SetPriority(EXTI3_IRQn, 0, 0);
 8000d0a:	4622      	mov	r2, r4
 8000d0c:	4621      	mov	r1, r4
 8000d0e:	2009      	movs	r0, #9
 8000d10:	f002 fc0a 	bl	8003528 <HAL_NVIC_SetPriority>
  HAL_NVIC_EnableIRQ(EXTI3_IRQn);
 8000d14:	2009      	movs	r0, #9
 8000d16:	f002 fc43 	bl	80035a0 <HAL_NVIC_EnableIRQ>

  HAL_NVIC_SetPriority(EXTI15_10_IRQn, 0, 0);
 8000d1a:	4622      	mov	r2, r4
 8000d1c:	4621      	mov	r1, r4
 8000d1e:	2028      	movs	r0, #40	@ 0x28
 8000d20:	f002 fc02 	bl	8003528 <HAL_NVIC_SetPriority>
  HAL_NVIC_EnableIRQ(EXTI15_10_IRQn);
 8000d24:	2028      	movs	r0, #40	@ 0x28
 8000d26:	f002 fc3b 	bl	80035a0 <HAL_NVIC_EnableIRQ>

}
 8000d2a:	b00f      	add	sp, #60	@ 0x3c
 8000d2c:	e8bd 8ff0 	ldmia.w	sp!, {r4, r5, r6, r7, r8, r9, sl, fp, pc}
 8000d30:	40021000 	.word	0x40021000
 8000d34:	48000800 	.word	0x48000800
 8000d38:	48001800 	.word	0x48001800
 8000d3c:	48001c00 	.word	0x48001c00
 8000d40:	48000c00 	.word	0x48000c00
 8000d44:	48001400 	.word	0x48001400
 8000d48:	48001000 	.word	0x48001000
 8000d4c:	48000400 	.word	0x48000400

08000d50 <HAL_GPIO_EXTI_Callback>:
/* Private user code ---------------------------------------------------------*/
/* USER CODE BEGIN 0 */

void HAL_GPIO_EXTI_Callback(uint16_t GPIO_Pin)
{
	if (GPIO_Pin == B1_Pin) {
 8000d50:	f5b0 5f00 	cmp.w	r0, #8192	@ 0x2000
 8000d54:	d002      	beq.n	8000d5c <HAL_GPIO_EXTI_Callback+0xc>
		btn_press = 1;
	}
	else if (GPIO_Pin == RADIO_INT_Pin)
 8000d56:	2808      	cmp	r0, #8
 8000d58:	d004      	beq.n	8000d64 <HAL_GPIO_EXTI_Callback+0x14>
		S2LP_IRQ_Handler();
}
 8000d5a:	4770      	bx	lr
		btn_press = 1;
 8000d5c:	4b02      	ldr	r3, [pc, #8]	@ (8000d68 <HAL_GPIO_EXTI_Callback+0x18>)
 8000d5e:	2201      	movs	r2, #1
 8000d60:	701a      	strb	r2, [r3, #0]
 8000d62:	4770      	bx	lr
		S2LP_IRQ_Handler();
 8000d64:	f001 ba3a 	b.w	80021dc <S2LP_IRQ_Handler>
 8000d68:	200010c8 	.word	0x200010c8

08000d6c <run>:
	}
}

void run(void)
{
	btn_press = 0;
 8000d6c:	4c18      	ldr	r4, [pc, #96]	@ (8000dd0 <run+0x64>)
		DEBUG_PRINT("Error while enabling the DMA\r\n");
 8000d6e:	4e19      	ldr	r6, [pc, #100]	@ (8000dd4 <run+0x68>)

	while (1)
	{
	  while (!btn_press) {
		  HAL_GPIO_WritePin(GPIOB, LD2_Pin, GPIO_PIN_SET);
 8000d70:	4d19      	ldr	r5, [pc, #100]	@ (8000dd8 <run+0x6c>)
{
 8000d72:	b580      	push	{r7, lr}
	btn_press = 0;
 8000d74:	2700      	movs	r7, #0
 8000d76:	7027      	strb	r7, [r4, #0]
	  while (!btn_press) {
 8000d78:	7823      	ldrb	r3, [r4, #0]
 8000d7a:	f003 08ff 	and.w	r8, r3, #255	@ 0xff
 8000d7e:	b9a3      	cbnz	r3, 8000daa <run+0x3e>
		  HAL_GPIO_WritePin(GPIOB, LD2_Pin, GPIO_PIN_SET);
 8000d80:	2180      	movs	r1, #128	@ 0x80
 8000d82:	2201      	movs	r2, #1
 8000d84:	4628      	mov	r0, r5
 8000d86:	f003 fbb7 	bl	80044f8 <HAL_GPIO_WritePin>
		  HAL_Delay(200);
 8000d8a:	20c8      	movs	r0, #200	@ 0xc8
 8000d8c:	f001 fd88 	bl	80028a0 <HAL_Delay>
		  HAL_GPIO_WritePin(GPIOB, LD2_Pin, GPIO_PIN_RESET);
 8000d90:	4642      	mov	r2, r8
 8000d92:	4628      	mov	r0, r5
 8000d94:	2180      	movs	r1, #128	@ 0x80
 8000d96:	f003 fbaf 	bl	80044f8 <HAL_GPIO_WritePin>
		  HAL_Delay(200);
 8000d9a:	20c8      	movs	r0, #200	@ 0xc8
 8000d9c:	f001 fd80 	bl	80028a0 <HAL_Delay>
	  while (!btn_press) {
 8000da0:	7823      	ldrb	r3, [r4, #0]
 8000da2:	f003 08ff 	and.w	r8, r3, #255	@ 0xff
 8000da6:	2b00      	cmp	r3, #0
 8000da8:	d0ea      	beq.n	8000d80 <run+0x14>
	  }
	  btn_press = 0;
 8000daa:	7027      	strb	r7, [r4, #0]
#if (CONTINUOUS_ACQ == 1)
	  while (!btn_press) {
 8000dac:	7823      	ldrb	r3, [r4, #0]
 8000dae:	b96b      	cbnz	r3, 8000dcc <run+0x60>
	if (StartADCAcq(N_MELVECS) != HAL_OK) {
 8000db0:	2014      	movs	r0, #20
 8000db2:	f7ff fced 	bl	8000790 <StartADCAcq>
 8000db6:	b928      	cbnz	r0, 8000dc4 <run+0x58>
	while (!IsADCFinished()) {
 8000db8:	f7ff fd02 	bl	80007c0 <IsADCFinished>
 8000dbc:	2800      	cmp	r0, #0
 8000dbe:	d1f5      	bne.n	8000dac <run+0x40>
		__WFI();
 8000dc0:	bf30      	wfi
 8000dc2:	e7f9      	b.n	8000db8 <run+0x4c>
		DEBUG_PRINT("Error while enabling the DMA\r\n");
 8000dc4:	4630      	mov	r0, r6
 8000dc6:	f006 fead 	bl	8007b24 <puts>
 8000dca:	e7f5      	b.n	8000db8 <run+0x4c>
		  acquire_and_send_packet();
	  }
	  btn_press = 0;
 8000dcc:	7027      	strb	r7, [r4, #0]
	  while (!btn_press) {
 8000dce:	e7d3      	b.n	8000d78 <run+0xc>
 8000dd0:	200010c8 	.word	0x200010c8
 8000dd4:	08008cf0 	.word	0x08008cf0
 8000dd8:	48000400 	.word	0x48000400

08000ddc <Error_Handler>:
/**
  * @brief  This function is executed in case of error occurrence.
  * @retval None
  */
void Error_Handler(void)
{
 8000ddc:	b580      	push	{r7, lr}
 8000dde:	b082      	sub	sp, #8
  __ASM volatile ("cpsid i" : : : "memory");
 8000de0:	b672      	cpsid	i
  /* USER CODE BEGIN Error_Handler_Debug */
  __disable_irq();
  DEBUG_PRINT("Entering error Handler\r\n");
 8000de2:	481a      	ldr	r0, [pc, #104]	@ (8000e4c <Error_Handler+0x70>)
 8000de4:	4f1a      	ldr	r7, [pc, #104]	@ (8000e50 <Error_Handler+0x74>)
  while (1)
  {
	  // Blink LED3 (red)
	  HAL_GPIO_WritePin(GPIOB, LD3_Pin, GPIO_PIN_SET);
 8000de6:	4e1b      	ldr	r6, [pc, #108]	@ (8000e54 <Error_Handler+0x78>)
	  for (volatile int i=0; i < SystemCoreClock/200; i++);
 8000de8:	4d1b      	ldr	r5, [pc, #108]	@ (8000e58 <Error_Handler+0x7c>)
  DEBUG_PRINT("Entering error Handler\r\n");
 8000dea:	f006 fe9b 	bl	8007b24 <puts>
	  for (volatile int i=0; i < SystemCoreClock/200; i++);
 8000dee:	2400      	movs	r4, #0
	  HAL_GPIO_WritePin(GPIOB, LD3_Pin, GPIO_PIN_SET);
 8000df0:	2201      	movs	r2, #1
 8000df2:	f44f 4180 	mov.w	r1, #16384	@ 0x4000
 8000df6:	4630      	mov	r0, r6
 8000df8:	f003 fb7e 	bl	80044f8 <HAL_GPIO_WritePin>
	  for (volatile int i=0; i < SystemCoreClock/200; i++);
 8000dfc:	683b      	ldr	r3, [r7, #0]
 8000dfe:	9400      	str	r4, [sp, #0]
 8000e00:	9900      	ldr	r1, [sp, #0]
 8000e02:	fba5 2303 	umull	r2, r3, r5, r3
 8000e06:	ebb1 1f93 	cmp.w	r1, r3, lsr #6
 8000e0a:	ea4f 1293 	mov.w	r2, r3, lsr #6
 8000e0e:	d205      	bcs.n	8000e1c <Error_Handler+0x40>
 8000e10:	9b00      	ldr	r3, [sp, #0]
 8000e12:	3301      	adds	r3, #1
 8000e14:	9300      	str	r3, [sp, #0]
 8000e16:	9b00      	ldr	r3, [sp, #0]
 8000e18:	4293      	cmp	r3, r2
 8000e1a:	d3f9      	bcc.n	8000e10 <Error_Handler+0x34>
	  HAL_GPIO_WritePin(GPIOB, LD3_Pin, GPIO_PIN_RESET);
 8000e1c:	f44f 4180 	mov.w	r1, #16384	@ 0x4000
 8000e20:	2200      	movs	r2, #0
 8000e22:	4630      	mov	r0, r6
 8000e24:	f003 fb68 	bl	80044f8 <HAL_GPIO_WritePin>
	  for (volatile int i=0; i < SystemCoreClock/200; i++);
 8000e28:	683b      	ldr	r3, [r7, #0]
 8000e2a:	9401      	str	r4, [sp, #4]
 8000e2c:	9a01      	ldr	r2, [sp, #4]
 8000e2e:	fba5 1303 	umull	r1, r3, r5, r3
 8000e32:	ebb2 1f93 	cmp.w	r2, r3, lsr #6
 8000e36:	ea4f 1193 	mov.w	r1, r3, lsr #6
 8000e3a:	d2d9      	bcs.n	8000df0 <Error_Handler+0x14>
 8000e3c:	9b01      	ldr	r3, [sp, #4]
 8000e3e:	3301      	adds	r3, #1
 8000e40:	9301      	str	r3, [sp, #4]
 8000e42:	9b01      	ldr	r3, [sp, #4]
 8000e44:	428b      	cmp	r3, r1
 8000e46:	d3f9      	bcc.n	8000e3c <Error_Handler+0x60>
 8000e48:	e7d2      	b.n	8000df0 <Error_Handler+0x14>
 8000e4a:	bf00      	nop
 8000e4c:	08008d10 	.word	0x08008d10
 8000e50:	20000400 	.word	0x20000400
 8000e54:	48000400 	.word	0x48000400
 8000e58:	51eb851f 	.word	0x51eb851f
 8000e5c:	00000000 	.word	0x00000000

08000e60 <SystemClock_Config>:
{
 8000e60:	b500      	push	{lr}
 8000e62:	b099      	sub	sp, #100	@ 0x64
  RCC_OscInitTypeDef RCC_OscInitStruct = {0};
 8000e64:	2244      	movs	r2, #68	@ 0x44
 8000e66:	2100      	movs	r1, #0
 8000e68:	a806      	add	r0, sp, #24
 8000e6a:	f006 ffef 	bl	8007e4c <memset>
  RCC_ClkInitTypeDef RCC_ClkInitStruct = {0};
 8000e6e:	2300      	movs	r3, #0
  if (HAL_PWREx_ControlVoltageScaling(PWR_REGULATOR_VOLTAGE_SCALE1) != HAL_OK)
 8000e70:	f44f 7000 	mov.w	r0, #512	@ 0x200
  RCC_ClkInitTypeDef RCC_ClkInitStruct = {0};
 8000e74:	e9cd 3301 	strd	r3, r3, [sp, #4]
 8000e78:	e9cd 3303 	strd	r3, r3, [sp, #12]
 8000e7c:	9305      	str	r3, [sp, #20]
  if (HAL_PWREx_ControlVoltageScaling(PWR_REGULATOR_VOLTAGE_SCALE1) != HAL_OK)
 8000e7e:	f003 fb55 	bl	800452c <HAL_PWREx_ControlVoltageScaling>
 8000e82:	b9e0      	cbnz	r0, 8000ebe <SystemClock_Config+0x5e>
  RCC_OscInitStruct.MSIState = RCC_MSI_ON;
 8000e84:	ed9f 7b10 	vldr	d7, [pc, #64]	@ 8000ec8 <SystemClock_Config+0x68>
  RCC_OscInitStruct.OscillatorType = RCC_OSCILLATORTYPE_MSI;
 8000e88:	2210      	movs	r2, #16
 8000e8a:	4603      	mov	r3, r0
 8000e8c:	9206      	str	r2, [sp, #24]
  if (HAL_RCC_OscConfig(&RCC_OscInitStruct) != HAL_OK)
 8000e8e:	a806      	add	r0, sp, #24
  RCC_OscInitStruct.MSIClockRange = RCC_MSIRANGE_11;
 8000e90:	22b0      	movs	r2, #176	@ 0xb0
  RCC_OscInitStruct.PLL.PLLState = RCC_PLL_NONE;
 8000e92:	9310      	str	r3, [sp, #64]	@ 0x40
  RCC_OscInitStruct.MSIState = RCC_MSI_ON;
 8000e94:	ed8d 7b0c 	vstr	d7, [sp, #48]	@ 0x30
  RCC_OscInitStruct.MSIClockRange = RCC_MSIRANGE_11;
 8000e98:	920e      	str	r2, [sp, #56]	@ 0x38
  if (HAL_RCC_OscConfig(&RCC_OscInitStruct) != HAL_OK)
 8000e9a:	f003 fc2f 	bl	80046fc <HAL_RCC_OscConfig>
 8000e9e:	4603      	mov	r3, r0
 8000ea0:	b968      	cbnz	r0, 8000ebe <SystemClock_Config+0x5e>
  RCC_ClkInitStruct.ClockType = RCC_CLOCKTYPE_HCLK|RCC_CLOCKTYPE_SYSCLK
 8000ea2:	220f      	movs	r2, #15
  if (HAL_RCC_ClockConfig(&RCC_ClkInitStruct, FLASH_LATENCY_2) != HAL_OK)
 8000ea4:	2102      	movs	r1, #2
 8000ea6:	a801      	add	r0, sp, #4
  RCC_ClkInitStruct.SYSCLKSource = RCC_SYSCLKSOURCE_MSI;
 8000ea8:	e9cd 2301 	strd	r2, r3, [sp, #4]
  RCC_ClkInitStruct.APB1CLKDivider = RCC_HCLK_DIV1;
 8000eac:	e9cd 3303 	strd	r3, r3, [sp, #12]
  RCC_ClkInitStruct.APB2CLKDivider = RCC_HCLK_DIV1;
 8000eb0:	9305      	str	r3, [sp, #20]
  if (HAL_RCC_ClockConfig(&RCC_ClkInitStruct, FLASH_LATENCY_2) != HAL_OK)
 8000eb2:	f003 ff2f 	bl	8004d14 <HAL_RCC_ClockConfig>
 8000eb6:	b910      	cbnz	r0, 8000ebe <SystemClock_Config+0x5e>
}
 8000eb8:	b019      	add	sp, #100	@ 0x64
 8000eba:	f85d fb04 	ldr.w	pc, [sp], #4
    Error_Handler();
 8000ebe:	f7ff ff8d 	bl	8000ddc <Error_Handler>
 8000ec2:	bf00      	nop
 8000ec4:	f3af 8000 	nop.w
 8000ec8:	00000001 	.word	0x00000001
 8000ecc:	00000000 	.word	0x00000000

08000ed0 <main>:
{
 8000ed0:	b508      	push	{r3, lr}
  HAL_Init();
 8000ed2:	f001 fcc3 	bl	800285c <HAL_Init>
  SystemClock_Config();
 8000ed6:	f7ff ffc3 	bl	8000e60 <SystemClock_Config>
  MX_GPIO_Init();
 8000eda:	f7ff fdef 	bl	8000abc <MX_GPIO_Init>
  MX_DMA_Init();
 8000ede:	f7ff fdd5 	bl	8000a8c <MX_DMA_Init>
  MX_SPI1_Init();
 8000ee2:	f001 fa53 	bl	800238c <MX_SPI1_Init>
  MX_TIM3_Init();
 8000ee6:	f001 fb43 	bl	8002570 <MX_TIM3_Init>
  MX_ADC1_Init();
 8000eea:	f7ff fb49 	bl	8000580 <MX_ADC1_Init>
  MX_AES_Init();
 8000eee:	f7ff fcf3 	bl	80008d8 <MX_AES_Init>
	  MX_LPUART1_UART_Init();
 8000ef2:	f001 fb99 	bl	8002628 <MX_LPUART1_UART_Init>
  RetargetInit(&hlpuart1);
 8000ef6:	4814      	ldr	r0, [pc, #80]	@ (8000f48 <main+0x78>)
 8000ef8:	f000 f866 	bl	8000fc8 <RetargetInit>
  DEBUG_PRINT("Hello world\r\n");
 8000efc:	4813      	ldr	r0, [pc, #76]	@ (8000f4c <main+0x7c>)
 8000efe:	f006 fe11 	bl	8007b24 <puts>
  HAL_StatusTypeDef err = S2LP_Init(&hspi1);
 8000f02:	4813      	ldr	r0, [pc, #76]	@ (8000f50 <main+0x80>)
 8000f04:	f001 f8c8 	bl	8002098 <S2LP_Init>
  if (err)  {
 8000f08:	b128      	cbz	r0, 8000f16 <main+0x46>
 8000f0a:	4601      	mov	r1, r0
	  DEBUG_PRINT("[S2LP] Error while initializing: %u\r\n", err);
 8000f0c:	4811      	ldr	r0, [pc, #68]	@ (8000f54 <main+0x84>)
 8000f0e:	f006 fda1 	bl	8007a54 <iprintf>
	  Error_Handler();
 8000f12:	f7ff ff63 	bl	8000ddc <Error_Handler>
	  DEBUG_PRINT("[S2LP] Init OK\r\n");
 8000f16:	4810      	ldr	r0, [pc, #64]	@ (8000f58 <main+0x88>)
 8000f18:	f006 fe04 	bl	8007b24 <puts>
  if (HAL_ADCEx_Calibration_Start(&hadc1, ADC_SINGLE_ENDED) != HAL_OK) {
 8000f1c:	480f      	ldr	r0, [pc, #60]	@ (8000f5c <main+0x8c>)
 8000f1e:	217f      	movs	r1, #127	@ 0x7f
 8000f20:	f002 fa36 	bl	8003390 <HAL_ADCEx_Calibration_Start>
 8000f24:	b120      	cbz	r0, 8000f30 <main+0x60>
	  DEBUG_PRINT("Error while calibrating the ADC\r\n");
 8000f26:	480e      	ldr	r0, [pc, #56]	@ (8000f60 <main+0x90>)
 8000f28:	f006 fdfc 	bl	8007b24 <puts>
	  Error_Handler();
 8000f2c:	f7ff ff56 	bl	8000ddc <Error_Handler>
  if (HAL_TIM_Base_Start(&htim3) != HAL_OK) {
 8000f30:	480c      	ldr	r0, [pc, #48]	@ (8000f64 <main+0x94>)
 8000f32:	f004 fec5 	bl	8005cc0 <HAL_TIM_Base_Start>
 8000f36:	b120      	cbz	r0, 8000f42 <main+0x72>
	  DEBUG_PRINT("Error while enabling timer TIM3\r\n");
 8000f38:	480b      	ldr	r0, [pc, #44]	@ (8000f68 <main+0x98>)
 8000f3a:	f006 fdf3 	bl	8007b24 <puts>
	  Error_Handler();
 8000f3e:	f7ff ff4d 	bl	8000ddc <Error_Handler>
  run();
 8000f42:	f7ff ff13 	bl	8000d6c <run>
 8000f46:	bf00      	nop
 8000f48:	20001d90 	.word	0x20001d90
 8000f4c:	08008d28 	.word	0x08008d28
 8000f50:	20001cd8 	.word	0x20001cd8
 8000f54:	08008d38 	.word	0x08008d38
 8000f58:	08008d60 	.word	0x08008d60
 8000f5c:	200004cc 	.word	0x200004cc
 8000f60:	08008d70 	.word	0x08008d70
 8000f64:	20001d40 	.word	0x20001d40
 8000f68:	08008d94 	.word	0x08008d94

08000f6c <make_packet>:
	 */
	HAL_CRYPEx_AES_Auth(&hcryp, (uint8_t*)msg, msg_len, tag, 1000);
}

// Assumes payload is already in place in the packet
int make_packet(uint8_t *packet, size_t payload_len, uint8_t sender_id, uint32_t serial) {
 8000f6c:	b510      	push	{r4, lr}
 8000f6e:	460c      	mov	r4, r1
 8000f70:	4696      	mov	lr, r2
    size_t packet_len = payload_len + PACKET_HEADER_LENGTH + PACKET_TAG_LENGTH;
    // Initially, the whole packet header is set to 0s
    memset(packet, 0, PACKET_HEADER_LENGTH);
    // So is the tag
	memset(packet + payload_len + PACKET_HEADER_LENGTH, 0, PACKET_TAG_LENGTH);
 8000f72:	f104 0208 	add.w	r2, r4, #8
int make_packet(uint8_t *packet, size_t payload_len, uint8_t sender_id, uint32_t serial) {
 8000f76:	469c      	mov	ip, r3
    memset(packet, 0, PACKET_HEADER_LENGTH);
 8000f78:	2300      	movs	r3, #0
	memset(packet + payload_len + PACKET_HEADER_LENGTH, 0, PACKET_TAG_LENGTH);
 8000f7a:	5083      	str	r3, [r0, r2]
int make_packet(uint8_t *packet, size_t payload_len, uint8_t sender_id, uint32_t serial) {
 8000f7c:	4601      	mov	r1, r0
 8000f7e:	b082      	sub	sp, #8
	memset(packet + payload_len + PACKET_HEADER_LENGTH, 0, PACKET_TAG_LENGTH);
 8000f80:	4410      	add	r0, r2
	HAL_CRYPEx_AES_Auth(&hcryp, (uint8_t*)msg, msg_len, tag, 1000);
 8000f82:	9000      	str	r0, [sp, #0]
	memset(packet + payload_len + PACKET_HEADER_LENGTH, 0, PACKET_TAG_LENGTH);
 8000f84:	6043      	str	r3, [r0, #4]
 8000f86:	6083      	str	r3, [r0, #8]
 8000f88:	60c3      	str	r3, [r0, #12]
	packet[1] = sender_id;
	// Set the payload_length field
	packet[2] = (payload_len >> 8) & 0xFF;
	packet[3] = payload_len & 0xFF;
	// Set the packet_serial field
	packet[4] = (serial >> 24) & 0xFF;
 8000f8a:	ea4f 601c 	mov.w	r0, ip, lsr #24
 8000f8e:	7108      	strb	r0, [r1, #4]
	packet[5] = (serial >> 16) & 0xFF;
 8000f90:	ea4f 401c 	mov.w	r0, ip, lsr #16
	packet[6] = (serial >> 8) & 0xFF;
	packet[7] = serial & 0xFF;
 8000f94:	f881 c007 	strb.w	ip, [r1, #7]
	packet[5] = (serial >> 16) & 0xFF;
 8000f98:	7148      	strb	r0, [r1, #5]
	packet[6] = (serial >> 8) & 0xFF;
 8000f9a:	ea4f 2c1c 	mov.w	ip, ip, lsr #8
	HAL_CRYPEx_AES_Auth(&hcryp, (uint8_t*)msg, msg_len, tag, 1000);
 8000f9e:	f44f 707a 	mov.w	r0, #1000	@ 0x3e8
	packet[1] = sender_id;
 8000fa2:	f881 e001 	strb.w	lr, [r1, #1]
	packet[0] = 0x00;
 8000fa6:	700b      	strb	r3, [r1, #0]
	packet[3] = payload_len & 0xFF;
 8000fa8:	70cc      	strb	r4, [r1, #3]
	packet[6] = (serial >> 8) & 0xFF;
 8000faa:	f881 c006 	strb.w	ip, [r1, #6]
	HAL_CRYPEx_AES_Auth(&hcryp, (uint8_t*)msg, msg_len, tag, 1000);
 8000fae:	9001      	str	r0, [sp, #4]
	packet[2] = (payload_len >> 8) & 0xFF;
 8000fb0:	0a20      	lsrs	r0, r4, #8
 8000fb2:	7088      	strb	r0, [r1, #2]
	HAL_CRYPEx_AES_Auth(&hcryp, (uint8_t*)msg, msg_len, tag, 1000);
 8000fb4:	4803      	ldr	r0, [pc, #12]	@ (8000fc4 <make_packet+0x58>)
 8000fb6:	f002 fd33 	bl	8003a20 <HAL_CRYPEx_AES_Auth>
	#else
    tag_cbc_mac(packet + payload_len + PACKET_HEADER_LENGTH, packet, payload_len + PACKET_HEADER_LENGTH);
	#endif

    return packet_len;
}
 8000fba:	f104 0018 	add.w	r0, r4, #24
 8000fbe:	b002      	add	sp, #8
 8000fc0:	bd10      	pop	{r4, pc}
 8000fc2:	bf00      	nop
 8000fc4:	20001068 	.word	0x20001068

08000fc8 <RetargetInit>:
#define STDOUT_FILENO 1
#define STDERR_FILENO 2

UART_HandleTypeDef *gHuart;

void RetargetInit(UART_HandleTypeDef *huart) {
 8000fc8:	b430      	push	{r4, r5}
  gHuart = huart;

  /* Disable I/O buffering for STDOUT stream, so that
   * chars are sent out as soon as they are printed. */
  setvbuf(stdout, NULL, _IONBF, 0);
 8000fca:	4b06      	ldr	r3, [pc, #24]	@ (8000fe4 <RetargetInit+0x1c>)
  gHuart = huart;
 8000fcc:	4906      	ldr	r1, [pc, #24]	@ (8000fe8 <RetargetInit+0x20>)
  setvbuf(stdout, NULL, _IONBF, 0);
 8000fce:	681d      	ldr	r5, [r3, #0]
void RetargetInit(UART_HandleTypeDef *huart) {
 8000fd0:	4604      	mov	r4, r0
  setvbuf(stdout, NULL, _IONBF, 0);
 8000fd2:	2300      	movs	r3, #0
  gHuart = huart;
 8000fd4:	600c      	str	r4, [r1, #0]
  setvbuf(stdout, NULL, _IONBF, 0);
 8000fd6:	68a8      	ldr	r0, [r5, #8]
 8000fd8:	2202      	movs	r2, #2
}
 8000fda:	bc30      	pop	{r4, r5}
  setvbuf(stdout, NULL, _IONBF, 0);
 8000fdc:	4619      	mov	r1, r3
 8000fde:	f006 bda9 	b.w	8007b34 <setvbuf>
 8000fe2:	bf00      	nop
 8000fe4:	20000418 	.word	0x20000418
 8000fe8:	200010cc 	.word	0x200010cc

08000fec <_isatty>:

int _isatty(int fd) {
  if (fd >= STDIN_FILENO && fd <= STDERR_FILENO)
 8000fec:	2802      	cmp	r0, #2
 8000fee:	d801      	bhi.n	8000ff4 <_isatty+0x8>
    return 1;
 8000ff0:	2001      	movs	r0, #1

  errno = EBADF;
  return 0;
}
 8000ff2:	4770      	bx	lr
int _isatty(int fd) {
 8000ff4:	b508      	push	{r3, lr}
  errno = EBADF;
 8000ff6:	f006 ff77 	bl	8007ee8 <__errno>
 8000ffa:	2309      	movs	r3, #9
 8000ffc:	6003      	str	r3, [r0, #0]
  return 0;
 8000ffe:	2000      	movs	r0, #0
}
 8001000:	bd08      	pop	{r3, pc}
 8001002:	bf00      	nop

08001004 <_write>:

int _write(int fd, char* ptr, int len) {
  HAL_StatusTypeDef hstatus;

  if (fd == STDOUT_FILENO || fd == STDERR_FILENO) {
 8001004:	3801      	subs	r0, #1
 8001006:	2801      	cmp	r0, #1
int _write(int fd, char* ptr, int len) {
 8001008:	b510      	push	{r4, lr}
  if (fd == STDOUT_FILENO || fd == STDERR_FILENO) {
 800100a:	d80c      	bhi.n	8001026 <_write+0x22>
    hstatus = HAL_UART_Transmit(gHuart, (uint8_t *) ptr, len, HAL_MAX_DELAY);
 800100c:	4614      	mov	r4, r2
 800100e:	4a09      	ldr	r2, [pc, #36]	@ (8001034 <_write+0x30>)
 8001010:	f04f 33ff 	mov.w	r3, #4294967295
 8001014:	6810      	ldr	r0, [r2, #0]
 8001016:	b2a2      	uxth	r2, r4
 8001018:	f005 f840 	bl	800609c <HAL_UART_Transmit>
    if (hstatus == HAL_OK)
      return len;
 800101c:	2800      	cmp	r0, #0
 800101e:	bf0c      	ite	eq
 8001020:	4620      	moveq	r0, r4
 8001022:	2005      	movne	r0, #5
    else
      return EIO;
  }
  errno = EBADF;
  return -1;
}
 8001024:	bd10      	pop	{r4, pc}
  errno = EBADF;
 8001026:	f006 ff5f 	bl	8007ee8 <__errno>
 800102a:	2309      	movs	r3, #9
 800102c:	6003      	str	r3, [r0, #0]
  return -1;
 800102e:	f04f 30ff 	mov.w	r0, #4294967295
}
 8001032:	bd10      	pop	{r4, pc}
 8001034:	200010cc 	.word	0x200010cc

08001038 <_close>:

int _close(int fd) {
  if (fd >= STDIN_FILENO && fd <= STDERR_FILENO)
 8001038:	2802      	cmp	r0, #2
 800103a:	d801      	bhi.n	8001040 <_close+0x8>
    return 0;
 800103c:	2000      	movs	r0, #0

  errno = EBADF;
  return -1;
}
 800103e:	4770      	bx	lr
int _close(int fd) {
 8001040:	b508      	push	{r3, lr}
  errno = EBADF;
 8001042:	f006 ff51 	bl	8007ee8 <__errno>
 8001046:	2309      	movs	r3, #9
 8001048:	6003      	str	r3, [r0, #0]
  return -1;
 800104a:	f04f 30ff 	mov.w	r0, #4294967295
}
 800104e:	bd08      	pop	{r3, pc}

08001050 <_lseek>:

int _lseek(int fd, int ptr, int dir) {
 8001050:	b508      	push	{r3, lr}
  (void) fd;
  (void) ptr;
  (void) dir;

  errno = EBADF;
 8001052:	f006 ff49 	bl	8007ee8 <__errno>
 8001056:	2309      	movs	r3, #9
 8001058:	6003      	str	r3, [r0, #0]
  return -1;
}
 800105a:	f04f 30ff 	mov.w	r0, #4294967295
 800105e:	bd08      	pop	{r3, pc}

08001060 <_read>:

int _read(int fd, char* ptr, int len) {
 8001060:	b508      	push	{r3, lr}
  HAL_StatusTypeDef hstatus;

  if (fd == STDIN_FILENO) {
 8001062:	b958      	cbnz	r0, 800107c <_read+0x1c>
    hstatus = HAL_UART_Receive(gHuart, (uint8_t *) ptr, 1, HAL_MAX_DELAY);
 8001064:	4a09      	ldr	r2, [pc, #36]	@ (800108c <_read+0x2c>)
 8001066:	f04f 33ff 	mov.w	r3, #4294967295
 800106a:	6810      	ldr	r0, [r2, #0]
 800106c:	2201      	movs	r2, #1
 800106e:	f005 f885 	bl	800617c <HAL_UART_Receive>
    if (hstatus == HAL_OK)
      return 1;
 8001072:	2800      	cmp	r0, #0
 8001074:	bf14      	ite	ne
 8001076:	2005      	movne	r0, #5
 8001078:	2001      	moveq	r0, #1
    else
      return EIO;
  }
  errno = EBADF;
  return -1;
}
 800107a:	bd08      	pop	{r3, pc}
  errno = EBADF;
 800107c:	f006 ff34 	bl	8007ee8 <__errno>
 8001080:	2309      	movs	r3, #9
 8001082:	6003      	str	r3, [r0, #0]
  return -1;
 8001084:	f04f 30ff 	mov.w	r0, #4294967295
}
 8001088:	bd08      	pop	{r3, pc}
 800108a:	bf00      	nop
 800108c:	200010cc 	.word	0x200010cc

08001090 <_fstat>:

int _fstat(int fd, struct stat* st) {
  if (fd >= STDIN_FILENO && fd <= STDERR_FILENO) {
 8001090:	2802      	cmp	r0, #2
int _fstat(int fd, struct stat* st) {
 8001092:	b508      	push	{r3, lr}
  if (fd >= STDIN_FILENO && fd <= STDERR_FILENO) {
 8001094:	d804      	bhi.n	80010a0 <_fstat+0x10>
    st->st_mode = S_IFCHR;
 8001096:	f44f 5300 	mov.w	r3, #8192	@ 0x2000
 800109a:	604b      	str	r3, [r1, #4]
    return 0;
  }

  errno = EBADF;
  return 0;
}
 800109c:	2000      	movs	r0, #0
 800109e:	bd08      	pop	{r3, pc}
  errno = EBADF;
 80010a0:	f006 ff22 	bl	8007ee8 <__errno>
 80010a4:	2309      	movs	r3, #9
 80010a6:	6003      	str	r3, [r0, #0]
}
 80010a8:	2000      	movs	r0, #0
 80010aa:	bd08      	pop	{r3, pc}

080010ac <S2LP_Command>:
volatile uint8_t underflow = 0;

volatile uint16_t n_chunks_tx = 0;

HAL_StatusTypeDef S2LP_Command(uint8_t cmd, S2LPStatus *status)
{
 80010ac:	b580      	push	{r7, lr}
 80010ae:	b086      	sub	sp, #24
 80010b0:	af02      	add	r7, sp, #8
 80010b2:	4603      	mov	r3, r0
 80010b4:	6039      	str	r1, [r7, #0]
 80010b6:	71fb      	strb	r3, [r7, #7]
	uint8_t TxBuf[2] = {0x80, cmd};
 80010b8:	2380      	movs	r3, #128	@ 0x80
 80010ba:	733b      	strb	r3, [r7, #12]
 80010bc:	79fb      	ldrb	r3, [r7, #7]
 80010be:	737b      	strb	r3, [r7, #13]
 80010c0:	b672      	cpsid	i
}
 80010c2:	bf00      	nop
	uint8_t RxBuf[2];

	__disable_irq();
	HAL_GPIO_WritePin(RADIO_S2LP_CSN_GPIO_Port, RADIO_S2LP_CSN_Pin, GPIO_PIN_RESET);
 80010c4:	2200      	movs	r2, #0
 80010c6:	2101      	movs	r1, #1
 80010c8:	480f      	ldr	r0, [pc, #60]	@ (8001108 <S2LP_Command+0x5c>)
 80010ca:	f003 fa15 	bl	80044f8 <HAL_GPIO_WritePin>
	HAL_StatusTypeDef err = HAL_SPI_TransmitReceive(gSPI, TxBuf, RxBuf, 2, HAL_MAX_DELAY);
 80010ce:	4b0f      	ldr	r3, [pc, #60]	@ (800110c <S2LP_Command+0x60>)
 80010d0:	6818      	ldr	r0, [r3, #0]
 80010d2:	f107 0208 	add.w	r2, r7, #8
 80010d6:	f107 010c 	add.w	r1, r7, #12
 80010da:	f04f 33ff 	mov.w	r3, #4294967295
 80010de:	9300      	str	r3, [sp, #0]
 80010e0:	2302      	movs	r3, #2
 80010e2:	f004 fbcb 	bl	800587c <HAL_SPI_TransmitReceive>
 80010e6:	4603      	mov	r3, r0
 80010e8:	73fb      	strb	r3, [r7, #15]
	HAL_GPIO_WritePin(RADIO_S2LP_CSN_GPIO_Port, RADIO_S2LP_CSN_Pin, GPIO_PIN_SET);
 80010ea:	2201      	movs	r2, #1
 80010ec:	2101      	movs	r1, #1
 80010ee:	4806      	ldr	r0, [pc, #24]	@ (8001108 <S2LP_Command+0x5c>)
 80010f0:	f003 fa02 	bl	80044f8 <HAL_GPIO_WritePin>
  __ASM volatile ("cpsie i" : : : "memory");
 80010f4:	b662      	cpsie	i
}
 80010f6:	bf00      	nop
	__enable_irq();

	memcpy(status, &RxBuf[0], 2);
 80010f8:	893a      	ldrh	r2, [r7, #8]
 80010fa:	683b      	ldr	r3, [r7, #0]
 80010fc:	801a      	strh	r2, [r3, #0]
	return err;
 80010fe:	7bfb      	ldrb	r3, [r7, #15]
}
 8001100:	4618      	mov	r0, r3
 8001102:	3710      	adds	r7, #16
 8001104:	46bd      	mov	sp, r7
 8001106:	bd80      	pop	{r7, pc}
 8001108:	48000800 	.word	0x48000800
 800110c:	200010d4 	.word	0x200010d4

08001110 <S2LP_ReadReg>:

HAL_StatusTypeDef S2LP_ReadReg(uint8_t addr, uint8_t *retval, S2LPStatus *status)
{
 8001110:	b580      	push	{r7, lr}
 8001112:	b088      	sub	sp, #32
 8001114:	af02      	add	r7, sp, #8
 8001116:	4603      	mov	r3, r0
 8001118:	60b9      	str	r1, [r7, #8]
 800111a:	607a      	str	r2, [r7, #4]
 800111c:	73fb      	strb	r3, [r7, #15]
	uint8_t TxBuf[] = {0x01, addr, 0x0};
 800111e:	2301      	movs	r3, #1
 8001120:	753b      	strb	r3, [r7, #20]
 8001122:	7bfb      	ldrb	r3, [r7, #15]
 8001124:	757b      	strb	r3, [r7, #21]
 8001126:	2300      	movs	r3, #0
 8001128:	75bb      	strb	r3, [r7, #22]
  __ASM volatile ("cpsid i" : : : "memory");
 800112a:	b672      	cpsid	i
}
 800112c:	bf00      	nop
	uint8_t RxBuf[3];

	__disable_irq();
	HAL_GPIO_WritePin(RADIO_S2LP_CSN_GPIO_Port, RADIO_S2LP_CSN_Pin, GPIO_PIN_RESET);
 800112e:	2200      	movs	r2, #0
 8001130:	2101      	movs	r1, #1
 8001132:	4814      	ldr	r0, [pc, #80]	@ (8001184 <S2LP_ReadReg+0x74>)
 8001134:	f003 f9e0 	bl	80044f8 <HAL_GPIO_WritePin>
	HAL_StatusTypeDef err = HAL_SPI_TransmitReceive(gSPI, TxBuf, RxBuf, 3, HAL_MAX_DELAY);
 8001138:	4b13      	ldr	r3, [pc, #76]	@ (8001188 <S2LP_ReadReg+0x78>)
 800113a:	6818      	ldr	r0, [r3, #0]
 800113c:	f107 0210 	add.w	r2, r7, #16
 8001140:	f107 0114 	add.w	r1, r7, #20
 8001144:	f04f 33ff 	mov.w	r3, #4294967295
 8001148:	9300      	str	r3, [sp, #0]
 800114a:	2303      	movs	r3, #3
 800114c:	f004 fb96 	bl	800587c <HAL_SPI_TransmitReceive>
 8001150:	4603      	mov	r3, r0
 8001152:	75fb      	strb	r3, [r7, #23]
	HAL_GPIO_WritePin(RADIO_S2LP_CSN_GPIO_Port, RADIO_S2LP_CSN_Pin, GPIO_PIN_SET);
 8001154:	2201      	movs	r2, #1
 8001156:	2101      	movs	r1, #1
 8001158:	480a      	ldr	r0, [pc, #40]	@ (8001184 <S2LP_ReadReg+0x74>)
 800115a:	f003 f9cd 	bl	80044f8 <HAL_GPIO_WritePin>
  __ASM volatile ("cpsie i" : : : "memory");
 800115e:	b662      	cpsie	i
}
 8001160:	bf00      	nop
	__enable_irq();

	if (status != NULL)
 8001162:	687b      	ldr	r3, [r7, #4]
 8001164:	2b00      	cmp	r3, #0
 8001166:	d002      	beq.n	800116e <S2LP_ReadReg+0x5e>
		memcpy(status, &RxBuf[0], 2);
 8001168:	8a3a      	ldrh	r2, [r7, #16]
 800116a:	687b      	ldr	r3, [r7, #4]
 800116c:	801a      	strh	r2, [r3, #0]
	if (retval != NULL)
 800116e:	68bb      	ldr	r3, [r7, #8]
 8001170:	2b00      	cmp	r3, #0
 8001172:	d002      	beq.n	800117a <S2LP_ReadReg+0x6a>
		*retval = RxBuf[2];
 8001174:	7cba      	ldrb	r2, [r7, #18]
 8001176:	68bb      	ldr	r3, [r7, #8]
 8001178:	701a      	strb	r2, [r3, #0]
	return err;
 800117a:	7dfb      	ldrb	r3, [r7, #23]
}
 800117c:	4618      	mov	r0, r3
 800117e:	3718      	adds	r7, #24
 8001180:	46bd      	mov	sp, r7
 8001182:	bd80      	pop	{r7, pc}
 8001184:	48000800 	.word	0x48000800
 8001188:	200010d4 	.word	0x200010d4

0800118c <S2LP_WriteReg>:

HAL_StatusTypeDef S2LP_WriteReg(uint8_t addr, uint8_t val, S2LPStatus *status)
{
 800118c:	b580      	push	{r7, lr}
 800118e:	b086      	sub	sp, #24
 8001190:	af02      	add	r7, sp, #8
 8001192:	4603      	mov	r3, r0
 8001194:	603a      	str	r2, [r7, #0]
 8001196:	71fb      	strb	r3, [r7, #7]
 8001198:	460b      	mov	r3, r1
 800119a:	71bb      	strb	r3, [r7, #6]
	uint8_t TxBuf[] = {0x00, addr, val};
 800119c:	2300      	movs	r3, #0
 800119e:	733b      	strb	r3, [r7, #12]
 80011a0:	79fb      	ldrb	r3, [r7, #7]
 80011a2:	737b      	strb	r3, [r7, #13]
 80011a4:	79bb      	ldrb	r3, [r7, #6]
 80011a6:	73bb      	strb	r3, [r7, #14]
  __ASM volatile ("cpsid i" : : : "memory");
 80011a8:	b672      	cpsid	i
}
 80011aa:	bf00      	nop
	uint8_t RxBuf[3];

	__disable_irq();
	HAL_GPIO_WritePin(RADIO_S2LP_CSN_GPIO_Port, RADIO_S2LP_CSN_Pin, GPIO_PIN_RESET);
 80011ac:	2200      	movs	r2, #0
 80011ae:	2101      	movs	r1, #1
 80011b0:	4811      	ldr	r0, [pc, #68]	@ (80011f8 <S2LP_WriteReg+0x6c>)
 80011b2:	f003 f9a1 	bl	80044f8 <HAL_GPIO_WritePin>
	HAL_StatusTypeDef err = HAL_SPI_TransmitReceive(gSPI, TxBuf, RxBuf, 3, HAL_MAX_DELAY);
 80011b6:	4b11      	ldr	r3, [pc, #68]	@ (80011fc <S2LP_WriteReg+0x70>)
 80011b8:	6818      	ldr	r0, [r3, #0]
 80011ba:	f107 0208 	add.w	r2, r7, #8
 80011be:	f107 010c 	add.w	r1, r7, #12
 80011c2:	f04f 33ff 	mov.w	r3, #4294967295
 80011c6:	9300      	str	r3, [sp, #0]
 80011c8:	2303      	movs	r3, #3
 80011ca:	f004 fb57 	bl	800587c <HAL_SPI_TransmitReceive>
 80011ce:	4603      	mov	r3, r0
 80011d0:	73fb      	strb	r3, [r7, #15]
	HAL_GPIO_WritePin(RADIO_S2LP_CSN_GPIO_Port, RADIO_S2LP_CSN_Pin, GPIO_PIN_SET);
 80011d2:	2201      	movs	r2, #1
 80011d4:	2101      	movs	r1, #1
 80011d6:	4808      	ldr	r0, [pc, #32]	@ (80011f8 <S2LP_WriteReg+0x6c>)
 80011d8:	f003 f98e 	bl	80044f8 <HAL_GPIO_WritePin>
  __ASM volatile ("cpsie i" : : : "memory");
 80011dc:	b662      	cpsie	i
}
 80011de:	bf00      	nop
	__enable_irq();

	if (status != NULL)
 80011e0:	683b      	ldr	r3, [r7, #0]
 80011e2:	2b00      	cmp	r3, #0
 80011e4:	d002      	beq.n	80011ec <S2LP_WriteReg+0x60>
		memcpy(status, &RxBuf[0], 2);
 80011e6:	893a      	ldrh	r2, [r7, #8]
 80011e8:	683b      	ldr	r3, [r7, #0]
 80011ea:	801a      	strh	r2, [r3, #0]
	return err;
 80011ec:	7bfb      	ldrb	r3, [r7, #15]
}
 80011ee:	4618      	mov	r0, r3
 80011f0:	3710      	adds	r7, #16
 80011f2:	46bd      	mov	sp, r7
 80011f4:	bd80      	pop	{r7, pc}
 80011f6:	bf00      	nop
 80011f8:	48000800 	.word	0x48000800
 80011fc:	200010d4 	.word	0x200010d4

08001200 <S2LP_WriteTxFIFO>:

HAL_StatusTypeDef S2LP_WriteTxFIFO(uint8_t *chunk, uint8_t chunk_len, S2LPStatus *status)
{
 8001200:	b590      	push	{r4, r7, lr}
 8001202:	b08d      	sub	sp, #52	@ 0x34
 8001204:	af02      	add	r7, sp, #8
 8001206:	60f8      	str	r0, [r7, #12]
 8001208:	460b      	mov	r3, r1
 800120a:	607a      	str	r2, [r7, #4]
 800120c:	72fb      	strb	r3, [r7, #11]
	uint8_t TxBuf[FIFO_CHUNK_SIZE+2];
	uint8_t RxBuf[FIFO_CHUNK_SIZE+2];
	TxBuf[0] = 0;
 800120e:	2300      	movs	r3, #0
 8001210:	773b      	strb	r3, [r7, #28]
	TxBuf[1] = 0xFF;
 8001212:	23ff      	movs	r3, #255	@ 0xff
 8001214:	777b      	strb	r3, [r7, #29]
	memcpy((void *)&TxBuf[2], (void *)chunk, chunk_len);
 8001216:	7afa      	ldrb	r2, [r7, #11]
 8001218:	f107 031c 	add.w	r3, r7, #28
 800121c:	3302      	adds	r3, #2
 800121e:	68f9      	ldr	r1, [r7, #12]
 8001220:	4618      	mov	r0, r3
 8001222:	f006 fe8e 	bl	8007f42 <memcpy>
  __ASM volatile ("cpsid i" : : : "memory");
 8001226:	b672      	cpsid	i
}
 8001228:	bf00      	nop

	__disable_irq();
	HAL_GPIO_WritePin(RADIO_S2LP_CSN_GPIO_Port, RADIO_S2LP_CSN_Pin, GPIO_PIN_RESET);
 800122a:	2200      	movs	r2, #0
 800122c:	2101      	movs	r1, #1
 800122e:	4814      	ldr	r0, [pc, #80]	@ (8001280 <S2LP_WriteTxFIFO+0x80>)
 8001230:	f003 f962 	bl	80044f8 <HAL_GPIO_WritePin>
	HAL_StatusTypeDef err = HAL_SPI_TransmitReceive(gSPI, TxBuf, RxBuf, chunk_len+2, HAL_MAX_DELAY);
 8001234:	4b13      	ldr	r3, [pc, #76]	@ (8001284 <S2LP_WriteTxFIFO+0x84>)
 8001236:	6818      	ldr	r0, [r3, #0]
 8001238:	7afb      	ldrb	r3, [r7, #11]
 800123a:	b29b      	uxth	r3, r3
 800123c:	3302      	adds	r3, #2
 800123e:	b29b      	uxth	r3, r3
 8001240:	f107 0210 	add.w	r2, r7, #16
 8001244:	f107 011c 	add.w	r1, r7, #28
 8001248:	f04f 34ff 	mov.w	r4, #4294967295
 800124c:	9400      	str	r4, [sp, #0]
 800124e:	f004 fb15 	bl	800587c <HAL_SPI_TransmitReceive>
 8001252:	4603      	mov	r3, r0
 8001254:	f887 3027 	strb.w	r3, [r7, #39]	@ 0x27
	HAL_GPIO_WritePin(RADIO_S2LP_CSN_GPIO_Port, RADIO_S2LP_CSN_Pin, GPIO_PIN_SET);
 8001258:	2201      	movs	r2, #1
 800125a:	2101      	movs	r1, #1
 800125c:	4808      	ldr	r0, [pc, #32]	@ (8001280 <S2LP_WriteTxFIFO+0x80>)
 800125e:	f003 f94b 	bl	80044f8 <HAL_GPIO_WritePin>
  __ASM volatile ("cpsie i" : : : "memory");
 8001262:	b662      	cpsie	i
}
 8001264:	bf00      	nop
	__enable_irq();

	if (status != NULL)
 8001266:	687b      	ldr	r3, [r7, #4]
 8001268:	2b00      	cmp	r3, #0
 800126a:	d002      	beq.n	8001272 <S2LP_WriteTxFIFO+0x72>
		memcpy(status, &RxBuf[0], 2);
 800126c:	8a3a      	ldrh	r2, [r7, #16]
 800126e:	687b      	ldr	r3, [r7, #4]
 8001270:	801a      	strh	r2, [r3, #0]
	return err;
 8001272:	f897 3027 	ldrb.w	r3, [r7, #39]	@ 0x27
}
 8001276:	4618      	mov	r0, r3
 8001278:	372c      	adds	r7, #44	@ 0x2c
 800127a:	46bd      	mov	sp, r7
 800127c:	bd90      	pop	{r4, r7, pc}
 800127e:	bf00      	nop
 8001280:	48000800 	.word	0x48000800
 8001284:	200010d4 	.word	0x200010d4

08001288 <S2LP_Send>:

HAL_StatusTypeDef S2LP_Send(uint8_t *payload, uint16_t pay_len)
{
 8001288:	b580      	push	{r7, lr}
 800128a:	b086      	sub	sp, #24
 800128c:	af00      	add	r7, sp, #0
 800128e:	6078      	str	r0, [r7, #4]
 8001290:	460b      	mov	r3, r1
 8001292:	807b      	strh	r3, [r7, #2]
	S2LPStatus radio_status;
	HAL_StatusTypeDef err;

	// Flush the Tx FIFO
	S2LP_Command(CMD_FLUSHTXFIFO, &radio_status);
 8001294:	f107 030c 	add.w	r3, r7, #12
 8001298:	4619      	mov	r1, r3
 800129a:	2072      	movs	r0, #114	@ 0x72
 800129c:	f7ff ff06 	bl	80010ac <S2LP_Command>
	if (radio_status.MC_STATE != MC_STATE_READY) {
 80012a0:	7b7b      	ldrb	r3, [r7, #13]
 80012a2:	f023 0301 	bic.w	r3, r3, #1
 80012a6:	b2db      	uxtb	r3, r3
 80012a8:	2b00      	cmp	r3, #0
 80012aa:	d004      	beq.n	80012b6 <S2LP_Send+0x2e>
		DEBUG_PRINT("[S2LP] Error: radio is not ready\r\n");
 80012ac:	4864      	ldr	r0, [pc, #400]	@ (8001440 <S2LP_Send+0x1b8>)
 80012ae:	f006 fc39 	bl	8007b24 <puts>
		return HAL_BUSY;
 80012b2:	2302      	movs	r3, #2
 80012b4:	e0c0      	b.n	8001438 <S2LP_Send+0x1b0>
	}
	// Reset global interrupt variables
	packet_sent = 0;
 80012b6:	4b63      	ldr	r3, [pc, #396]	@ (8001444 <S2LP_Send+0x1bc>)
 80012b8:	2200      	movs	r2, #0
 80012ba:	701a      	strb	r2, [r3, #0]
	underflow = 0;
 80012bc:	4b62      	ldr	r3, [pc, #392]	@ (8001448 <S2LP_Send+0x1c0>)
 80012be:	2200      	movs	r2, #0
 80012c0:	701a      	strb	r2, [r3, #0]
	fifo_almost_empty = 0;
 80012c2:	4b62      	ldr	r3, [pc, #392]	@ (800144c <S2LP_Send+0x1c4>)
 80012c4:	2200      	movs	r2, #0
 80012c6:	701a      	strb	r2, [r3, #0]

	// Set the packet length
	S2LP_WriteReg(PCKTLEN1_ADDR, (uint8_t) (pay_len >> 8), NULL);
 80012c8:	887b      	ldrh	r3, [r7, #2]
 80012ca:	0a1b      	lsrs	r3, r3, #8
 80012cc:	b29b      	uxth	r3, r3
 80012ce:	b2db      	uxtb	r3, r3
 80012d0:	2200      	movs	r2, #0
 80012d2:	4619      	mov	r1, r3
 80012d4:	2031      	movs	r0, #49	@ 0x31
 80012d6:	f7ff ff59 	bl	800118c <S2LP_WriteReg>
	S2LP_WriteReg(PCKTLEN0_ADDR, (uint8_t) (pay_len & 0xFF), NULL);
 80012da:	887b      	ldrh	r3, [r7, #2]
 80012dc:	b2db      	uxtb	r3, r3
 80012de:	2200      	movs	r2, #0
 80012e0:	4619      	mov	r1, r3
 80012e2:	2032      	movs	r0, #50	@ 0x32
 80012e4:	f7ff ff52 	bl	800118c <S2LP_WriteReg>

	// Switch to lock Tx state
	while (radio_status.MC_STATE != MC_STATE_LOCKON) {
 80012e8:	e00f      	b.n	800130a <S2LP_Send+0x82>
		err = S2LP_Command(CMD_LOCKTX, &radio_status);
 80012ea:	f107 030c 	add.w	r3, r7, #12
 80012ee:	4619      	mov	r1, r3
 80012f0:	2066      	movs	r0, #102	@ 0x66
 80012f2:	f7ff fedb 	bl	80010ac <S2LP_Command>
 80012f6:	4603      	mov	r3, r0
 80012f8:	73bb      	strb	r3, [r7, #14]
		if (err) {
 80012fa:	7bbb      	ldrb	r3, [r7, #14]
 80012fc:	2b00      	cmp	r3, #0
 80012fe:	d004      	beq.n	800130a <S2LP_Send+0x82>
			DEBUG_PRINT("[S2LP] Error: cannot lock on Tx\r\n");
 8001300:	4853      	ldr	r0, [pc, #332]	@ (8001450 <S2LP_Send+0x1c8>)
 8001302:	f006 fc0f 	bl	8007b24 <puts>
			return HAL_ERROR;
 8001306:	2301      	movs	r3, #1
 8001308:	e096      	b.n	8001438 <S2LP_Send+0x1b0>
	while (radio_status.MC_STATE != MC_STATE_LOCKON) {
 800130a:	7b7b      	ldrb	r3, [r7, #13]
 800130c:	f023 0301 	bic.w	r3, r3, #1
 8001310:	b2db      	uxtb	r3, r3
 8001312:	2b18      	cmp	r3, #24
 8001314:	d1e9      	bne.n	80012ea <S2LP_Send+0x62>
		}
	}

	// Fill Tx FIFO with payload chunks
	uint8_t sending = 0;
 8001316:	2300      	movs	r3, #0
 8001318:	75fb      	strb	r3, [r7, #23]
	uint16_t n_chunks = (pay_len / FIFO_CHUNK_SIZE) + (pay_len % FIFO_CHUNK_SIZE != 0);
 800131a:	887b      	ldrh	r3, [r7, #2]
 800131c:	08db      	lsrs	r3, r3, #3
 800131e:	b29b      	uxth	r3, r3
 8001320:	887a      	ldrh	r2, [r7, #2]
 8001322:	f002 0207 	and.w	r2, r2, #7
 8001326:	b292      	uxth	r2, r2
 8001328:	2a00      	cmp	r2, #0
 800132a:	bf14      	ite	ne
 800132c:	2201      	movne	r2, #1
 800132e:	2200      	moveq	r2, #0
 8001330:	b2d2      	uxtb	r2, r2
 8001332:	4413      	add	r3, r2
 8001334:	823b      	strh	r3, [r7, #16]

	uint16_t free_chunks = FIFO_SIZE / FIFO_CHUNK_SIZE;
 8001336:	2310      	movs	r3, #16
 8001338:	82bb      	strh	r3, [r7, #20]

	for(uint16_t i=0; i < n_chunks; i++) {
 800133a:	2300      	movs	r3, #0
 800133c:	827b      	strh	r3, [r7, #18]
 800133e:	e063      	b.n	8001408 <S2LP_Send+0x180>
		if (underflow) {
 8001340:	4b41      	ldr	r3, [pc, #260]	@ (8001448 <S2LP_Send+0x1c0>)
 8001342:	781b      	ldrb	r3, [r3, #0]
 8001344:	b2db      	uxtb	r3, r3
 8001346:	2b00      	cmp	r3, #0
 8001348:	d02f      	beq.n	80013aa <S2LP_Send+0x122>
			DEBUG_PRINT("[S2LP] Error: Tx FIFO overflow or underflow!\r\n");
 800134a:	4842      	ldr	r0, [pc, #264]	@ (8001454 <S2LP_Send+0x1cc>)
 800134c:	f006 fbea 	bl	8007b24 <puts>
			err = S2LP_ReadReg(0, NULL, &radio_status); // fetch radio state
 8001350:	f107 030c 	add.w	r3, r7, #12
 8001354:	461a      	mov	r2, r3
 8001356:	2100      	movs	r1, #0
 8001358:	2000      	movs	r0, #0
 800135a:	f7ff fed9 	bl	8001110 <S2LP_ReadReg>
 800135e:	4603      	mov	r3, r0
 8001360:	73bb      	strb	r3, [r7, #14]
			if (!err) {
 8001362:	7bbb      	ldrb	r3, [r7, #14]
 8001364:	2b00      	cmp	r3, #0
 8001366:	d105      	bne.n	8001374 <S2LP_Send+0xec>
				S2LP_PrintStatus(&radio_status);
 8001368:	f107 030c 	add.w	r3, r7, #12
 800136c:	4618      	mov	r0, r3
 800136e:	f000 f879 	bl	8001464 <S2LP_PrintStatus>
 8001372:	e002      	b.n	800137a <S2LP_Send+0xf2>
			} else {
				DEBUG_PRINT("[S2LP] Error: unable to fetch radio status!\r\n");
 8001374:	4838      	ldr	r0, [pc, #224]	@ (8001458 <S2LP_Send+0x1d0>)
 8001376:	f006 fbd5 	bl	8007b24 <puts>
			}
			return HAL_ERROR;
 800137a:	2301      	movs	r3, #1
 800137c:	e05c      	b.n	8001438 <S2LP_Send+0x1b0>
		}

		while (free_chunks == 0) {
			if (!sending) {// if FIFO is full and we are not sending yet ...
 800137e:	7dfb      	ldrb	r3, [r7, #23]
 8001380:	2b00      	cmp	r3, #0
 8001382:	d107      	bne.n	8001394 <S2LP_Send+0x10c>
				S2LP_Command(CMD_TX, &radio_status); // start the transmission
 8001384:	f107 030c 	add.w	r3, r7, #12
 8001388:	4619      	mov	r1, r3
 800138a:	2060      	movs	r0, #96	@ 0x60
 800138c:	f7ff fe8e 	bl	80010ac <S2LP_Command>
				sending = 1;
 8001390:	2301      	movs	r3, #1
 8001392:	75fb      	strb	r3, [r7, #23]
			}

			__WFI();
 8001394:	bf30      	wfi
			if (fifo_almost_empty) {
 8001396:	4b2d      	ldr	r3, [pc, #180]	@ (800144c <S2LP_Send+0x1c4>)
 8001398:	781b      	ldrb	r3, [r3, #0]
 800139a:	b2db      	uxtb	r3, r3
 800139c:	2b00      	cmp	r3, #0
 800139e:	d004      	beq.n	80013aa <S2LP_Send+0x122>
				free_chunks = FIFO_SIZE/FIFO_CHUNK_SIZE - FIFO_EMPTY_THRESH;
 80013a0:	230c      	movs	r3, #12
 80013a2:	82bb      	strh	r3, [r7, #20]
				fifo_almost_empty = 0;
 80013a4:	4b29      	ldr	r3, [pc, #164]	@ (800144c <S2LP_Send+0x1c4>)
 80013a6:	2200      	movs	r2, #0
 80013a8:	701a      	strb	r2, [r3, #0]
		while (free_chunks == 0) {
 80013aa:	8abb      	ldrh	r3, [r7, #20]
 80013ac:	2b00      	cmp	r3, #0
 80013ae:	d0e6      	beq.n	800137e <S2LP_Send+0xf6>
			}
		}

		uint8_t chunk_len = (i == n_chunks-1) ? pay_len-(n_chunks-1)*FIFO_CHUNK_SIZE : FIFO_CHUNK_SIZE;
 80013b0:	8a7a      	ldrh	r2, [r7, #18]
 80013b2:	8a3b      	ldrh	r3, [r7, #16]
 80013b4:	3b01      	subs	r3, #1
 80013b6:	429a      	cmp	r2, r3
 80013b8:	d109      	bne.n	80013ce <S2LP_Send+0x146>
 80013ba:	887b      	ldrh	r3, [r7, #2]
 80013bc:	b2da      	uxtb	r2, r3
 80013be:	8a3b      	ldrh	r3, [r7, #16]
 80013c0:	3b01      	subs	r3, #1
 80013c2:	b2db      	uxtb	r3, r3
 80013c4:	00db      	lsls	r3, r3, #3
 80013c6:	b2db      	uxtb	r3, r3
 80013c8:	1ad3      	subs	r3, r2, r3
 80013ca:	b2db      	uxtb	r3, r3
 80013cc:	e000      	b.n	80013d0 <S2LP_Send+0x148>
 80013ce:	2308      	movs	r3, #8
 80013d0:	73fb      	strb	r3, [r7, #15]
		err = S2LP_WriteTxFIFO(&payload[i*FIFO_CHUNK_SIZE], chunk_len, &radio_status);
 80013d2:	8a7b      	ldrh	r3, [r7, #18]
 80013d4:	00db      	lsls	r3, r3, #3
 80013d6:	461a      	mov	r2, r3
 80013d8:	687b      	ldr	r3, [r7, #4]
 80013da:	4413      	add	r3, r2
 80013dc:	f107 020c 	add.w	r2, r7, #12
 80013e0:	7bf9      	ldrb	r1, [r7, #15]
 80013e2:	4618      	mov	r0, r3
 80013e4:	f7ff ff0c 	bl	8001200 <S2LP_WriteTxFIFO>
 80013e8:	4603      	mov	r3, r0
 80013ea:	73bb      	strb	r3, [r7, #14]
		if (err) {
 80013ec:	7bbb      	ldrb	r3, [r7, #14]
 80013ee:	2b00      	cmp	r3, #0
 80013f0:	d004      	beq.n	80013fc <S2LP_Send+0x174>
			DEBUG_PRINT("[S2LP] Error: cannot fill Tx FIFO\r\n");
 80013f2:	481a      	ldr	r0, [pc, #104]	@ (800145c <S2LP_Send+0x1d4>)
 80013f4:	f006 fb96 	bl	8007b24 <puts>
			return HAL_ERROR;
 80013f8:	2301      	movs	r3, #1
 80013fa:	e01d      	b.n	8001438 <S2LP_Send+0x1b0>
		}
		free_chunks--;
 80013fc:	8abb      	ldrh	r3, [r7, #20]
 80013fe:	3b01      	subs	r3, #1
 8001400:	82bb      	strh	r3, [r7, #20]
	for(uint16_t i=0; i < n_chunks; i++) {
 8001402:	8a7b      	ldrh	r3, [r7, #18]
 8001404:	3301      	adds	r3, #1
 8001406:	827b      	strh	r3, [r7, #18]
 8001408:	8a7a      	ldrh	r2, [r7, #18]
 800140a:	8a3b      	ldrh	r3, [r7, #16]
 800140c:	429a      	cmp	r2, r3
 800140e:	d397      	bcc.n	8001340 <S2LP_Send+0xb8>
	}

	// Start transmission (for short payloads)
	if (!sending) {
 8001410:	7dfb      	ldrb	r3, [r7, #23]
 8001412:	2b00      	cmp	r3, #0
 8001414:	d107      	bne.n	8001426 <S2LP_Send+0x19e>
		S2LP_Command(CMD_TX, &radio_status);
 8001416:	f107 030c 	add.w	r3, r7, #12
 800141a:	4619      	mov	r1, r3
 800141c:	2060      	movs	r0, #96	@ 0x60
 800141e:	f7ff fe45 	bl	80010ac <S2LP_Command>
	}

	while (!packet_sent) {
 8001422:	e000      	b.n	8001426 <S2LP_Send+0x19e>
		__WFI(); // wait until packet has been fully transmitted
 8001424:	bf30      	wfi
	while (!packet_sent) {
 8001426:	4b07      	ldr	r3, [pc, #28]	@ (8001444 <S2LP_Send+0x1bc>)
 8001428:	781b      	ldrb	r3, [r3, #0]
 800142a:	b2db      	uxtb	r3, r3
 800142c:	2b00      	cmp	r3, #0
 800142e:	d0f9      	beq.n	8001424 <S2LP_Send+0x19c>
	}

	DEBUG_PRINT("[S2LP] Packet transmitted!\r\n");
 8001430:	480b      	ldr	r0, [pc, #44]	@ (8001460 <S2LP_Send+0x1d8>)
 8001432:	f006 fb77 	bl	8007b24 <puts>
	return HAL_OK;
 8001436:	2300      	movs	r3, #0
}
 8001438:	4618      	mov	r0, r3
 800143a:	3718      	adds	r7, #24
 800143c:	46bd      	mov	sp, r7
 800143e:	bd80      	pop	{r7, pc}
 8001440:	08008998 	.word	0x08008998
 8001444:	200010d0 	.word	0x200010d0
 8001448:	200010d2 	.word	0x200010d2
 800144c:	200010d1 	.word	0x200010d1
 8001450:	080089bc 	.word	0x080089bc
 8001454:	080089e0 	.word	0x080089e0
 8001458:	08008a10 	.word	0x08008a10
 800145c:	08008a40 	.word	0x08008a40
 8001460:	08008a64 	.word	0x08008a64

08001464 <S2LP_PrintStatus>:

void S2LP_PrintStatus(S2LPStatus *status)
{
 8001464:	b580      	push	{r7, lr}
 8001466:	b084      	sub	sp, #16
 8001468:	af02      	add	r7, sp, #8
 800146a:	6078      	str	r0, [r7, #4]
	DEBUG_PRINT("=== S2LP Status ===\r\n");
 800146c:	486f      	ldr	r0, [pc, #444]	@ (800162c <S2LP_PrintStatus+0x1c8>)
 800146e:	f006 fb59 	bl	8007b24 <puts>
	DEBUG_PRINT("  MC_STATE: ");
 8001472:	486f      	ldr	r0, [pc, #444]	@ (8001630 <S2LP_PrintStatus+0x1cc>)
 8001474:	f006 faee 	bl	8007a54 <iprintf>
	switch (status->MC_STATE) {
 8001478:	687b      	ldr	r3, [r7, #4]
 800147a:	785b      	ldrb	r3, [r3, #1]
 800147c:	f3c3 0346 	ubfx	r3, r3, #1, #7
 8001480:	b2db      	uxtb	r3, r3
 8001482:	2b5c      	cmp	r3, #92	@ 0x5c
 8001484:	f000 808f 	beq.w	80015a6 <S2LP_PrintStatus+0x142>
 8001488:	2b5c      	cmp	r3, #92	@ 0x5c
 800148a:	f300 8094 	bgt.w	80015b6 <S2LP_PrintStatus+0x152>
 800148e:	2b30      	cmp	r3, #48	@ 0x30
 8001490:	dc6a      	bgt.n	8001568 <S2LP_PrintStatus+0x104>
 8001492:	2b00      	cmp	r3, #0
 8001494:	f2c0 808f 	blt.w	80015b6 <S2LP_PrintStatus+0x152>
 8001498:	2b30      	cmp	r3, #48	@ 0x30
 800149a:	f200 808c 	bhi.w	80015b6 <S2LP_PrintStatus+0x152>
 800149e:	a201      	add	r2, pc, #4	@ (adr r2, 80014a4 <S2LP_PrintStatus+0x40>)
 80014a0:	f852 f023 	ldr.w	pc, [r2, r3, lsl #2]
 80014a4:	0800156f 	.word	0x0800156f
 80014a8:	08001587 	.word	0x08001587
 80014ac:	08001577 	.word	0x08001577
 80014b0:	0800157f 	.word	0x0800157f
 80014b4:	080015b7 	.word	0x080015b7
 80014b8:	080015b7 	.word	0x080015b7
 80014bc:	080015b7 	.word	0x080015b7
 80014c0:	080015b7 	.word	0x080015b7
 80014c4:	080015b7 	.word	0x080015b7
 80014c8:	080015b7 	.word	0x080015b7
 80014cc:	080015b7 	.word	0x080015b7
 80014d0:	080015b7 	.word	0x080015b7
 80014d4:	0800158f 	.word	0x0800158f
 80014d8:	080015b7 	.word	0x080015b7
 80014dc:	080015b7 	.word	0x080015b7
 80014e0:	080015b7 	.word	0x080015b7
 80014e4:	080015b7 	.word	0x080015b7
 80014e8:	080015b7 	.word	0x080015b7
 80014ec:	080015b7 	.word	0x080015b7
 80014f0:	080015b7 	.word	0x080015b7
 80014f4:	0800159f 	.word	0x0800159f
 80014f8:	080015b7 	.word	0x080015b7
 80014fc:	080015b7 	.word	0x080015b7
 8001500:	080015b7 	.word	0x080015b7
 8001504:	080015b7 	.word	0x080015b7
 8001508:	080015b7 	.word	0x080015b7
 800150c:	080015b7 	.word	0x080015b7
 8001510:	080015b7 	.word	0x080015b7
 8001514:	080015b7 	.word	0x080015b7
 8001518:	080015b7 	.word	0x080015b7
 800151c:	080015b7 	.word	0x080015b7
 8001520:	080015b7 	.word	0x080015b7
 8001524:	080015b7 	.word	0x080015b7
 8001528:	080015b7 	.word	0x080015b7
 800152c:	080015b7 	.word	0x080015b7
 8001530:	080015b7 	.word	0x080015b7
 8001534:	080015b7 	.word	0x080015b7
 8001538:	080015b7 	.word	0x080015b7
 800153c:	080015b7 	.word	0x080015b7
 8001540:	080015b7 	.word	0x080015b7
 8001544:	080015b7 	.word	0x080015b7
 8001548:	080015b7 	.word	0x080015b7
 800154c:	080015b7 	.word	0x080015b7
 8001550:	080015b7 	.word	0x080015b7
 8001554:	080015b7 	.word	0x080015b7
 8001558:	080015b7 	.word	0x080015b7
 800155c:	080015b7 	.word	0x080015b7
 8001560:	080015b7 	.word	0x080015b7
 8001564:	08001597 	.word	0x08001597
 8001568:	2b50      	cmp	r3, #80	@ 0x50
 800156a:	d020      	beq.n	80015ae <S2LP_PrintStatus+0x14a>
 800156c:	e023      	b.n	80015b6 <S2LP_PrintStatus+0x152>
		case (MC_STATE_READY):
			DEBUG_PRINT("READY");
 800156e:	4831      	ldr	r0, [pc, #196]	@ (8001634 <S2LP_PrintStatus+0x1d0>)
 8001570:	f006 fa70 	bl	8007a54 <iprintf>
			break;
 8001574:	e023      	b.n	80015be <S2LP_PrintStatus+0x15a>
		case (MC_STATE_STANDBY):
			DEBUG_PRINT("STANDBY");
 8001576:	4830      	ldr	r0, [pc, #192]	@ (8001638 <S2LP_PrintStatus+0x1d4>)
 8001578:	f006 fa6c 	bl	8007a54 <iprintf>
			break;
 800157c:	e01f      	b.n	80015be <S2LP_PrintStatus+0x15a>
		case (MC_STATE_SLEEP):
			DEBUG_PRINT("SLEEP");
 800157e:	482f      	ldr	r0, [pc, #188]	@ (800163c <S2LP_PrintStatus+0x1d8>)
 8001580:	f006 fa68 	bl	8007a54 <iprintf>
			break;
 8001584:	e01b      	b.n	80015be <S2LP_PrintStatus+0x15a>
		case (MC_STATE_SLEEP_NOFIFO):
			DEBUG_PRINT("SLEEP");
 8001586:	482d      	ldr	r0, [pc, #180]	@ (800163c <S2LP_PrintStatus+0x1d8>)
 8001588:	f006 fa64 	bl	8007a54 <iprintf>
			break;
 800158c:	e017      	b.n	80015be <S2LP_PrintStatus+0x15a>
		case (MC_STATE_LOCKON):
			DEBUG_PRINT("LOCKON");
 800158e:	482c      	ldr	r0, [pc, #176]	@ (8001640 <S2LP_PrintStatus+0x1dc>)
 8001590:	f006 fa60 	bl	8007a54 <iprintf>
			break;
 8001594:	e013      	b.n	80015be <S2LP_PrintStatus+0x15a>
		case (MC_STATE_RX):
			DEBUG_PRINT("RX");
 8001596:	482b      	ldr	r0, [pc, #172]	@ (8001644 <S2LP_PrintStatus+0x1e0>)
 8001598:	f006 fa5c 	bl	8007a54 <iprintf>
			break;
 800159c:	e00f      	b.n	80015be <S2LP_PrintStatus+0x15a>
		case (MC_STATE_LOCK_ST):
			DEBUG_PRINT("LOCK_ST");
 800159e:	482a      	ldr	r0, [pc, #168]	@ (8001648 <S2LP_PrintStatus+0x1e4>)
 80015a0:	f006 fa58 	bl	8007a54 <iprintf>
			break;
 80015a4:	e00b      	b.n	80015be <S2LP_PrintStatus+0x15a>
		case (MC_STATE_TX):
			DEBUG_PRINT("TX");
 80015a6:	4829      	ldr	r0, [pc, #164]	@ (800164c <S2LP_PrintStatus+0x1e8>)
 80015a8:	f006 fa54 	bl	8007a54 <iprintf>
			break;
 80015ac:	e007      	b.n	80015be <S2LP_PrintStatus+0x15a>
		case (MC_STATE_SYNTH_SETUP):
			DEBUG_PRINT("SYNTH_SETUP");
 80015ae:	4828      	ldr	r0, [pc, #160]	@ (8001650 <S2LP_PrintStatus+0x1ec>)
 80015b0:	f006 fa50 	bl	8007a54 <iprintf>
			break;
 80015b4:	e003      	b.n	80015be <S2LP_PrintStatus+0x15a>
		default:
			DEBUG_PRINT("UNKNOWN");
 80015b6:	4827      	ldr	r0, [pc, #156]	@ (8001654 <S2LP_PrintStatus+0x1f0>)
 80015b8:	f006 fa4c 	bl	8007a54 <iprintf>
			break;
 80015bc:	bf00      	nop
	}
	DEBUG_PRINT("\r\n");
 80015be:	4826      	ldr	r0, [pc, #152]	@ (8001658 <S2LP_PrintStatus+0x1f4>)
 80015c0:	f006 fab0 	bl	8007b24 <puts>
	DEBUG_PRINT("  XO_ON=%u, ERROR_LOCK=%u, RX_fifo_empty=%u, TX_FIFO_FULL=%u\r\n",
 80015c4:	687b      	ldr	r3, [r7, #4]
 80015c6:	785b      	ldrb	r3, [r3, #1]
 80015c8:	f3c3 0300 	ubfx	r3, r3, #0, #1
 80015cc:	b2db      	uxtb	r3, r3
 80015ce:	4619      	mov	r1, r3
 80015d0:	687b      	ldr	r3, [r7, #4]
 80015d2:	781b      	ldrb	r3, [r3, #0]
 80015d4:	f3c3 0300 	ubfx	r3, r3, #0, #1
 80015d8:	b2db      	uxtb	r3, r3
 80015da:	461a      	mov	r2, r3
 80015dc:	687b      	ldr	r3, [r7, #4]
 80015de:	781b      	ldrb	r3, [r3, #0]
 80015e0:	f3c3 0340 	ubfx	r3, r3, #1, #1
 80015e4:	b2db      	uxtb	r3, r3
 80015e6:	4618      	mov	r0, r3
 80015e8:	687b      	ldr	r3, [r7, #4]
 80015ea:	781b      	ldrb	r3, [r3, #0]
 80015ec:	f3c3 0380 	ubfx	r3, r3, #2, #1
 80015f0:	b2db      	uxtb	r3, r3
 80015f2:	9300      	str	r3, [sp, #0]
 80015f4:	4603      	mov	r3, r0
 80015f6:	4819      	ldr	r0, [pc, #100]	@ (800165c <S2LP_PrintStatus+0x1f8>)
 80015f8:	f006 fa2c 	bl	8007a54 <iprintf>
			status->XO_ON, status->ERROR_LOCK, status->RX_FIFO_EMPTY, status->TX_FIFO_FULL);
	DEBUG_PRINT("  ANT_SELECT=%u, RCCAL_OK=%u, RES=%u\r\n", status->ANT_SELECT, status->RCCAL_OK, status->RESERVED);
 80015fc:	687b      	ldr	r3, [r7, #4]
 80015fe:	781b      	ldrb	r3, [r3, #0]
 8001600:	f3c3 03c0 	ubfx	r3, r3, #3, #1
 8001604:	b2db      	uxtb	r3, r3
 8001606:	4619      	mov	r1, r3
 8001608:	687b      	ldr	r3, [r7, #4]
 800160a:	781b      	ldrb	r3, [r3, #0]
 800160c:	f3c3 1300 	ubfx	r3, r3, #4, #1
 8001610:	b2db      	uxtb	r3, r3
 8001612:	461a      	mov	r2, r3
 8001614:	687b      	ldr	r3, [r7, #4]
 8001616:	781b      	ldrb	r3, [r3, #0]
 8001618:	f3c3 1342 	ubfx	r3, r3, #5, #3
 800161c:	b2db      	uxtb	r3, r3
 800161e:	4810      	ldr	r0, [pc, #64]	@ (8001660 <S2LP_PrintStatus+0x1fc>)
 8001620:	f006 fa18 	bl	8007a54 <iprintf>
}
 8001624:	bf00      	nop
 8001626:	3708      	adds	r7, #8
 8001628:	46bd      	mov	sp, r7
 800162a:	bd80      	pop	{r7, pc}
 800162c:	08008a80 	.word	0x08008a80
 8001630:	08008a98 	.word	0x08008a98
 8001634:	08008aa8 	.word	0x08008aa8
 8001638:	08008ab0 	.word	0x08008ab0
 800163c:	08008ab8 	.word	0x08008ab8
 8001640:	08008ac0 	.word	0x08008ac0
 8001644:	08008ac8 	.word	0x08008ac8
 8001648:	08008acc 	.word	0x08008acc
 800164c:	08008ad4 	.word	0x08008ad4
 8001650:	08008ad8 	.word	0x08008ad8
 8001654:	08008ae4 	.word	0x08008ae4
 8001658:	08008aec 	.word	0x08008aec
 800165c:	08008af0 	.word	0x08008af0
 8001660:	08008b30 	.word	0x08008b30
 8001664:	00000000 	.word	0x00000000

08001668 <S2LP_PLLConf>:
* @param  pfd_split pointer to the pfd register value.
* @param  lFc channel center frequency expressed in Hz (from 779 MHz to 915 MHz)
* @retval uint8_t Charge pump word.
*/
void S2LP_PLLConf(int32_t lFc)
{
 8001668:	e92d 4fb0 	stmdb	sp!, {r4, r5, r7, r8, r9, sl, fp, lr}
 800166c:	b09e      	sub	sp, #120	@ 0x78
 800166e:	af00      	add	r7, sp, #0
 8001670:	63f8      	str	r0, [r7, #60]	@ 0x3c
  uint32_t vcofreq, lFRef;
  uint8_t BFactor = 4; // 779-915 MHz range
 8001672:	2304      	movs	r3, #4
 8001674:	f887 3075 	strb.w	r3, [r7, #117]	@ 0x75
  uint8_t refdiv = 1; // REFDIV=0 (XO_RCO_CONF0) by default
 8001678:	2301      	movs	r3, #1
 800167a:	f887 3074 	strb.w	r3, [r7, #116]	@ 0x74

  /* Calculates the syntheziser band select */
  uint64_t tgt1,tgt2,tgt;
  uint32_t synth;

  tgt = (((uint64_t)lFc)<<19)*(BFactor*refdiv);
 800167e:	6bfb      	ldr	r3, [r7, #60]	@ 0x3c
 8001680:	17da      	asrs	r2, r3, #31
 8001682:	469a      	mov	sl, r3
 8001684:	4693      	mov	fp, r2
 8001686:	ea4f 396a 	mov.w	r9, sl, asr #13
 800168a:	ea4f 48ca 	mov.w	r8, sl, lsl #19
 800168e:	f897 2075 	ldrb.w	r2, [r7, #117]	@ 0x75
 8001692:	f897 3074 	ldrb.w	r3, [r7, #116]	@ 0x74
 8001696:	fb02 f303 	mul.w	r3, r2, r3
 800169a:	17da      	asrs	r2, r3, #31
 800169c:	623b      	str	r3, [r7, #32]
 800169e:	627a      	str	r2, [r7, #36]	@ 0x24
 80016a0:	e9d7 0108 	ldrd	r0, r1, [r7, #32]
 80016a4:	4603      	mov	r3, r0
 80016a6:	fb03 f209 	mul.w	r2, r3, r9
 80016aa:	460b      	mov	r3, r1
 80016ac:	fb08 f303 	mul.w	r3, r8, r3
 80016b0:	4413      	add	r3, r2
 80016b2:	4602      	mov	r2, r0
 80016b4:	fba8 4502 	umull	r4, r5, r8, r2
 80016b8:	442b      	add	r3, r5
 80016ba:	461d      	mov	r5, r3
 80016bc:	e9c7 451a 	strd	r4, r5, [r7, #104]	@ 0x68
 80016c0:	e9c7 451a 	strd	r4, r5, [r7, #104]	@ 0x68
  synth=(uint32_t)(tgt/XTAL_FREQ);
 80016c4:	e9d7 011a 	ldrd	r0, r1, [r7, #104]	@ 0x68
 80016c8:	a374      	add	r3, pc, #464	@ (adr r3, 800189c <S2LP_PLLConf+0x234>)
 80016ca:	e9d3 2300 	ldrd	r2, r3, [r3]
 80016ce:	f7fe fddf 	bl	8000290 <__aeabi_uldivmod>
 80016d2:	4602      	mov	r2, r0
 80016d4:	460b      	mov	r3, r1
 80016d6:	4613      	mov	r3, r2
 80016d8:	667b      	str	r3, [r7, #100]	@ 0x64
  tgt1 = (uint64_t)XTAL_FREQ*(synth);
 80016da:	6e7b      	ldr	r3, [r7, #100]	@ 0x64
 80016dc:	2200      	movs	r2, #0
 80016de:	61bb      	str	r3, [r7, #24]
 80016e0:	61fa      	str	r2, [r7, #28]
 80016e2:	4b6b      	ldr	r3, [pc, #428]	@ (8001890 <S2LP_PLLConf+0x228>)
 80016e4:	e9d7 4506 	ldrd	r4, r5, [r7, #24]
 80016e8:	462a      	mov	r2, r5
 80016ea:	fb03 f202 	mul.w	r2, r3, r2
 80016ee:	2300      	movs	r3, #0
 80016f0:	4621      	mov	r1, r4
 80016f2:	fb01 f303 	mul.w	r3, r1, r3
 80016f6:	4413      	add	r3, r2
 80016f8:	4a65      	ldr	r2, [pc, #404]	@ (8001890 <S2LP_PLLConf+0x228>)
 80016fa:	4621      	mov	r1, r4
 80016fc:	fba1 1202 	umull	r1, r2, r1, r2
 8001700:	637a      	str	r2, [r7, #52]	@ 0x34
 8001702:	460a      	mov	r2, r1
 8001704:	633a      	str	r2, [r7, #48]	@ 0x30
 8001706:	6b7a      	ldr	r2, [r7, #52]	@ 0x34
 8001708:	4413      	add	r3, r2
 800170a:	637b      	str	r3, [r7, #52]	@ 0x34
 800170c:	e9d7 340c 	ldrd	r3, r4, [r7, #48]	@ 0x30
 8001710:	e9c7 3416 	strd	r3, r4, [r7, #88]	@ 0x58
 8001714:	e9c7 3416 	strd	r3, r4, [r7, #88]	@ 0x58
  tgt2 = (uint64_t)XTAL_FREQ*(synth+1);
 8001718:	6e7b      	ldr	r3, [r7, #100]	@ 0x64
 800171a:	3301      	adds	r3, #1
 800171c:	2200      	movs	r2, #0
 800171e:	613b      	str	r3, [r7, #16]
 8001720:	617a      	str	r2, [r7, #20]
 8001722:	4b5b      	ldr	r3, [pc, #364]	@ (8001890 <S2LP_PLLConf+0x228>)
 8001724:	e9d7 4504 	ldrd	r4, r5, [r7, #16]
 8001728:	462a      	mov	r2, r5
 800172a:	fb03 f202 	mul.w	r2, r3, r2
 800172e:	2300      	movs	r3, #0
 8001730:	4621      	mov	r1, r4
 8001732:	fb01 f303 	mul.w	r3, r1, r3
 8001736:	4413      	add	r3, r2
 8001738:	4a55      	ldr	r2, [pc, #340]	@ (8001890 <S2LP_PLLConf+0x228>)
 800173a:	4621      	mov	r1, r4
 800173c:	fba1 1202 	umull	r1, r2, r1, r2
 8001740:	62fa      	str	r2, [r7, #44]	@ 0x2c
 8001742:	460a      	mov	r2, r1
 8001744:	62ba      	str	r2, [r7, #40]	@ 0x28
 8001746:	6afa      	ldr	r2, [r7, #44]	@ 0x2c
 8001748:	4413      	add	r3, r2
 800174a:	62fb      	str	r3, [r7, #44]	@ 0x2c
 800174c:	e9d7 340a 	ldrd	r3, r4, [r7, #40]	@ 0x28
 8001750:	e9c7 3414 	strd	r3, r4, [r7, #80]	@ 0x50
 8001754:	e9c7 3414 	strd	r3, r4, [r7, #80]	@ 0x50

  synth=((tgt2-tgt)<(tgt-tgt1))?(synth+1):(synth);
 8001758:	e9d7 0114 	ldrd	r0, r1, [r7, #80]	@ 0x50
 800175c:	e9d7 231a 	ldrd	r2, r3, [r7, #104]	@ 0x68
 8001760:	1a84      	subs	r4, r0, r2
 8001762:	60bc      	str	r4, [r7, #8]
 8001764:	eb61 0303 	sbc.w	r3, r1, r3
 8001768:	60fb      	str	r3, [r7, #12]
 800176a:	e9d7 011a 	ldrd	r0, r1, [r7, #104]	@ 0x68
 800176e:	e9d7 2316 	ldrd	r2, r3, [r7, #88]	@ 0x58
 8001772:	1a84      	subs	r4, r0, r2
 8001774:	603c      	str	r4, [r7, #0]
 8001776:	eb61 0303 	sbc.w	r3, r1, r3
 800177a:	607b      	str	r3, [r7, #4]
 800177c:	e9d7 4502 	ldrd	r4, r5, [r7, #8]
 8001780:	4623      	mov	r3, r4
 8001782:	e9d7 0100 	ldrd	r0, r1, [r7]
 8001786:	4602      	mov	r2, r0
 8001788:	4293      	cmp	r3, r2
 800178a:	462b      	mov	r3, r5
 800178c:	460a      	mov	r2, r1
 800178e:	4193      	sbcs	r3, r2
 8001790:	d202      	bcs.n	8001798 <S2LP_PLLConf+0x130>
 8001792:	6e7b      	ldr	r3, [r7, #100]	@ 0x64
 8001794:	3301      	adds	r3, #1
 8001796:	e000      	b.n	800179a <S2LP_PLLConf+0x132>
 8001798:	6e7b      	ldr	r3, [r7, #100]	@ 0x64
 800179a:	667b      	str	r3, [r7, #100]	@ 0x64

  /* Calculates the VCO frequency VCOFreq = lFc*B */
  vcofreq = lFc*BFactor;
 800179c:	f897 3075 	ldrb.w	r3, [r7, #117]	@ 0x75
 80017a0:	6bfa      	ldr	r2, [r7, #60]	@ 0x3c
 80017a2:	fb02 f303 	mul.w	r3, r2, r3
 80017a6:	64fb      	str	r3, [r7, #76]	@ 0x4c

  /* Calculates the reference frequency clock */
  lFRef = XTAL_FREQ/refdiv;
 80017a8:	f897 3074 	ldrb.w	r3, [r7, #116]	@ 0x74
 80017ac:	4a38      	ldr	r2, [pc, #224]	@ (8001890 <S2LP_PLLConf+0x228>)
 80017ae:	fb92 f3f3 	sdiv	r3, r2, r3
 80017b2:	64bb      	str	r3, [r7, #72]	@ 0x48

  /* Set the correct charge pump word */
  if (vcofreq >= VCO_CENTER_FREQ) {
 80017b4:	6cfb      	ldr	r3, [r7, #76]	@ 0x4c
 80017b6:	4a37      	ldr	r2, [pc, #220]	@ (8001894 <S2LP_PLLConf+0x22c>)
 80017b8:	4293      	cmp	r3, r2
 80017ba:	d911      	bls.n	80017e0 <S2LP_PLLConf+0x178>
    if (lFRef > S2LP_DIG_DOMAIN_XTAL_THRESH) {
 80017bc:	6cbb      	ldr	r3, [r7, #72]	@ 0x48
 80017be:	4a36      	ldr	r2, [pc, #216]	@ (8001898 <S2LP_PLLConf+0x230>)
 80017c0:	4293      	cmp	r3, r2
 80017c2:	d906      	bls.n	80017d2 <S2LP_PLLConf+0x16a>
      cp_isel = 0x02;
 80017c4:	2302      	movs	r3, #2
 80017c6:	f887 3077 	strb.w	r3, [r7, #119]	@ 0x77
      pfd_split = 0;
 80017ca:	2300      	movs	r3, #0
 80017cc:	f887 3076 	strb.w	r3, [r7, #118]	@ 0x76
 80017d0:	e017      	b.n	8001802 <S2LP_PLLConf+0x19a>
    }
    else {
      cp_isel = 0x01;
 80017d2:	2301      	movs	r3, #1
 80017d4:	f887 3077 	strb.w	r3, [r7, #119]	@ 0x77
      pfd_split = 1;
 80017d8:	2301      	movs	r3, #1
 80017da:	f887 3076 	strb.w	r3, [r7, #118]	@ 0x76
 80017de:	e010      	b.n	8001802 <S2LP_PLLConf+0x19a>
    }
  }
  else {
    if (lFRef > S2LP_DIG_DOMAIN_XTAL_THRESH) {
 80017e0:	6cbb      	ldr	r3, [r7, #72]	@ 0x48
 80017e2:	4a2d      	ldr	r2, [pc, #180]	@ (8001898 <S2LP_PLLConf+0x230>)
 80017e4:	4293      	cmp	r3, r2
 80017e6:	d906      	bls.n	80017f6 <S2LP_PLLConf+0x18e>
      cp_isel = 0x03;
 80017e8:	2303      	movs	r3, #3
 80017ea:	f887 3077 	strb.w	r3, [r7, #119]	@ 0x77
      pfd_split = 0;
 80017ee:	2300      	movs	r3, #0
 80017f0:	f887 3076 	strb.w	r3, [r7, #118]	@ 0x76
 80017f4:	e005      	b.n	8001802 <S2LP_PLLConf+0x19a>
    }
    else {
      cp_isel = 0x02;
 80017f6:	2302      	movs	r3, #2
 80017f8:	f887 3077 	strb.w	r3, [r7, #119]	@ 0x77
      pfd_split = 1;
 80017fc:	2301      	movs	r3, #1
 80017fe:	f887 3076 	strb.w	r3, [r7, #118]	@ 0x76
    }
  }

  //DEBUG_PRINT("SYNT: %lu, cp_ise=%u, pfd_split=%u\r\n", synth, cp_isel, pfd_split);

  uint8_t SYNT3 = (uint8_t) ((cp_isel << 5) | (synth >> 24));
 8001802:	f897 3077 	ldrb.w	r3, [r7, #119]	@ 0x77
 8001806:	015b      	lsls	r3, r3, #5
 8001808:	b2da      	uxtb	r2, r3
 800180a:	6e7b      	ldr	r3, [r7, #100]	@ 0x64
 800180c:	0e1b      	lsrs	r3, r3, #24
 800180e:	b2db      	uxtb	r3, r3
 8001810:	4313      	orrs	r3, r2
 8001812:	f887 3047 	strb.w	r3, [r7, #71]	@ 0x47
  uint8_t SYNT2 = (uint8_t) ((synth >> 16) & 0xFF);
 8001816:	6e7b      	ldr	r3, [r7, #100]	@ 0x64
 8001818:	0c1b      	lsrs	r3, r3, #16
 800181a:	f887 3046 	strb.w	r3, [r7, #70]	@ 0x46
  uint8_t SYNT1 = (uint8_t) ((synth >> 8) & 0xFF);
 800181e:	6e7b      	ldr	r3, [r7, #100]	@ 0x64
 8001820:	0a1b      	lsrs	r3, r3, #8
 8001822:	f887 3045 	strb.w	r3, [r7, #69]	@ 0x45
  uint8_t SYNT0 = (uint8_t) ((synth >> 0) & 0xFF);
 8001826:	6e7b      	ldr	r3, [r7, #100]	@ 0x64
 8001828:	f887 3044 	strb.w	r3, [r7, #68]	@ 0x44

  uint8_t SYNTH_CONFIG2 = 0xD0 + (pfd_split << 2);
 800182c:	f897 3076 	ldrb.w	r3, [r7, #118]	@ 0x76
 8001830:	009b      	lsls	r3, r3, #2
 8001832:	b2db      	uxtb	r3, r3
 8001834:	3b30      	subs	r3, #48	@ 0x30
 8001836:	f887 3043 	strb.w	r3, [r7, #67]	@ 0x43

  S2LP_WriteReg(SYNT3_ADDR, SYNT3, NULL);
 800183a:	f897 3047 	ldrb.w	r3, [r7, #71]	@ 0x47
 800183e:	2200      	movs	r2, #0
 8001840:	4619      	mov	r1, r3
 8001842:	2005      	movs	r0, #5
 8001844:	f7ff fca2 	bl	800118c <S2LP_WriteReg>
  S2LP_WriteReg(SYNT2_ADDR, SYNT2, NULL);
 8001848:	f897 3046 	ldrb.w	r3, [r7, #70]	@ 0x46
 800184c:	2200      	movs	r2, #0
 800184e:	4619      	mov	r1, r3
 8001850:	2006      	movs	r0, #6
 8001852:	f7ff fc9b 	bl	800118c <S2LP_WriteReg>
  S2LP_WriteReg(SYNT1_ADDR, SYNT1, NULL);
 8001856:	f897 3045 	ldrb.w	r3, [r7, #69]	@ 0x45
 800185a:	2200      	movs	r2, #0
 800185c:	4619      	mov	r1, r3
 800185e:	2007      	movs	r0, #7
 8001860:	f7ff fc94 	bl	800118c <S2LP_WriteReg>
  S2LP_WriteReg(SYNT0_ADDR, SYNT0, NULL);
 8001864:	f897 3044 	ldrb.w	r3, [r7, #68]	@ 0x44
 8001868:	2200      	movs	r2, #0
 800186a:	4619      	mov	r1, r3
 800186c:	2008      	movs	r0, #8
 800186e:	f7ff fc8d 	bl	800118c <S2LP_WriteReg>
  S2LP_WriteReg(SYNTH_CONFIG2_ADDR, SYNTH_CONFIG2, NULL);
 8001872:	f897 3043 	ldrb.w	r3, [r7, #67]	@ 0x43
 8001876:	2200      	movs	r2, #0
 8001878:	4619      	mov	r1, r3
 800187a:	2065      	movs	r0, #101	@ 0x65
 800187c:	f7ff fc86 	bl	800118c <S2LP_WriteReg>
}
 8001880:	bf00      	nop
 8001882:	3778      	adds	r7, #120	@ 0x78
 8001884:	46bd      	mov	sp, r7
 8001886:	e8bd 8fb0 	ldmia.w	sp!, {r4, r5, r7, r8, r9, sl, fp, pc}
 800188a:	bf00      	nop
 800188c:	f3af 8000 	nop.w
 8001890:	02faf080 	.word	0x02faf080
 8001894:	d693a3ff 	.word	0xd693a3ff
 8001898:	01c9c380 	.word	0x01c9c380
 800189c:	02faf080 	.word	0x02faf080
 80018a0:	00000000 	.word	0x00000000

080018a4 <ComputeDatarate>:

uint32_t ComputeDatarate(uint16_t cM, uint8_t cE)
{
 80018a4:	e92d 0fb0 	stmdb	sp!, {r4, r5, r7, r8, r9, sl, fp}
 80018a8:	b091      	sub	sp, #68	@ 0x44
 80018aa:	af00      	add	r7, sp, #0
 80018ac:	4603      	mov	r3, r0
 80018ae:	460a      	mov	r2, r1
 80018b0:	85fb      	strh	r3, [r7, #46]	@ 0x2e
 80018b2:	4613      	mov	r3, r2
 80018b4:	f887 302d 	strb.w	r3, [r7, #45]	@ 0x2d
  uint32_t f_dig=XTAL_FREQ;
 80018b8:	4b3f      	ldr	r3, [pc, #252]	@ (80019b8 <ComputeDatarate+0x114>)
 80018ba:	63fb      	str	r3, [r7, #60]	@ 0x3c
  uint64_t dr;

  if(f_dig>S2LP_DIG_DOMAIN_XTAL_THRESH) {
 80018bc:	6bfa      	ldr	r2, [r7, #60]	@ 0x3c
 80018be:	4b3f      	ldr	r3, [pc, #252]	@ (80019bc <ComputeDatarate+0x118>)
 80018c0:	429a      	cmp	r2, r3
 80018c2:	d902      	bls.n	80018ca <ComputeDatarate+0x26>
    f_dig >>= 1;
 80018c4:	6bfb      	ldr	r3, [r7, #60]	@ 0x3c
 80018c6:	085b      	lsrs	r3, r3, #1
 80018c8:	63fb      	str	r3, [r7, #60]	@ 0x3c
  }

  if(cE==0) {
 80018ca:	f897 302d 	ldrb.w	r3, [r7, #45]	@ 0x2d
 80018ce:	2b00      	cmp	r3, #0
 80018d0:	d128      	bne.n	8001924 <ComputeDatarate+0x80>
    dr=((uint64_t)f_dig*cM);
 80018d2:	6bfb      	ldr	r3, [r7, #60]	@ 0x3c
 80018d4:	2200      	movs	r2, #0
 80018d6:	61bb      	str	r3, [r7, #24]
 80018d8:	61fa      	str	r2, [r7, #28]
 80018da:	8dfb      	ldrh	r3, [r7, #46]	@ 0x2e
 80018dc:	2200      	movs	r2, #0
 80018de:	613b      	str	r3, [r7, #16]
 80018e0:	617a      	str	r2, [r7, #20]
 80018e2:	e9d7 4506 	ldrd	r4, r5, [r7, #24]
 80018e6:	462b      	mov	r3, r5
 80018e8:	e9d7 8904 	ldrd	r8, r9, [r7, #16]
 80018ec:	4642      	mov	r2, r8
 80018ee:	fb02 f203 	mul.w	r2, r2, r3
 80018f2:	464b      	mov	r3, r9
 80018f4:	4621      	mov	r1, r4
 80018f6:	fb01 f303 	mul.w	r3, r1, r3
 80018fa:	4413      	add	r3, r2
 80018fc:	4622      	mov	r2, r4
 80018fe:	4641      	mov	r1, r8
 8001900:	fba2 ab01 	umull	sl, fp, r2, r1
 8001904:	445b      	add	r3, fp
 8001906:	469b      	mov	fp, r3
 8001908:	e9c7 ab0c 	strd	sl, fp, [r7, #48]	@ 0x30
 800190c:	e9c7 ab0c 	strd	sl, fp, [r7, #48]	@ 0x30
    return (uint32_t)(dr>>32);
 8001910:	e9d7 010c 	ldrd	r0, r1, [r7, #48]	@ 0x30
 8001914:	f04f 0200 	mov.w	r2, #0
 8001918:	f04f 0300 	mov.w	r3, #0
 800191c:	000a      	movs	r2, r1
 800191e:	2300      	movs	r3, #0
 8001920:	4613      	mov	r3, r2
 8001922:	e043      	b.n	80019ac <ComputeDatarate+0x108>
  }

  dr=((uint64_t)f_dig)*((uint64_t)cM+65536);
 8001924:	6bfb      	ldr	r3, [r7, #60]	@ 0x3c
 8001926:	2200      	movs	r2, #0
 8001928:	60bb      	str	r3, [r7, #8]
 800192a:	60fa      	str	r2, [r7, #12]
 800192c:	8dfb      	ldrh	r3, [r7, #46]	@ 0x2e
 800192e:	2200      	movs	r2, #0
 8001930:	603b      	str	r3, [r7, #0]
 8001932:	607a      	str	r2, [r7, #4]
 8001934:	e9d7 1200 	ldrd	r1, r2, [r7]
 8001938:	460b      	mov	r3, r1
 800193a:	f513 3380 	adds.w	r3, r3, #65536	@ 0x10000
 800193e:	623b      	str	r3, [r7, #32]
 8001940:	4613      	mov	r3, r2
 8001942:	f143 0300 	adc.w	r3, r3, #0
 8001946:	627b      	str	r3, [r7, #36]	@ 0x24
 8001948:	e9d7 0102 	ldrd	r0, r1, [r7, #8]
 800194c:	460b      	mov	r3, r1
 800194e:	e9d7 ab08 	ldrd	sl, fp, [r7, #32]
 8001952:	4652      	mov	r2, sl
 8001954:	fb02 f203 	mul.w	r2, r2, r3
 8001958:	e9c7 ab08 	strd	sl, fp, [r7, #32]
 800195c:	465b      	mov	r3, fp
 800195e:	4682      	mov	sl, r0
 8001960:	468b      	mov	fp, r1
 8001962:	4651      	mov	r1, sl
 8001964:	fb01 f303 	mul.w	r3, r1, r3
 8001968:	4413      	add	r3, r2
 800196a:	4652      	mov	r2, sl
 800196c:	6a39      	ldr	r1, [r7, #32]
 800196e:	fba2 4501 	umull	r4, r5, r2, r1
 8001972:	442b      	add	r3, r5
 8001974:	461d      	mov	r5, r3
 8001976:	e9c7 450c 	strd	r4, r5, [r7, #48]	@ 0x30
 800197a:	e9c7 450c 	strd	r4, r5, [r7, #48]	@ 0x30

  return (uint32_t)(dr>>(33-cE));
 800197e:	f897 302d 	ldrb.w	r3, [r7, #45]	@ 0x2d
 8001982:	f1c3 0121 	rsb	r1, r3, #33	@ 0x21
 8001986:	e9d7 230c 	ldrd	r2, r3, [r7, #48]	@ 0x30
 800198a:	f1c1 0420 	rsb	r4, r1, #32
 800198e:	f1a1 0020 	sub.w	r0, r1, #32
 8001992:	fa22 f801 	lsr.w	r8, r2, r1
 8001996:	fa03 f404 	lsl.w	r4, r3, r4
 800199a:	ea48 0804 	orr.w	r8, r8, r4
 800199e:	fa23 f000 	lsr.w	r0, r3, r0
 80019a2:	ea48 0800 	orr.w	r8, r8, r0
 80019a6:	fa23 f901 	lsr.w	r9, r3, r1
 80019aa:	4643      	mov	r3, r8
}
 80019ac:	4618      	mov	r0, r3
 80019ae:	3744      	adds	r7, #68	@ 0x44
 80019b0:	46bd      	mov	sp, r7
 80019b2:	e8bd 0fb0 	ldmia.w	sp!, {r4, r5, r7, r8, r9, sl, fp}
 80019b6:	4770      	bx	lr
 80019b8:	02faf080 	.word	0x02faf080
 80019bc:	01c9c380 	.word	0x01c9c380

080019c0 <SearchDatarateME>:

void SearchDatarateME(uint32_t lDatarate, uint16_t* pcM, uint8_t* pcE)
{
 80019c0:	e92d 4fb0 	stmdb	sp!, {r4, r5, r7, r8, r9, sl, fp, lr}
 80019c4:	b0ae      	sub	sp, #184	@ 0xb8
 80019c6:	af00      	add	r7, sp, #0
 80019c8:	f8c7 008c 	str.w	r0, [r7, #140]	@ 0x8c
 80019cc:	f8c7 1088 	str.w	r1, [r7, #136]	@ 0x88
 80019d0:	f8c7 2084 	str.w	r2, [r7, #132]	@ 0x84
  uint32_t lDatarateTmp, f_dig=XTAL_FREQ;
 80019d4:	4ba5      	ldr	r3, [pc, #660]	@ (8001c6c <SearchDatarateME+0x2ac>)
 80019d6:	f8c7 30b4 	str.w	r3, [r7, #180]	@ 0xb4
  uint8_t uDrE;
  uint64_t tgt1,tgt2,tgt;

  if(f_dig>S2LP_DIG_DOMAIN_XTAL_THRESH) {
 80019da:	f8d7 20b4 	ldr.w	r2, [r7, #180]	@ 0xb4
 80019de:	4ba4      	ldr	r3, [pc, #656]	@ (8001c70 <SearchDatarateME+0x2b0>)
 80019e0:	429a      	cmp	r2, r3
 80019e2:	d904      	bls.n	80019ee <SearchDatarateME+0x2e>
    f_dig >>= 1;
 80019e4:	f8d7 30b4 	ldr.w	r3, [r7, #180]	@ 0xb4
 80019e8:	085b      	lsrs	r3, r3, #1
 80019ea:	f8c7 30b4 	str.w	r3, [r7, #180]	@ 0xb4
  }

  /* Search the exponent value */
  for(uDrE = 0; uDrE != 12; uDrE++) {
 80019ee:	2300      	movs	r3, #0
 80019f0:	f887 30b3 	strb.w	r3, [r7, #179]	@ 0xb3
 80019f4:	e013      	b.n	8001a1e <SearchDatarateME+0x5e>
    lDatarateTmp = ComputeDatarate(0xFFFF, uDrE);
 80019f6:	f897 30b3 	ldrb.w	r3, [r7, #179]	@ 0xb3
 80019fa:	4619      	mov	r1, r3
 80019fc:	f64f 70ff 	movw	r0, #65535	@ 0xffff
 8001a00:	f7ff ff50 	bl	80018a4 <ComputeDatarate>
 8001a04:	f8c7 0094 	str.w	r0, [r7, #148]	@ 0x94
    if(lDatarate<=lDatarateTmp)
 8001a08:	f8d7 208c 	ldr.w	r2, [r7, #140]	@ 0x8c
 8001a0c:	f8d7 3094 	ldr.w	r3, [r7, #148]	@ 0x94
 8001a10:	429a      	cmp	r2, r3
 8001a12:	d909      	bls.n	8001a28 <SearchDatarateME+0x68>
  for(uDrE = 0; uDrE != 12; uDrE++) {
 8001a14:	f897 30b3 	ldrb.w	r3, [r7, #179]	@ 0xb3
 8001a18:	3301      	adds	r3, #1
 8001a1a:	f887 30b3 	strb.w	r3, [r7, #179]	@ 0xb3
 8001a1e:	f897 30b3 	ldrb.w	r3, [r7, #179]	@ 0xb3
 8001a22:	2b0c      	cmp	r3, #12
 8001a24:	d1e7      	bne.n	80019f6 <SearchDatarateME+0x36>
 8001a26:	e000      	b.n	8001a2a <SearchDatarateME+0x6a>
      break;
 8001a28:	bf00      	nop
  }
  (*pcE) = (uint8_t)uDrE;
 8001a2a:	f8d7 2084 	ldr.w	r2, [r7, #132]	@ 0x84
 8001a2e:	f897 30b3 	ldrb.w	r3, [r7, #179]	@ 0xb3
 8001a32:	7013      	strb	r3, [r2, #0]

  if(uDrE==0) {
 8001a34:	f897 30b3 	ldrb.w	r3, [r7, #179]	@ 0xb3
 8001a38:	2b00      	cmp	r3, #0
 8001a3a:	d16b      	bne.n	8001b14 <SearchDatarateME+0x154>
    tgt=((uint64_t)lDatarate)<<32;
 8001a3c:	f8d7 308c 	ldr.w	r3, [r7, #140]	@ 0x8c
 8001a40:	2200      	movs	r2, #0
 8001a42:	663b      	str	r3, [r7, #96]	@ 0x60
 8001a44:	667a      	str	r2, [r7, #100]	@ 0x64
 8001a46:	f04f 0200 	mov.w	r2, #0
 8001a4a:	f04f 0300 	mov.w	r3, #0
 8001a4e:	6e39      	ldr	r1, [r7, #96]	@ 0x60
 8001a50:	000b      	movs	r3, r1
 8001a52:	2200      	movs	r2, #0
 8001a54:	e9c7 2326 	strd	r2, r3, [r7, #152]	@ 0x98
    (*pcM) = (uint16_t)(tgt/f_dig);
 8001a58:	f8d7 30b4 	ldr.w	r3, [r7, #180]	@ 0xb4
 8001a5c:	2200      	movs	r2, #0
 8001a5e:	65bb      	str	r3, [r7, #88]	@ 0x58
 8001a60:	65fa      	str	r2, [r7, #92]	@ 0x5c
 8001a62:	e9d7 2316 	ldrd	r2, r3, [r7, #88]	@ 0x58
 8001a66:	e9d7 0126 	ldrd	r0, r1, [r7, #152]	@ 0x98
 8001a6a:	f7fe fc11 	bl	8000290 <__aeabi_uldivmod>
 8001a6e:	4602      	mov	r2, r0
 8001a70:	460b      	mov	r3, r1
 8001a72:	b293      	uxth	r3, r2
 8001a74:	f8d7 2088 	ldr.w	r2, [r7, #136]	@ 0x88
 8001a78:	8013      	strh	r3, [r2, #0]
    tgt1=(uint64_t)f_dig*(*pcM);
 8001a7a:	f8d7 30b4 	ldr.w	r3, [r7, #180]	@ 0xb4
 8001a7e:	2200      	movs	r2, #0
 8001a80:	653b      	str	r3, [r7, #80]	@ 0x50
 8001a82:	657a      	str	r2, [r7, #84]	@ 0x54
 8001a84:	f8d7 3088 	ldr.w	r3, [r7, #136]	@ 0x88
 8001a88:	881b      	ldrh	r3, [r3, #0]
 8001a8a:	b29b      	uxth	r3, r3
 8001a8c:	2200      	movs	r2, #0
 8001a8e:	64bb      	str	r3, [r7, #72]	@ 0x48
 8001a90:	64fa      	str	r2, [r7, #76]	@ 0x4c
 8001a92:	e9d7 4514 	ldrd	r4, r5, [r7, #80]	@ 0x50
 8001a96:	462b      	mov	r3, r5
 8001a98:	e9d7 8912 	ldrd	r8, r9, [r7, #72]	@ 0x48
 8001a9c:	4642      	mov	r2, r8
 8001a9e:	fb02 f203 	mul.w	r2, r2, r3
 8001aa2:	464b      	mov	r3, r9
 8001aa4:	4621      	mov	r1, r4
 8001aa6:	fb01 f303 	mul.w	r3, r1, r3
 8001aaa:	4413      	add	r3, r2
 8001aac:	4622      	mov	r2, r4
 8001aae:	4641      	mov	r1, r8
 8001ab0:	fba2 1201 	umull	r1, r2, r2, r1
 8001ab4:	67fa      	str	r2, [r7, #124]	@ 0x7c
 8001ab6:	460a      	mov	r2, r1
 8001ab8:	67ba      	str	r2, [r7, #120]	@ 0x78
 8001aba:	6ffa      	ldr	r2, [r7, #124]	@ 0x7c
 8001abc:	4413      	add	r3, r2
 8001abe:	67fb      	str	r3, [r7, #124]	@ 0x7c
 8001ac0:	e9d7 341e 	ldrd	r3, r4, [r7, #120]	@ 0x78
 8001ac4:	e9c7 342a 	strd	r3, r4, [r7, #168]	@ 0xa8
 8001ac8:	e9c7 342a 	strd	r3, r4, [r7, #168]	@ 0xa8
    tgt2=(uint64_t)f_dig*((*pcM)+1);
 8001acc:	f8d7 30b4 	ldr.w	r3, [r7, #180]	@ 0xb4
 8001ad0:	2200      	movs	r2, #0
 8001ad2:	643b      	str	r3, [r7, #64]	@ 0x40
 8001ad4:	647a      	str	r2, [r7, #68]	@ 0x44
 8001ad6:	f8d7 3088 	ldr.w	r3, [r7, #136]	@ 0x88
 8001ada:	881b      	ldrh	r3, [r3, #0]
 8001adc:	3301      	adds	r3, #1
 8001ade:	17da      	asrs	r2, r3, #31
 8001ae0:	63bb      	str	r3, [r7, #56]	@ 0x38
 8001ae2:	63fa      	str	r2, [r7, #60]	@ 0x3c
 8001ae4:	e9d7 4510 	ldrd	r4, r5, [r7, #64]	@ 0x40
 8001ae8:	462b      	mov	r3, r5
 8001aea:	e9d7 890e 	ldrd	r8, r9, [r7, #56]	@ 0x38
 8001aee:	4642      	mov	r2, r8
 8001af0:	fb02 f203 	mul.w	r2, r2, r3
 8001af4:	464b      	mov	r3, r9
 8001af6:	4621      	mov	r1, r4
 8001af8:	fb01 f303 	mul.w	r3, r1, r3
 8001afc:	4413      	add	r3, r2
 8001afe:	4622      	mov	r2, r4
 8001b00:	4641      	mov	r1, r8
 8001b02:	fba2 ab01 	umull	sl, fp, r2, r1
 8001b06:	445b      	add	r3, fp
 8001b08:	469b      	mov	fp, r3
 8001b0a:	e9c7 ab28 	strd	sl, fp, [r7, #160]	@ 0xa0
 8001b0e:	e9c7 ab28 	strd	sl, fp, [r7, #160]	@ 0xa0
 8001b12:	e07d      	b.n	8001c10 <SearchDatarateME+0x250>
  }
  else {
    tgt=((uint64_t)lDatarate)<<(33-uDrE);
 8001b14:	f8d7 308c 	ldr.w	r3, [r7, #140]	@ 0x8c
 8001b18:	2200      	movs	r2, #0
 8001b1a:	4698      	mov	r8, r3
 8001b1c:	4691      	mov	r9, r2
 8001b1e:	f897 30b3 	ldrb.w	r3, [r7, #179]	@ 0xb3
 8001b22:	f1c3 0121 	rsb	r1, r3, #33	@ 0x21
 8001b26:	f1a1 0320 	sub.w	r3, r1, #32
 8001b2a:	f1c1 0220 	rsb	r2, r1, #32
 8001b2e:	fa09 f501 	lsl.w	r5, r9, r1
 8001b32:	fa08 f303 	lsl.w	r3, r8, r3
 8001b36:	431d      	orrs	r5, r3
 8001b38:	fa28 f202 	lsr.w	r2, r8, r2
 8001b3c:	4315      	orrs	r5, r2
 8001b3e:	fa08 f401 	lsl.w	r4, r8, r1
 8001b42:	e9c7 4526 	strd	r4, r5, [r7, #152]	@ 0x98
    (*pcM) = (uint16_t)((tgt/f_dig)-65536);
 8001b46:	f8d7 30b4 	ldr.w	r3, [r7, #180]	@ 0xb4
 8001b4a:	2200      	movs	r2, #0
 8001b4c:	633b      	str	r3, [r7, #48]	@ 0x30
 8001b4e:	637a      	str	r2, [r7, #52]	@ 0x34
 8001b50:	e9d7 230c 	ldrd	r2, r3, [r7, #48]	@ 0x30
 8001b54:	e9d7 0126 	ldrd	r0, r1, [r7, #152]	@ 0x98
 8001b58:	f7fe fb9a 	bl	8000290 <__aeabi_uldivmod>
 8001b5c:	4602      	mov	r2, r0
 8001b5e:	460b      	mov	r3, r1
 8001b60:	b293      	uxth	r3, r2
 8001b62:	f8d7 2088 	ldr.w	r2, [r7, #136]	@ 0x88
 8001b66:	8013      	strh	r3, [r2, #0]
    tgt1=(uint64_t)f_dig*((*pcM)+65536);
 8001b68:	f8d7 30b4 	ldr.w	r3, [r7, #180]	@ 0xb4
 8001b6c:	2200      	movs	r2, #0
 8001b6e:	62bb      	str	r3, [r7, #40]	@ 0x28
 8001b70:	62fa      	str	r2, [r7, #44]	@ 0x2c
 8001b72:	f8d7 3088 	ldr.w	r3, [r7, #136]	@ 0x88
 8001b76:	881b      	ldrh	r3, [r3, #0]
 8001b78:	f503 3380 	add.w	r3, r3, #65536	@ 0x10000
 8001b7c:	17da      	asrs	r2, r3, #31
 8001b7e:	623b      	str	r3, [r7, #32]
 8001b80:	627a      	str	r2, [r7, #36]	@ 0x24
 8001b82:	e9d7 450a 	ldrd	r4, r5, [r7, #40]	@ 0x28
 8001b86:	462b      	mov	r3, r5
 8001b88:	e9d7 8908 	ldrd	r8, r9, [r7, #32]
 8001b8c:	4642      	mov	r2, r8
 8001b8e:	fb02 f203 	mul.w	r2, r2, r3
 8001b92:	464b      	mov	r3, r9
 8001b94:	4621      	mov	r1, r4
 8001b96:	fb01 f303 	mul.w	r3, r1, r3
 8001b9a:	4413      	add	r3, r2
 8001b9c:	4622      	mov	r2, r4
 8001b9e:	4641      	mov	r1, r8
 8001ba0:	fba2 1201 	umull	r1, r2, r2, r1
 8001ba4:	677a      	str	r2, [r7, #116]	@ 0x74
 8001ba6:	460a      	mov	r2, r1
 8001ba8:	673a      	str	r2, [r7, #112]	@ 0x70
 8001baa:	6f7a      	ldr	r2, [r7, #116]	@ 0x74
 8001bac:	4413      	add	r3, r2
 8001bae:	677b      	str	r3, [r7, #116]	@ 0x74
 8001bb0:	e9d7 341c 	ldrd	r3, r4, [r7, #112]	@ 0x70
 8001bb4:	e9c7 342a 	strd	r3, r4, [r7, #168]	@ 0xa8
 8001bb8:	e9c7 342a 	strd	r3, r4, [r7, #168]	@ 0xa8
    tgt2=(uint64_t)f_dig*((*pcM)+1+65536);
 8001bbc:	f8d7 30b4 	ldr.w	r3, [r7, #180]	@ 0xb4
 8001bc0:	2200      	movs	r2, #0
 8001bc2:	61bb      	str	r3, [r7, #24]
 8001bc4:	61fa      	str	r2, [r7, #28]
 8001bc6:	f8d7 3088 	ldr.w	r3, [r7, #136]	@ 0x88
 8001bca:	881b      	ldrh	r3, [r3, #0]
 8001bcc:	f103 1301 	add.w	r3, r3, #65537	@ 0x10001
 8001bd0:	17da      	asrs	r2, r3, #31
 8001bd2:	613b      	str	r3, [r7, #16]
 8001bd4:	617a      	str	r2, [r7, #20]
 8001bd6:	e9d7 4506 	ldrd	r4, r5, [r7, #24]
 8001bda:	462b      	mov	r3, r5
 8001bdc:	e9d7 8904 	ldrd	r8, r9, [r7, #16]
 8001be0:	4642      	mov	r2, r8
 8001be2:	fb02 f203 	mul.w	r2, r2, r3
 8001be6:	464b      	mov	r3, r9
 8001be8:	4621      	mov	r1, r4
 8001bea:	fb01 f303 	mul.w	r3, r1, r3
 8001bee:	4413      	add	r3, r2
 8001bf0:	4622      	mov	r2, r4
 8001bf2:	4641      	mov	r1, r8
 8001bf4:	fba2 1201 	umull	r1, r2, r2, r1
 8001bf8:	66fa      	str	r2, [r7, #108]	@ 0x6c
 8001bfa:	460a      	mov	r2, r1
 8001bfc:	66ba      	str	r2, [r7, #104]	@ 0x68
 8001bfe:	6efa      	ldr	r2, [r7, #108]	@ 0x6c
 8001c00:	4413      	add	r3, r2
 8001c02:	66fb      	str	r3, [r7, #108]	@ 0x6c
 8001c04:	e9d7 341a 	ldrd	r3, r4, [r7, #104]	@ 0x68
 8001c08:	e9c7 3428 	strd	r3, r4, [r7, #160]	@ 0xa0
 8001c0c:	e9c7 3428 	strd	r3, r4, [r7, #160]	@ 0xa0
  }


  (*pcM)=((tgt2-tgt)<(tgt-tgt1))?((*pcM)+1):(*pcM);
 8001c10:	e9d7 0128 	ldrd	r0, r1, [r7, #160]	@ 0xa0
 8001c14:	e9d7 2326 	ldrd	r2, r3, [r7, #152]	@ 0x98
 8001c18:	1a84      	subs	r4, r0, r2
 8001c1a:	60bc      	str	r4, [r7, #8]
 8001c1c:	eb61 0303 	sbc.w	r3, r1, r3
 8001c20:	60fb      	str	r3, [r7, #12]
 8001c22:	e9d7 0126 	ldrd	r0, r1, [r7, #152]	@ 0x98
 8001c26:	e9d7 232a 	ldrd	r2, r3, [r7, #168]	@ 0xa8
 8001c2a:	1a84      	subs	r4, r0, r2
 8001c2c:	603c      	str	r4, [r7, #0]
 8001c2e:	eb61 0303 	sbc.w	r3, r1, r3
 8001c32:	607b      	str	r3, [r7, #4]
 8001c34:	e9d7 4502 	ldrd	r4, r5, [r7, #8]
 8001c38:	4623      	mov	r3, r4
 8001c3a:	e9d7 0100 	ldrd	r0, r1, [r7]
 8001c3e:	4602      	mov	r2, r0
 8001c40:	4293      	cmp	r3, r2
 8001c42:	462b      	mov	r3, r5
 8001c44:	460a      	mov	r2, r1
 8001c46:	4193      	sbcs	r3, r2
 8001c48:	d205      	bcs.n	8001c56 <SearchDatarateME+0x296>
 8001c4a:	f8d7 3088 	ldr.w	r3, [r7, #136]	@ 0x88
 8001c4e:	881b      	ldrh	r3, [r3, #0]
 8001c50:	3301      	adds	r3, #1
 8001c52:	b29b      	uxth	r3, r3
 8001c54:	e002      	b.n	8001c5c <SearchDatarateME+0x29c>
 8001c56:	f8d7 3088 	ldr.w	r3, [r7, #136]	@ 0x88
 8001c5a:	881b      	ldrh	r3, [r3, #0]
 8001c5c:	f8d7 2088 	ldr.w	r2, [r7, #136]	@ 0x88
 8001c60:	8013      	strh	r3, [r2, #0]

}
 8001c62:	bf00      	nop
 8001c64:	37b8      	adds	r7, #184	@ 0xb8
 8001c66:	46bd      	mov	sp, r7
 8001c68:	e8bd 8fb0 	ldmia.w	sp!, {r4, r5, r7, r8, r9, sl, fp, pc}
 8001c6c:	02faf080 	.word	0x02faf080
 8001c70:	01c9c380 	.word	0x01c9c380

08001c74 <ComputeFreqDeviation>:

uint32_t ComputeFreqDeviation(uint8_t cM, uint8_t cE, uint8_t bs, uint8_t refdiv)
{
 8001c74:	e92d 0ff0 	stmdb	sp!, {r4, r5, r6, r7, r8, r9, sl, fp}
 8001c78:	b08c      	sub	sp, #48	@ 0x30
 8001c7a:	af00      	add	r7, sp, #0
 8001c7c:	461e      	mov	r6, r3
 8001c7e:	4603      	mov	r3, r0
 8001c80:	f887 3027 	strb.w	r3, [r7, #39]	@ 0x27
 8001c84:	460b      	mov	r3, r1
 8001c86:	f887 3026 	strb.w	r3, [r7, #38]	@ 0x26
 8001c8a:	4613      	mov	r3, r2
 8001c8c:	f887 3025 	strb.w	r3, [r7, #37]	@ 0x25
 8001c90:	4633      	mov	r3, r6
 8001c92:	f887 3024 	strb.w	r3, [r7, #36]	@ 0x24
  uint32_t f_xo=XTAL_FREQ;
 8001c96:	4b35      	ldr	r3, [pc, #212]	@ (8001d6c <ComputeFreqDeviation+0xf8>)
 8001c98:	62fb      	str	r3, [r7, #44]	@ 0x2c

  if(cE==0) {
 8001c9a:	f897 3026 	ldrb.w	r3, [r7, #38]	@ 0x26
 8001c9e:	2b00      	cmp	r3, #0
 8001ca0:	d127      	bne.n	8001cf2 <ComputeFreqDeviation+0x7e>
    return (uint32_t)(((uint64_t)f_xo*cM)>>22);
 8001ca2:	6afb      	ldr	r3, [r7, #44]	@ 0x2c
 8001ca4:	2200      	movs	r2, #0
 8001ca6:	613b      	str	r3, [r7, #16]
 8001ca8:	617a      	str	r2, [r7, #20]
 8001caa:	f897 3027 	ldrb.w	r3, [r7, #39]	@ 0x27
 8001cae:	2200      	movs	r2, #0
 8001cb0:	60bb      	str	r3, [r7, #8]
 8001cb2:	60fa      	str	r2, [r7, #12]
 8001cb4:	e9d7 4504 	ldrd	r4, r5, [r7, #16]
 8001cb8:	462b      	mov	r3, r5
 8001cba:	e9d7 8902 	ldrd	r8, r9, [r7, #8]
 8001cbe:	4642      	mov	r2, r8
 8001cc0:	fb02 f203 	mul.w	r2, r2, r3
 8001cc4:	464b      	mov	r3, r9
 8001cc6:	4621      	mov	r1, r4
 8001cc8:	fb01 f303 	mul.w	r3, r1, r3
 8001ccc:	4413      	add	r3, r2
 8001cce:	4622      	mov	r2, r4
 8001cd0:	4641      	mov	r1, r8
 8001cd2:	fba2 ab01 	umull	sl, fp, r2, r1
 8001cd6:	445b      	add	r3, fp
 8001cd8:	469b      	mov	fp, r3
 8001cda:	f04f 0200 	mov.w	r2, #0
 8001cde:	f04f 0300 	mov.w	r3, #0
 8001ce2:	ea4f 529a 	mov.w	r2, sl, lsr #22
 8001ce6:	ea42 228b 	orr.w	r2, r2, fp, lsl #10
 8001cea:	ea4f 539b 	mov.w	r3, fp, lsr #22
 8001cee:	4613      	mov	r3, r2
 8001cf0:	e036      	b.n	8001d60 <ComputeFreqDeviation+0xec>
  }

  return (uint32_t)(((uint64_t)f_xo*(256+cM))>>(23-cE));
 8001cf2:	6afb      	ldr	r3, [r7, #44]	@ 0x2c
 8001cf4:	2200      	movs	r2, #0
 8001cf6:	603b      	str	r3, [r7, #0]
 8001cf8:	607a      	str	r2, [r7, #4]
 8001cfa:	f897 3027 	ldrb.w	r3, [r7, #39]	@ 0x27
 8001cfe:	f503 7380 	add.w	r3, r3, #256	@ 0x100
 8001d02:	17da      	asrs	r2, r3, #31
 8001d04:	61bb      	str	r3, [r7, #24]
 8001d06:	61fa      	str	r2, [r7, #28]
 8001d08:	e9d7 0100 	ldrd	r0, r1, [r7]
 8001d0c:	460b      	mov	r3, r1
 8001d0e:	e9d7 ab06 	ldrd	sl, fp, [r7, #24]
 8001d12:	4652      	mov	r2, sl
 8001d14:	fb02 f203 	mul.w	r2, r2, r3
 8001d18:	e9c7 ab06 	strd	sl, fp, [r7, #24]
 8001d1c:	465b      	mov	r3, fp
 8001d1e:	4682      	mov	sl, r0
 8001d20:	468b      	mov	fp, r1
 8001d22:	4651      	mov	r1, sl
 8001d24:	fb01 f303 	mul.w	r3, r1, r3
 8001d28:	4413      	add	r3, r2
 8001d2a:	4652      	mov	r2, sl
 8001d2c:	69b9      	ldr	r1, [r7, #24]
 8001d2e:	fba2 4501 	umull	r4, r5, r2, r1
 8001d32:	442b      	add	r3, r5
 8001d34:	461d      	mov	r5, r3
 8001d36:	f897 3026 	ldrb.w	r3, [r7, #38]	@ 0x26
 8001d3a:	f1c3 0317 	rsb	r3, r3, #23
 8001d3e:	f1c3 0120 	rsb	r1, r3, #32
 8001d42:	f1a3 0220 	sub.w	r2, r3, #32
 8001d46:	fa24 f803 	lsr.w	r8, r4, r3
 8001d4a:	fa05 f101 	lsl.w	r1, r5, r1
 8001d4e:	ea48 0801 	orr.w	r8, r8, r1
 8001d52:	fa25 f202 	lsr.w	r2, r5, r2
 8001d56:	ea48 0802 	orr.w	r8, r8, r2
 8001d5a:	fa25 f903 	lsr.w	r9, r5, r3
 8001d5e:	4643      	mov	r3, r8
}
 8001d60:	4618      	mov	r0, r3
 8001d62:	3730      	adds	r7, #48	@ 0x30
 8001d64:	46bd      	mov	sp, r7
 8001d66:	e8bd 0ff0 	ldmia.w	sp!, {r4, r5, r6, r7, r8, r9, sl, fp}
 8001d6a:	4770      	bx	lr
 8001d6c:	02faf080 	.word	0x02faf080

08001d70 <SearchFreqDevME>:

void SearchFreqDevME(uint32_t lFDev, uint8_t* pcM, uint8_t* pcE)
{
 8001d70:	e92d 4fb0 	stmdb	sp!, {r4, r5, r7, r8, r9, sl, fp, lr}
 8001d74:	b0a2      	sub	sp, #136	@ 0x88
 8001d76:	af00      	add	r7, sp, #0
 8001d78:	65f8      	str	r0, [r7, #92]	@ 0x5c
 8001d7a:	65b9      	str	r1, [r7, #88]	@ 0x58
 8001d7c:	657a      	str	r2, [r7, #84]	@ 0x54
  uint8_t uFDevE, bs = 4, refdiv = 1;
 8001d7e:	2304      	movs	r3, #4
 8001d80:	f887 3067 	strb.w	r3, [r7, #103]	@ 0x67
 8001d84:	2301      	movs	r3, #1
 8001d86:	f887 3066 	strb.w	r3, [r7, #102]	@ 0x66
  uint32_t lFDevTmp;
  uint64_t tgt1,tgt2,tgt;

  /* Search the exponent of the frequency deviation value */
  for(uFDevE = 0; uFDevE != 12; uFDevE++) {
 8001d8a:	2300      	movs	r3, #0
 8001d8c:	f887 3087 	strb.w	r3, [r7, #135]	@ 0x87
 8001d90:	e012      	b.n	8001db8 <SearchFreqDevME+0x48>
    lFDevTmp = ComputeFreqDeviation(255, uFDevE, bs, refdiv);
 8001d92:	f897 3066 	ldrb.w	r3, [r7, #102]	@ 0x66
 8001d96:	f897 2067 	ldrb.w	r2, [r7, #103]	@ 0x67
 8001d9a:	f897 1087 	ldrb.w	r1, [r7, #135]	@ 0x87
 8001d9e:	20ff      	movs	r0, #255	@ 0xff
 8001da0:	f7ff ff68 	bl	8001c74 <ComputeFreqDeviation>
 8001da4:	6638      	str	r0, [r7, #96]	@ 0x60
    if(lFDev<lFDevTmp)
 8001da6:	6dfa      	ldr	r2, [r7, #92]	@ 0x5c
 8001da8:	6e3b      	ldr	r3, [r7, #96]	@ 0x60
 8001daa:	429a      	cmp	r2, r3
 8001dac:	d309      	bcc.n	8001dc2 <SearchFreqDevME+0x52>
  for(uFDevE = 0; uFDevE != 12; uFDevE++) {
 8001dae:	f897 3087 	ldrb.w	r3, [r7, #135]	@ 0x87
 8001db2:	3301      	adds	r3, #1
 8001db4:	f887 3087 	strb.w	r3, [r7, #135]	@ 0x87
 8001db8:	f897 3087 	ldrb.w	r3, [r7, #135]	@ 0x87
 8001dbc:	2b0c      	cmp	r3, #12
 8001dbe:	d1e8      	bne.n	8001d92 <SearchFreqDevME+0x22>
 8001dc0:	e000      	b.n	8001dc4 <SearchFreqDevME+0x54>
      break;
 8001dc2:	bf00      	nop
  }
  (*pcE) = (uint8_t)uFDevE;
 8001dc4:	6d7a      	ldr	r2, [r7, #84]	@ 0x54
 8001dc6:	f897 3087 	ldrb.w	r3, [r7, #135]	@ 0x87
 8001dca:	7013      	strb	r3, [r2, #0]

  if(uFDevE==0)
 8001dcc:	f897 3087 	ldrb.w	r3, [r7, #135]	@ 0x87
 8001dd0:	2b00      	cmp	r3, #0
 8001dd2:	d155      	bne.n	8001e80 <SearchFreqDevME+0x110>
  {
    tgt=((uint64_t)lFDev)<<22;
 8001dd4:	6dfb      	ldr	r3, [r7, #92]	@ 0x5c
 8001dd6:	2200      	movs	r2, #0
 8001dd8:	63bb      	str	r3, [r7, #56]	@ 0x38
 8001dda:	63fa      	str	r2, [r7, #60]	@ 0x3c
 8001ddc:	f04f 0200 	mov.w	r2, #0
 8001de0:	f04f 0300 	mov.w	r3, #0
 8001de4:	e9d7 450e 	ldrd	r4, r5, [r7, #56]	@ 0x38
 8001de8:	4629      	mov	r1, r5
 8001dea:	058b      	lsls	r3, r1, #22
 8001dec:	4621      	mov	r1, r4
 8001dee:	ea43 2391 	orr.w	r3, r3, r1, lsr #10
 8001df2:	4621      	mov	r1, r4
 8001df4:	058a      	lsls	r2, r1, #22
 8001df6:	e9c7 231a 	strd	r2, r3, [r7, #104]	@ 0x68
    (*pcM)=(uint32_t)(tgt/XTAL_FREQ);
 8001dfa:	e9d7 011a 	ldrd	r0, r1, [r7, #104]	@ 0x68
 8001dfe:	a36e      	add	r3, pc, #440	@ (adr r3, 8001fb8 <SearchFreqDevME+0x248>)
 8001e00:	e9d3 2300 	ldrd	r2, r3, [r3]
 8001e04:	f7fe fa44 	bl	8000290 <__aeabi_uldivmod>
 8001e08:	4602      	mov	r2, r0
 8001e0a:	460b      	mov	r3, r1
 8001e0c:	b2d3      	uxtb	r3, r2
 8001e0e:	6dba      	ldr	r2, [r7, #88]	@ 0x58
 8001e10:	7013      	strb	r3, [r2, #0]
    tgt1=(uint64_t)XTAL_FREQ*(*pcM);
 8001e12:	6dbb      	ldr	r3, [r7, #88]	@ 0x58
 8001e14:	781b      	ldrb	r3, [r3, #0]
 8001e16:	b2db      	uxtb	r3, r3
 8001e18:	2200      	movs	r2, #0
 8001e1a:	633b      	str	r3, [r7, #48]	@ 0x30
 8001e1c:	637a      	str	r2, [r7, #52]	@ 0x34
 8001e1e:	4b68      	ldr	r3, [pc, #416]	@ (8001fc0 <SearchFreqDevME+0x250>)
 8001e20:	e9d7 450c 	ldrd	r4, r5, [r7, #48]	@ 0x30
 8001e24:	462a      	mov	r2, r5
 8001e26:	fb03 f202 	mul.w	r2, r3, r2
 8001e2a:	2300      	movs	r3, #0
 8001e2c:	4621      	mov	r1, r4
 8001e2e:	fb01 f303 	mul.w	r3, r1, r3
 8001e32:	4413      	add	r3, r2
 8001e34:	4a62      	ldr	r2, [pc, #392]	@ (8001fc0 <SearchFreqDevME+0x250>)
 8001e36:	4621      	mov	r1, r4
 8001e38:	fba1 ab02 	umull	sl, fp, r1, r2
 8001e3c:	445b      	add	r3, fp
 8001e3e:	469b      	mov	fp, r3
 8001e40:	e9c7 ab1e 	strd	sl, fp, [r7, #120]	@ 0x78
 8001e44:	e9c7 ab1e 	strd	sl, fp, [r7, #120]	@ 0x78
    tgt2=(uint64_t)XTAL_FREQ*((*pcM)+1);
 8001e48:	6dbb      	ldr	r3, [r7, #88]	@ 0x58
 8001e4a:	781b      	ldrb	r3, [r3, #0]
 8001e4c:	3301      	adds	r3, #1
 8001e4e:	17da      	asrs	r2, r3, #31
 8001e50:	62bb      	str	r3, [r7, #40]	@ 0x28
 8001e52:	62fa      	str	r2, [r7, #44]	@ 0x2c
 8001e54:	4b5a      	ldr	r3, [pc, #360]	@ (8001fc0 <SearchFreqDevME+0x250>)
 8001e56:	e9d7 450a 	ldrd	r4, r5, [r7, #40]	@ 0x28
 8001e5a:	462a      	mov	r2, r5
 8001e5c:	fb03 f202 	mul.w	r2, r3, r2
 8001e60:	2300      	movs	r3, #0
 8001e62:	4621      	mov	r1, r4
 8001e64:	fb01 f303 	mul.w	r3, r1, r3
 8001e68:	4413      	add	r3, r2
 8001e6a:	4a55      	ldr	r2, [pc, #340]	@ (8001fc0 <SearchFreqDevME+0x250>)
 8001e6c:	4621      	mov	r1, r4
 8001e6e:	fba1 8902 	umull	r8, r9, r1, r2
 8001e72:	444b      	add	r3, r9
 8001e74:	4699      	mov	r9, r3
 8001e76:	e9c7 891c 	strd	r8, r9, [r7, #112]	@ 0x70
 8001e7a:	e9c7 891c 	strd	r8, r9, [r7, #112]	@ 0x70
 8001e7e:	e06d      	b.n	8001f5c <SearchFreqDevME+0x1ec>
  }
  else
  {
    tgt=((uint64_t)lFDev)<<(23-uFDevE);
 8001e80:	6dfb      	ldr	r3, [r7, #92]	@ 0x5c
 8001e82:	2200      	movs	r2, #0
 8001e84:	623b      	str	r3, [r7, #32]
 8001e86:	627a      	str	r2, [r7, #36]	@ 0x24
 8001e88:	f897 3087 	ldrb.w	r3, [r7, #135]	@ 0x87
 8001e8c:	f1c3 0117 	rsb	r1, r3, #23
 8001e90:	f1a1 0320 	sub.w	r3, r1, #32
 8001e94:	f1c1 0220 	rsb	r2, r1, #32
 8001e98:	e9d7 8908 	ldrd	r8, r9, [r7, #32]
 8001e9c:	4648      	mov	r0, r9
 8001e9e:	fa00 f501 	lsl.w	r5, r0, r1
 8001ea2:	4640      	mov	r0, r8
 8001ea4:	fa00 f303 	lsl.w	r3, r0, r3
 8001ea8:	431d      	orrs	r5, r3
 8001eaa:	4643      	mov	r3, r8
 8001eac:	fa23 f202 	lsr.w	r2, r3, r2
 8001eb0:	4315      	orrs	r5, r2
 8001eb2:	4643      	mov	r3, r8
 8001eb4:	408b      	lsls	r3, r1
 8001eb6:	461c      	mov	r4, r3
 8001eb8:	e9c7 451a 	strd	r4, r5, [r7, #104]	@ 0x68
    (*pcM)=(uint32_t)(tgt/XTAL_FREQ)-256;
 8001ebc:	e9d7 011a 	ldrd	r0, r1, [r7, #104]	@ 0x68
 8001ec0:	a33d      	add	r3, pc, #244	@ (adr r3, 8001fb8 <SearchFreqDevME+0x248>)
 8001ec2:	e9d3 2300 	ldrd	r2, r3, [r3]
 8001ec6:	f7fe f9e3 	bl	8000290 <__aeabi_uldivmod>
 8001eca:	4602      	mov	r2, r0
 8001ecc:	460b      	mov	r3, r1
 8001ece:	b2d3      	uxtb	r3, r2
 8001ed0:	6dba      	ldr	r2, [r7, #88]	@ 0x58
 8001ed2:	7013      	strb	r3, [r2, #0]
    tgt1=(uint64_t)XTAL_FREQ*((*pcM)+256);
 8001ed4:	6dbb      	ldr	r3, [r7, #88]	@ 0x58
 8001ed6:	781b      	ldrb	r3, [r3, #0]
 8001ed8:	f503 7380 	add.w	r3, r3, #256	@ 0x100
 8001edc:	17da      	asrs	r2, r3, #31
 8001ede:	61bb      	str	r3, [r7, #24]
 8001ee0:	61fa      	str	r2, [r7, #28]
 8001ee2:	4b37      	ldr	r3, [pc, #220]	@ (8001fc0 <SearchFreqDevME+0x250>)
 8001ee4:	e9d7 4506 	ldrd	r4, r5, [r7, #24]
 8001ee8:	462a      	mov	r2, r5
 8001eea:	fb03 f202 	mul.w	r2, r3, r2
 8001eee:	2300      	movs	r3, #0
 8001ef0:	4621      	mov	r1, r4
 8001ef2:	fb01 f303 	mul.w	r3, r1, r3
 8001ef6:	4413      	add	r3, r2
 8001ef8:	4a31      	ldr	r2, [pc, #196]	@ (8001fc0 <SearchFreqDevME+0x250>)
 8001efa:	4621      	mov	r1, r4
 8001efc:	fba1 1202 	umull	r1, r2, r1, r2
 8001f00:	64fa      	str	r2, [r7, #76]	@ 0x4c
 8001f02:	460a      	mov	r2, r1
 8001f04:	64ba      	str	r2, [r7, #72]	@ 0x48
 8001f06:	6cfa      	ldr	r2, [r7, #76]	@ 0x4c
 8001f08:	4413      	add	r3, r2
 8001f0a:	64fb      	str	r3, [r7, #76]	@ 0x4c
 8001f0c:	e9d7 3412 	ldrd	r3, r4, [r7, #72]	@ 0x48
 8001f10:	e9c7 341e 	strd	r3, r4, [r7, #120]	@ 0x78
 8001f14:	e9c7 341e 	strd	r3, r4, [r7, #120]	@ 0x78
    tgt2=(uint64_t)XTAL_FREQ*((*pcM)+1+256);
 8001f18:	6dbb      	ldr	r3, [r7, #88]	@ 0x58
 8001f1a:	781b      	ldrb	r3, [r3, #0]
 8001f1c:	f203 1301 	addw	r3, r3, #257	@ 0x101
 8001f20:	17da      	asrs	r2, r3, #31
 8001f22:	613b      	str	r3, [r7, #16]
 8001f24:	617a      	str	r2, [r7, #20]
 8001f26:	4b26      	ldr	r3, [pc, #152]	@ (8001fc0 <SearchFreqDevME+0x250>)
 8001f28:	e9d7 4504 	ldrd	r4, r5, [r7, #16]
 8001f2c:	462a      	mov	r2, r5
 8001f2e:	fb03 f202 	mul.w	r2, r3, r2
 8001f32:	2300      	movs	r3, #0
 8001f34:	4621      	mov	r1, r4
 8001f36:	fb01 f303 	mul.w	r3, r1, r3
 8001f3a:	4413      	add	r3, r2
 8001f3c:	4a20      	ldr	r2, [pc, #128]	@ (8001fc0 <SearchFreqDevME+0x250>)
 8001f3e:	4621      	mov	r1, r4
 8001f40:	fba1 1202 	umull	r1, r2, r1, r2
 8001f44:	647a      	str	r2, [r7, #68]	@ 0x44
 8001f46:	460a      	mov	r2, r1
 8001f48:	643a      	str	r2, [r7, #64]	@ 0x40
 8001f4a:	6c7a      	ldr	r2, [r7, #68]	@ 0x44
 8001f4c:	4413      	add	r3, r2
 8001f4e:	647b      	str	r3, [r7, #68]	@ 0x44
 8001f50:	e9d7 3410 	ldrd	r3, r4, [r7, #64]	@ 0x40
 8001f54:	e9c7 341c 	strd	r3, r4, [r7, #112]	@ 0x70
 8001f58:	e9c7 341c 	strd	r3, r4, [r7, #112]	@ 0x70
  }

  (*pcM)=((tgt2-tgt)<(tgt-tgt1))?((*pcM)+1):(*pcM);
 8001f5c:	e9d7 011c 	ldrd	r0, r1, [r7, #112]	@ 0x70
 8001f60:	e9d7 231a 	ldrd	r2, r3, [r7, #104]	@ 0x68
 8001f64:	1a84      	subs	r4, r0, r2
 8001f66:	60bc      	str	r4, [r7, #8]
 8001f68:	eb61 0303 	sbc.w	r3, r1, r3
 8001f6c:	60fb      	str	r3, [r7, #12]
 8001f6e:	e9d7 011a 	ldrd	r0, r1, [r7, #104]	@ 0x68
 8001f72:	e9d7 231e 	ldrd	r2, r3, [r7, #120]	@ 0x78
 8001f76:	1a84      	subs	r4, r0, r2
 8001f78:	603c      	str	r4, [r7, #0]
 8001f7a:	eb61 0303 	sbc.w	r3, r1, r3
 8001f7e:	607b      	str	r3, [r7, #4]
 8001f80:	e9d7 4502 	ldrd	r4, r5, [r7, #8]
 8001f84:	4623      	mov	r3, r4
 8001f86:	e9d7 0100 	ldrd	r0, r1, [r7]
 8001f8a:	4602      	mov	r2, r0
 8001f8c:	4293      	cmp	r3, r2
 8001f8e:	462b      	mov	r3, r5
 8001f90:	460a      	mov	r2, r1
 8001f92:	4193      	sbcs	r3, r2
 8001f94:	d204      	bcs.n	8001fa0 <SearchFreqDevME+0x230>
 8001f96:	6dbb      	ldr	r3, [r7, #88]	@ 0x58
 8001f98:	781b      	ldrb	r3, [r3, #0]
 8001f9a:	3301      	adds	r3, #1
 8001f9c:	b2db      	uxtb	r3, r3
 8001f9e:	e001      	b.n	8001fa4 <SearchFreqDevME+0x234>
 8001fa0:	6dbb      	ldr	r3, [r7, #88]	@ 0x58
 8001fa2:	781b      	ldrb	r3, [r3, #0]
 8001fa4:	6dba      	ldr	r2, [r7, #88]	@ 0x58
 8001fa6:	7013      	strb	r3, [r2, #0]
}
 8001fa8:	bf00      	nop
 8001faa:	3788      	adds	r7, #136	@ 0x88
 8001fac:	46bd      	mov	sp, r7
 8001fae:	e8bd 8fb0 	ldmia.w	sp!, {r4, r5, r7, r8, r9, sl, fp, pc}
 8001fb2:	bf00      	nop
 8001fb4:	f3af 8000 	nop.w
 8001fb8:	02faf080 	.word	0x02faf080
 8001fbc:	00000000 	.word	0x00000000
 8001fc0:	02faf080 	.word	0x02faf080

08001fc4 <S2LP_SetModulation>:
*         [100 500000].
*         Frequency deviation expressed in Hz.
* @retval None.
*/
void S2LP_SetModulation(uint8_t mod_type, uint32_t datarate, uint32_t fdev)
{
 8001fc4:	b580      	push	{r7, lr}
 8001fc6:	b086      	sub	sp, #24
 8001fc8:	af00      	add	r7, sp, #0
 8001fca:	4603      	mov	r3, r0
 8001fcc:	60b9      	str	r1, [r7, #8]
 8001fce:	607a      	str	r2, [r7, #4]
 8001fd0:	73fb      	strb	r3, [r7, #15]
  uint8_t dr_e;
  uint16_t dr_m;
  uint8_t uFDevM, uFDevE;

  /* Calculates the datarate mantissa and exponent */
  SearchDatarateME(datarate, &dr_m, &dr_e);
 8001fd2:	f107 0217 	add.w	r2, r7, #23
 8001fd6:	f107 0314 	add.w	r3, r7, #20
 8001fda:	4619      	mov	r1, r3
 8001fdc:	68b8      	ldr	r0, [r7, #8]
 8001fde:	f7ff fcef 	bl	80019c0 <SearchDatarateME>
  /* Calculates the frequency deviation mantissa and exponent */
  SearchFreqDevME(fdev, &uFDevM, &uFDevE);
 8001fe2:	f107 0212 	add.w	r2, r7, #18
 8001fe6:	f107 0313 	add.w	r3, r7, #19
 8001fea:	4619      	mov	r1, r3
 8001fec:	6878      	ldr	r0, [r7, #4]
 8001fee:	f7ff febf 	bl	8001d70 <SearchFreqDevME>

  S2LP_WriteReg(MOD4_ADDR, (uint8_t)(dr_m >> 8), NULL);
 8001ff2:	8abb      	ldrh	r3, [r7, #20]
 8001ff4:	0a1b      	lsrs	r3, r3, #8
 8001ff6:	b29b      	uxth	r3, r3
 8001ff8:	b2db      	uxtb	r3, r3
 8001ffa:	2200      	movs	r2, #0
 8001ffc:	4619      	mov	r1, r3
 8001ffe:	200e      	movs	r0, #14
 8002000:	f7ff f8c4 	bl	800118c <S2LP_WriteReg>
  S2LP_WriteReg(MOD3_ADDR, (uint8_t)dr_m, NULL);
 8002004:	8abb      	ldrh	r3, [r7, #20]
 8002006:	b2db      	uxtb	r3, r3
 8002008:	2200      	movs	r2, #0
 800200a:	4619      	mov	r1, r3
 800200c:	200f      	movs	r0, #15
 800200e:	f7ff f8bd 	bl	800118c <S2LP_WriteReg>
  S2LP_WriteReg(MOD2_ADDR, mod_type | dr_e, NULL);
 8002012:	7dfa      	ldrb	r2, [r7, #23]
 8002014:	7bfb      	ldrb	r3, [r7, #15]
 8002016:	4313      	orrs	r3, r2
 8002018:	b2db      	uxtb	r3, r3
 800201a:	2200      	movs	r2, #0
 800201c:	4619      	mov	r1, r3
 800201e:	2010      	movs	r0, #16
 8002020:	f7ff f8b4 	bl	800118c <S2LP_WriteReg>

  S2LP_WriteReg(MOD0_ADDR, uFDevM, NULL);
 8002024:	7cfb      	ldrb	r3, [r7, #19]
 8002026:	2200      	movs	r2, #0
 8002028:	4619      	mov	r1, r3
 800202a:	2012      	movs	r0, #18
 800202c:	f7ff f8ae 	bl	800118c <S2LP_WriteReg>
  S2LP_WriteReg(MOD1_ADDR, uFDevE, NULL);
 8002030:	7cbb      	ldrb	r3, [r7, #18]
 8002032:	2200      	movs	r2, #0
 8002034:	4619      	mov	r1, r3
 8002036:	2011      	movs	r0, #17
 8002038:	f7ff f8a8 	bl	800118c <S2LP_WriteReg>
}
 800203c:	bf00      	nop
 800203e:	3718      	adds	r7, #24
 8002040:	46bd      	mov	sp, r7
 8002042:	bd80      	pop	{r7, pc}

08002044 <S2LP_SetPALeveldBm>:

void S2LP_SetPALeveldBm(int32_t lPowerdBm)
{
 8002044:	b580      	push	{r7, lr}
 8002046:	b084      	sub	sp, #16
 8002048:	af00      	add	r7, sp, #0
 800204a:	6078      	str	r0, [r7, #4]
  uint8_t paLevelValue;
  if(lPowerdBm> 14)
 800204c:	687b      	ldr	r3, [r7, #4]
 800204e:	2b0e      	cmp	r3, #14
 8002050:	dd02      	ble.n	8002058 <S2LP_SetPALeveldBm+0x14>
  {
    paLevelValue = 1;
 8002052:	2301      	movs	r3, #1
 8002054:	73fb      	strb	r3, [r7, #15]
 8002056:	e006      	b.n	8002066 <S2LP_SetPALeveldBm+0x22>
  }
  else {
    paLevelValue = (uint8_t)((int32_t)29-2*lPowerdBm);
 8002058:	687b      	ldr	r3, [r7, #4]
 800205a:	b2db      	uxtb	r3, r3
 800205c:	005b      	lsls	r3, r3, #1
 800205e:	b2db      	uxtb	r3, r3
 8002060:	f1c3 031d 	rsb	r3, r3, #29
 8002064:	73fb      	strb	r3, [r7, #15]
  }

  S2LP_WriteReg(PA_POWER0_ADDR, 0, NULL);
 8002066:	2200      	movs	r2, #0
 8002068:	2100      	movs	r1, #0
 800206a:	2062      	movs	r0, #98	@ 0x62
 800206c:	f7ff f88e 	bl	800118c <S2LP_WriteReg>
  S2LP_WriteReg(PA_CONFIG1_ADDR+1, 0, NULL); // disable degeneration mode
 8002070:	2200      	movs	r2, #0
 8002072:	2100      	movs	r1, #0
 8002074:	2064      	movs	r0, #100	@ 0x64
 8002076:	f7ff f889 	bl	800118c <S2LP_WriteReg>
  S2LP_WriteReg(PA_CONFIG1_ADDR, 0, NULL); // disable Tx Bessel FIR
 800207a:	2200      	movs	r2, #0
 800207c:	2100      	movs	r1, #0
 800207e:	2063      	movs	r0, #99	@ 0x63
 8002080:	f7ff f884 	bl	800118c <S2LP_WriteReg>
  S2LP_WriteReg(PA_POWER1_ADDR, paLevelValue, NULL);
 8002084:	7bfb      	ldrb	r3, [r7, #15]
 8002086:	2200      	movs	r2, #0
 8002088:	4619      	mov	r1, r3
 800208a:	2061      	movs	r0, #97	@ 0x61
 800208c:	f7ff f87e 	bl	800118c <S2LP_WriteReg>
}
 8002090:	bf00      	nop
 8002092:	3710      	adds	r7, #16
 8002094:	46bd      	mov	sp, r7
 8002096:	bd80      	pop	{r7, pc}

08002098 <S2LP_Init>:

	return HAL_OK;
}

HAL_StatusTypeDef S2LP_Init(SPI_HandleTypeDef *spi_handle)
{
 8002098:	b580      	push	{r7, lr}
 800209a:	b086      	sub	sp, #24
 800209c:	af00      	add	r7, sp, #0
 800209e:	6078      	str	r0, [r7, #4]
	gSPI = spi_handle;
 80020a0:	4a48      	ldr	r2, [pc, #288]	@ (80021c4 <S2LP_Init+0x12c>)
 80020a2:	687b      	ldr	r3, [r7, #4]
 80020a4:	6013      	str	r3, [r2, #0]
	uint32_t ncycles_start = HAL_RCC_GetHCLKFreq()/9600;
 80020a6:	f002 feeb 	bl	8004e80 <HAL_RCC_GetHCLKFreq>
 80020aa:	4603      	mov	r3, r0
 80020ac:	4a46      	ldr	r2, [pc, #280]	@ (80021c8 <S2LP_Init+0x130>)
 80020ae:	fba2 2303 	umull	r2, r3, r2, r3
 80020b2:	0a9b      	lsrs	r3, r3, #10
 80020b4:	613b      	str	r3, [r7, #16]
  __ASM volatile ("cpsid i" : : : "memory");
 80020b6:	b672      	cpsid	i
}
 80020b8:	bf00      	nop

	__disable_irq();
	HAL_GPIO_WritePin(RADIO_SDN_GPIO_Port, RADIO_SDN_Pin, GPIO_PIN_RESET); // Power up S2LP
 80020ba:	2200      	movs	r2, #0
 80020bc:	f44f 5100 	mov.w	r1, #8192	@ 0x2000
 80020c0:	4842      	ldr	r0, [pc, #264]	@ (80021cc <S2LP_Init+0x134>)
 80020c2:	f002 fa19 	bl	80044f8 <HAL_GPIO_WritePin>
	for(uint32_t i=0; i < ncycles_start; i++) // Wait for S2LP to start
 80020c6:	2300      	movs	r3, #0
 80020c8:	617b      	str	r3, [r7, #20]
 80020ca:	e003      	b.n	80020d4 <S2LP_Init+0x3c>
		asm volatile("nop");
 80020cc:	bf00      	nop
	for(uint32_t i=0; i < ncycles_start; i++) // Wait for S2LP to start
 80020ce:	697b      	ldr	r3, [r7, #20]
 80020d0:	3301      	adds	r3, #1
 80020d2:	617b      	str	r3, [r7, #20]
 80020d4:	697a      	ldr	r2, [r7, #20]
 80020d6:	693b      	ldr	r3, [r7, #16]
 80020d8:	429a      	cmp	r2, r3
 80020da:	d3f7      	bcc.n	80020cc <S2LP_Init+0x34>
  __ASM volatile ("cpsie i" : : : "memory");
 80020dc:	b662      	cpsie	i
}
 80020de:	bf00      	nop
	__enable_irq();

	S2LP_WriteReg(GPIO0_CONF_ADDR, 3, NULL); // Set GPIO as interrupt line
 80020e0:	2200      	movs	r2, #0
 80020e2:	2103      	movs	r1, #3
 80020e4:	2000      	movs	r0, #0
 80020e6:	f7ff f851 	bl	800118c <S2LP_WriteReg>
	S2LP_WriteReg(IRQ_MASK0_ADDR, 0x80 | 0x20 | 0x04, NULL); // Enable "Tx Data sent" and "TX FIFO almost full" interrupts
 80020ea:	2200      	movs	r2, #0
 80020ec:	21a4      	movs	r1, #164	@ 0xa4
 80020ee:	2053      	movs	r0, #83	@ 0x53
 80020f0:	f7ff f84c 	bl	800118c <S2LP_WriteReg>
	S2LP_WriteReg(IRQ_MASK1_ADDR, 0x01, NULL); // Enable "TX FIFO almost empty" interrupt
 80020f4:	2200      	movs	r2, #0
 80020f6:	2101      	movs	r1, #1
 80020f8:	2052      	movs	r0, #82	@ 0x52
 80020fa:	f7ff f847 	bl	800118c <S2LP_WriteReg>
	S2LP_WriteReg(IRQ_MASK2_ADDR, 0x00, NULL);
 80020fe:	2200      	movs	r2, #0
 8002100:	2100      	movs	r1, #0
 8002102:	2051      	movs	r0, #81	@ 0x51
 8002104:	f7ff f842 	bl	800118c <S2LP_WriteReg>
	S2LP_WriteReg(IRQ_MASK3_ADDR, 0x00, NULL);
 8002108:	2200      	movs	r2, #0
 800210a:	2100      	movs	r1, #0
 800210c:	2050      	movs	r0, #80	@ 0x50
 800210e:	f7ff f83d 	bl	800118c <S2LP_WriteReg>
	S2LP_WriteReg(FIFO_CONFIG0_ADDR, FIFO_EMPTY_THRESH * FIFO_CHUNK_SIZE, NULL);
 8002112:	2200      	movs	r2, #0
 8002114:	2120      	movs	r1, #32
 8002116:	203f      	movs	r0, #63	@ 0x3f
 8002118:	f7ff f838 	bl	800118c <S2LP_WriteReg>

	// Change sync word bytes
	S2LP_WriteReg(SYNC3_ADDR, 0xB7, NULL);
 800211c:	2200      	movs	r2, #0
 800211e:	21b7      	movs	r1, #183	@ 0xb7
 8002120:	2033      	movs	r0, #51	@ 0x33
 8002122:	f7ff f833 	bl	800118c <S2LP_WriteReg>
	S2LP_WriteReg(SYNC2_ADDR, 0x54, NULL);
 8002126:	2200      	movs	r2, #0
 8002128:	2154      	movs	r1, #84	@ 0x54
 800212a:	2034      	movs	r0, #52	@ 0x34
 800212c:	f7ff f82e 	bl	800118c <S2LP_WriteReg>
	S2LP_WriteReg(SYNC1_ADDR, 0x2A, NULL);
 8002130:	2200      	movs	r2, #0
 8002132:	212a      	movs	r1, #42	@ 0x2a
 8002134:	2035      	movs	r0, #53	@ 0x35
 8002136:	f7ff f829 	bl	800118c <S2LP_WriteReg>
	S2LP_WriteReg(SYNC0_ADDR, 0x3E, NULL);
 800213a:	2200      	movs	r2, #0
 800213c:	213e      	movs	r1, #62	@ 0x3e
 800213e:	2036      	movs	r0, #54	@ 0x36
 8002140:	f7ff f824 	bl	800118c <S2LP_WriteReg>

	// PLL and PA configuration
	S2LP_PLLConf(BASE_FREQ);
 8002144:	4822      	ldr	r0, [pc, #136]	@ (80021d0 <S2LP_Init+0x138>)
 8002146:	f7ff fa8f 	bl	8001668 <S2LP_PLLConf>
	S2LP_SetPALeveldBm(PA_LEVEL);
 800214a:	2000      	movs	r0, #0
 800214c:	f7ff ff7a 	bl	8002044 <S2LP_SetPALeveldBm>

	// Modulation and packet configuration
	S2LP_SetModulation(MOD_2FSK, DATARATE, FREQDEV);
 8002150:	f243 02d4 	movw	r2, #12500	@ 0x30d4
 8002154:	f24c 3150 	movw	r1, #50000	@ 0xc350
 8002158:	2000      	movs	r0, #0
 800215a:	f7ff ff33 	bl	8001fc4 <S2LP_SetModulation>
	S2LP_WriteReg(PCKTCTRL1_ADDR, 0x20, NULL); // No whitening, CRC with poly 0x07
 800215e:	2200      	movs	r2, #0
 8002160:	2120      	movs	r1, #32
 8002162:	2030      	movs	r0, #48	@ 0x30
 8002164:	f7ff f812 	bl	800118c <S2LP_WriteReg>
	S2LP_WriteReg(PCKTCTRL3_ADDR, 0x00, NULL); // Enable basic packet structure
 8002168:	2200      	movs	r2, #0
 800216a:	2100      	movs	r1, #0
 800216c:	202e      	movs	r0, #46	@ 0x2e
 800216e:	f7ff f80d 	bl	800118c <S2LP_WriteReg>

	S2LPStatus radio_status;
	uint8_t rco_conf;
	HAL_StatusTypeDef err = S2LP_ReadReg(XO_RCO_CONF1_ADDR, &rco_conf, &radio_status); // fetch radio state
 8002172:	f107 020c 	add.w	r2, r7, #12
 8002176:	f107 030b 	add.w	r3, r7, #11
 800217a:	4619      	mov	r1, r3
 800217c:	206c      	movs	r0, #108	@ 0x6c
 800217e:	f7fe ffc7 	bl	8001110 <S2LP_ReadReg>
 8002182:	4603      	mov	r3, r0
 8002184:	73fb      	strb	r3, [r7, #15]
	if (err) {
 8002186:	7bfb      	ldrb	r3, [r7, #15]
 8002188:	2b00      	cmp	r3, #0
 800218a:	d001      	beq.n	8002190 <S2LP_Init+0xf8>
		return err;
 800218c:	7bfb      	ldrb	r3, [r7, #15]
 800218e:	e015      	b.n	80021bc <S2LP_Init+0x124>
	} else if (rco_conf != 0x45) {
 8002190:	7afb      	ldrb	r3, [r7, #11]
 8002192:	2b45      	cmp	r3, #69	@ 0x45
 8002194:	d006      	beq.n	80021a4 <S2LP_Init+0x10c>
		DEBUG_PRINT("[S2LP] Error: XO_RCO_CONF1 register is invalid (0x%X instead of 0x45), faulty SPI bus?\r\n", rco_conf);
 8002196:	7afb      	ldrb	r3, [r7, #11]
 8002198:	4619      	mov	r1, r3
 800219a:	480e      	ldr	r0, [pc, #56]	@ (80021d4 <S2LP_Init+0x13c>)
 800219c:	f005 fc5a 	bl	8007a54 <iprintf>
		return HAL_ERROR;
 80021a0:	2301      	movs	r3, #1
 80021a2:	e00b      	b.n	80021bc <S2LP_Init+0x124>
	}

	if (radio_status.MC_STATE != MC_STATE_READY) {
 80021a4:	7b7b      	ldrb	r3, [r7, #13]
 80021a6:	f023 0301 	bic.w	r3, r3, #1
 80021aa:	b2db      	uxtb	r3, r3
 80021ac:	2b00      	cmp	r3, #0
 80021ae:	d004      	beq.n	80021ba <S2LP_Init+0x122>
		DEBUG_PRINT("[S2LP] Error: radio is not ready after initialization\r\n");
 80021b0:	4809      	ldr	r0, [pc, #36]	@ (80021d8 <S2LP_Init+0x140>)
 80021b2:	f005 fcb7 	bl	8007b24 <puts>
		return HAL_ERROR;
 80021b6:	2301      	movs	r3, #1
 80021b8:	e000      	b.n	80021bc <S2LP_Init+0x124>
	}

	return HAL_OK;
 80021ba:	2300      	movs	r3, #0
}
 80021bc:	4618      	mov	r0, r3
 80021be:	3718      	adds	r7, #24
 80021c0:	46bd      	mov	sp, r7
 80021c2:	bd80      	pop	{r7, pc}
 80021c4:	200010d4 	.word	0x200010d4
 80021c8:	1b4e81b5 	.word	0x1b4e81b5
 80021cc:	48001400 	.word	0x48001400
 80021d0:	33bca100 	.word	0x33bca100
 80021d4:	08008ba8 	.word	0x08008ba8
 80021d8:	08008c04 	.word	0x08008c04

080021dc <S2LP_IRQ_Handler>:

void S2LP_IRQ_Handler(void)
{
 80021dc:	b580      	push	{r7, lr}
 80021de:	b082      	sub	sp, #8
 80021e0:	af00      	add	r7, sp, #0
	uint8_t irq_status1, irq_status0;
	S2LP_ReadReg(IRQ_STATUS1_ADDR, &irq_status1, NULL);
 80021e2:	1dfb      	adds	r3, r7, #7
 80021e4:	2200      	movs	r2, #0
 80021e6:	4619      	mov	r1, r3
 80021e8:	20fc      	movs	r0, #252	@ 0xfc
 80021ea:	f7fe ff91 	bl	8001110 <S2LP_ReadReg>
	S2LP_ReadReg(IRQ_STATUS0_ADDR, &irq_status0, NULL);
 80021ee:	1dbb      	adds	r3, r7, #6
 80021f0:	2200      	movs	r2, #0
 80021f2:	4619      	mov	r1, r3
 80021f4:	20fd      	movs	r0, #253	@ 0xfd
 80021f6:	f7fe ff8b 	bl	8001110 <S2LP_ReadReg>

	if (irq_status1 & 0x01) // TX FIFO almost empty
 80021fa:	79fb      	ldrb	r3, [r7, #7]
 80021fc:	f003 0301 	and.w	r3, r3, #1
 8002200:	2b00      	cmp	r3, #0
 8002202:	d002      	beq.n	800220a <S2LP_IRQ_Handler+0x2e>
		fifo_almost_empty = 1;
 8002204:	4b0b      	ldr	r3, [pc, #44]	@ (8002234 <S2LP_IRQ_Handler+0x58>)
 8002206:	2201      	movs	r2, #1
 8002208:	701a      	strb	r2, [r3, #0]

	if (irq_status0 & 0x20) // TX/RX FIFO underflow or overflow
 800220a:	79bb      	ldrb	r3, [r7, #6]
 800220c:	f003 0320 	and.w	r3, r3, #32
 8002210:	2b00      	cmp	r3, #0
 8002212:	d002      	beq.n	800221a <S2LP_IRQ_Handler+0x3e>
		underflow = 1;
 8002214:	4b08      	ldr	r3, [pc, #32]	@ (8002238 <S2LP_IRQ_Handler+0x5c>)
 8002216:	2201      	movs	r2, #1
 8002218:	701a      	strb	r2, [r3, #0]

	if (irq_status0 & 0x04) // Packet transmitted
 800221a:	79bb      	ldrb	r3, [r7, #6]
 800221c:	f003 0304 	and.w	r3, r3, #4
 8002220:	2b00      	cmp	r3, #0
 8002222:	d002      	beq.n	800222a <S2LP_IRQ_Handler+0x4e>
		packet_sent = 1;
 8002224:	4b05      	ldr	r3, [pc, #20]	@ (800223c <S2LP_IRQ_Handler+0x60>)
 8002226:	2201      	movs	r2, #1
 8002228:	701a      	strb	r2, [r3, #0]
}
 800222a:	bf00      	nop
 800222c:	3708      	adds	r7, #8
 800222e:	46bd      	mov	sp, r7
 8002230:	bd80      	pop	{r7, pc}
 8002232:	bf00      	nop
 8002234:	200010d1 	.word	0x200010d1
 8002238:	200010d2 	.word	0x200010d2
 800223c:	200010d0 	.word	0x200010d0

08002240 <Spectrogram_Format>:
    }
}

// Convert 12-bit DC ADC samples to Q1.15 fixed point signal and remove DC component
void Spectrogram_Format(q15_t *buf)
{
 8002240:	b510      	push	{r4, lr}
	// That way, the value of buf[i] is in [0 , 2**15 - 1]

	// /!\ When multiplying/dividing by a power 2, always prefer shifting left/right instead, ARM instructions to do so are more efficient.
	// Here we should shift left by 3.

	arm_shift_q15(buf, 3, buf, SAMPLES_PER_MELVEC);
 8002242:	f44f 7300 	mov.w	r3, #512	@ 0x200
{
 8002246:	4604      	mov	r4, r0
	arm_shift_q15(buf, 3, buf, SAMPLES_PER_MELVEC);
 8002248:	2103      	movs	r1, #3
 800224a:	4602      	mov	r2, r0
 800224c:	f004 fd80 	bl	8006d50 <arm_shift_q15>
	//            Number of cycles: <TODO>

	// Since we use a signed representation, we should now center the value around zero, we can do this by substracting 2**14.
	// Now the value of buf[i] is in [-2**14 , 2**14 - 1]

	for(uint16_t i=0; i < SAMPLES_PER_MELVEC; i++) { // Remove DC component
 8002250:	1ea3      	subs	r3, r4, #2
 8002252:	f204 31fe 	addw	r1, r4, #1022	@ 0x3fe
		buf[i] -= (1 << 14);
 8002256:	f833 2f02 	ldrh.w	r2, [r3, #2]!
 800225a:	f5a2 4280 	sub.w	r2, r2, #16384	@ 0x4000
	for(uint16_t i=0; i < SAMPLES_PER_MELVEC; i++) { // Remove DC component
 800225e:	4299      	cmp	r1, r3
		buf[i] -= (1 << 14);
 8002260:	801a      	strh	r2, [r3, #0]
	for(uint16_t i=0; i < SAMPLES_PER_MELVEC; i++) { // Remove DC component
 8002262:	d1f8      	bne.n	8002256 <Spectrogram_Format+0x16>
	}
}
 8002264:	bd10      	pop	{r4, pc}
 8002266:	bf00      	nop

08002268 <Spectrogram_Compute>:

// Compute spectrogram of samples and transform into MEL vectors.
void Spectrogram_Compute(q15_t *samples, q15_t *melvec)
{
 8002268:	e92d 41f0 	stmdb	sp!, {r4, r5, r6, r7, r8, lr}
	// STEP 1  : Windowing of input samples
	//           --> Pointwise product
	//           Complexity: O(N)
	//           Number of cycles: <TODO>
	arm_mult_q15(samples, hamming_window, buf, SAMPLES_PER_MELVEC);
 800226c:	4a3e      	ldr	r2, [pc, #248]	@ (8002368 <Spectrogram_Compute+0x100>)
 800226e:	4c3f      	ldr	r4, [pc, #252]	@ (800236c <Spectrogram_Compute+0x104>)
{
 8002270:	b0aa      	sub	sp, #168	@ 0xa8
	arm_mult_q15(samples, hamming_window, buf, SAMPLES_PER_MELVEC);
 8002272:	f44f 7300 	mov.w	r3, #512	@ 0x200
{
 8002276:	460d      	mov	r5, r1
	arm_mult_q15(samples, hamming_window, buf, SAMPLES_PER_MELVEC);
 8002278:	493d      	ldr	r1, [pc, #244]	@ (8002370 <Spectrogram_Compute+0x108>)
 800227a:	f004 fdfb 	bl	8006e74 <arm_mult_q15>
	//           Number of cycles: <TODO>

	// Since the FFT is a recursive algorithm, the values are rescaled in the function to ensure that overflow cannot happen.
	arm_rfft_instance_q15 rfft_inst;

	arm_rfft_init_q15(&rfft_inst, SAMPLES_PER_MELVEC, 0, 1);
 800227e:	2301      	movs	r3, #1
 8002280:	2200      	movs	r2, #0
 8002282:	f44f 7100 	mov.w	r1, #512	@ 0x200
 8002286:	a805      	add	r0, sp, #20
 8002288:	f004 fc3c 	bl	8006b04 <arm_rfft_init_q15>

	arm_rfft_q15(&rfft_inst, buf, buf_fft);
 800228c:	4a39      	ldr	r2, [pc, #228]	@ (8002374 <Spectrogram_Compute+0x10c>)
 800228e:	4936      	ldr	r1, [pc, #216]	@ (8002368 <Spectrogram_Compute+0x100>)
 8002290:	a805      	add	r0, sp, #20
 8002292:	f004 fbbb 	bl	8006a0c <arm_rfft_q15>
	// STEP 3.1: Find the extremum value (maximum of absolute values)
	//           Complexity: O(N)
	//           Number of cycles: <TODO>

	q15_t vmax;
	uint32_t pIndex=0;
 8002296:	2100      	movs	r1, #0

	arm_absmax_q15(buf_fft, SAMPLES_PER_MELVEC, &vmax, &pIndex);
 8002298:	4836      	ldr	r0, [pc, #216]	@ (8002374 <Spectrogram_Compute+0x10c>)
	uint32_t pIndex=0;
 800229a:	9101      	str	r1, [sp, #4]
	arm_absmax_q15(buf_fft, SAMPLES_PER_MELVEC, &vmax, &pIndex);
 800229c:	f10d 0202 	add.w	r2, sp, #2
 80022a0:	f44f 7100 	mov.w	r1, #512	@ 0x200
 80022a4:	ab01      	add	r3, sp, #4
 80022a6:	f7fe fb5f 	bl	8000968 <arm_absmax_q15>

	// STEP 3.2: Normalize the vector - Dynamic range increase
	//           Complexity: O(N)
	//           Number of cycles: <TODO>

	for (int i=0; i < SAMPLES_PER_MELVEC; i++) // We don't use the second half of the symmetric spectrum
 80022aa:	4a33      	ldr	r2, [pc, #204]	@ (8002378 <Spectrogram_Compute+0x110>)
	{
		buf[i] = (q15_t) (((q31_t) buf_fft[i] << 15) /((q31_t)vmax));
 80022ac:	f9bd c002 	ldrsh.w	ip, [sp, #2]
 80022b0:	f502 6080 	add.w	r0, r2, #1024	@ 0x400
 80022b4:	4621      	mov	r1, r4
 80022b6:	f932 3f02 	ldrsh.w	r3, [r2, #2]!
	for (int i=0; i < SAMPLES_PER_MELVEC; i++) // We don't use the second half of the symmetric spectrum
 80022ba:	4282      	cmp	r2, r0
		buf[i] = (q15_t) (((q31_t) buf_fft[i] << 15) /((q31_t)vmax));
 80022bc:	ea4f 33c3 	mov.w	r3, r3, lsl #15
 80022c0:	fb93 f3fc 	sdiv	r3, r3, ip
 80022c4:	f821 3f02 	strh.w	r3, [r1, #2]!
	for (int i=0; i < SAMPLES_PER_MELVEC; i++) // We don't use the second half of the symmetric spectrum
 80022c8:	d1f5      	bne.n	80022b6 <Spectrogram_Compute+0x4e>
	// STEP 3.3: Compute the complex magnitude
	//           --> The output buffer is now two times smaller because (real|imag) --> (mag)
	//           Complexity: O(N)
	//           Number of cycles: <TODO>

	arm_cmplx_mag_q15(buf, buf, SAMPLES_PER_MELVEC/2);
 80022ca:	4927      	ldr	r1, [pc, #156]	@ (8002368 <Spectrogram_Compute+0x100>)
 80022cc:	f44f 7280 	mov.w	r2, #256	@ 0x100
 80022d0:	4608      	mov	r0, r1
 80022d2:	f004 fc93 	bl	8006bfc <arm_cmplx_mag_q15>
	//           Complexity: O(N)
	//           Number of cycles: <TODO>

	for (int i=0; i < SAMPLES_PER_MELVEC/2; i++)
	{
		buf[i] = (q15_t) ((((q31_t) buf[i]) * ((q31_t) vmax) ) >> 15 );
 80022d6:	f9bd 1002 	ldrsh.w	r1, [sp, #2]
 80022da:	4a28      	ldr	r2, [pc, #160]	@ (800237c <Spectrogram_Compute+0x114>)
 80022dc:	f834 3f02 	ldrh.w	r3, [r4, #2]!
 80022e0:	fb13 f301 	smulbb	r3, r3, r1
 80022e4:	13db      	asrs	r3, r3, #15
	for (int i=0; i < SAMPLES_PER_MELVEC/2; i++)
 80022e6:	4294      	cmp	r4, r2
		buf[i] = (q15_t) ((((q31_t) buf[i]) * ((q31_t) vmax) ) >> 15 );
 80022e8:	8023      	strh	r3, [r4, #0]
	for (int i=0; i < SAMPLES_PER_MELVEC/2; i++)
 80022ea:	d1f7      	bne.n	80022dc <Spectrogram_Compute+0x74>
	// less precision since it discards the low 16 bits of each multiplication result.

	// /!\ In order to avoid overflows completely the input signals should be scaled down. Scale down one of the input matrices by log2(numColsA) bits to avoid overflows,
	// as a total of numColsA additions are computed internally for each output element. Because our hz2mel_mat matrix contains lots of zeros in its rows, this is not necessary.
	
	START_CYCLE_COUNT();
 80022ec:	f000 fa0e 	bl	800270c <start_cycle_count>
    for (size_t i = 0; i < mel_len; i++) {
 80022f0:	1eaf      	subs	r7, r5, #2
 80022f2:	f105 0826 	add.w	r8, r5, #38	@ 0x26
 80022f6:	4e22      	ldr	r6, [pc, #136]	@ (8002380 <Spectrogram_Compute+0x118>)
		q15_t* fft_samples = &fft_array[mel_triangle.idx_offset];
 80022f8:	4d1b      	ldr	r5, [pc, #108]	@ (8002368 <Spectrogram_Compute+0x100>)
        mel_trian_t mel_triangle = mel_triangles[i];
 80022fa:	4631      	mov	r1, r6
 80022fc:	227c      	movs	r2, #124	@ 0x7c
 80022fe:	a80b      	add	r0, sp, #44	@ 0x2c
 8002300:	f005 fe1f 	bl	8007f42 <memcpy>
		if (mel_triangle.idx_offset + mel_triangle.triangle_len > fft_len) {
 8002304:	e9dd 240b 	ldrd	r2, r4, [sp, #44]	@ 0x2c
        arm_dot_prod_q15(fft_samples, mel_triangle.values, mel_triangle.triangle_len, &mel_result);
 8002308:	eb05 0044 	add.w	r0, r5, r4, lsl #1
		if (mel_triangle.idx_offset + mel_triangle.triangle_len > fft_len) {
 800230c:	4414      	add	r4, r2
 800230e:	f5b4 7f00 	cmp.w	r4, #512	@ 0x200
        arm_dot_prod_q15(fft_samples, mel_triangle.values, mel_triangle.triangle_len, &mel_result);
 8002312:	ab02      	add	r3, sp, #8
 8002314:	a90d      	add	r1, sp, #52	@ 0x34
		if (mel_triangle.idx_offset + mel_triangle.triangle_len > fft_len) {
 8002316:	d81e      	bhi.n	8002356 <Spectrogram_Compute+0xee>
        arm_dot_prod_q15(fft_samples, mel_triangle.values, mel_triangle.triangle_len, &mel_result);
 8002318:	f004 fe0a 	bl	8006f30 <arm_dot_prod_q15>
		mel_array[i] = clip_q63_to_q15(mel_result);
 800231c:	e9dd 2102 	ldrd	r2, r1, [sp, #8]
   */
  __STATIC_FORCEINLINE q15_t clip_q63_to_q15(
  q63_t x)
  {
    return ((q31_t) (x >> 32) != ((q31_t) x >> 31)) ?
      ((0x7FFF ^ ((q15_t) (x >> 63)))) : (q15_t) (x >> 15);
 8002320:	f647 73ff 	movw	r3, #32767	@ 0x7fff
 8002324:	ebb1 7fe2 	cmp.w	r1, r2, asr #31
 8002328:	ea83 73e1 	eor.w	r3, r3, r1, asr #31
 800232c:	d00b      	beq.n	8002346 <Spectrogram_Compute+0xde>
 800232e:	f827 3f02 	strh.w	r3, [r7, #2]!
    for (size_t i = 0; i < mel_len; i++) {
 8002332:	45b8      	cmp	r8, r7
 8002334:	f106 067c 	add.w	r6, r6, #124	@ 0x7c
 8002338:	d1df      	bne.n	80022fa <Spectrogram_Compute+0x92>
	#if MEL_MODE == MEL_MODE_FILTERBANK
		mel_filter_apply(buf, melvec, SAMPLES_PER_MELVEC, MELVEC_LENGTH);
		STOP_CYCLE_COUNT("Mel filter bank");
 800233a:	4812      	ldr	r0, [pc, #72]	@ (8002384 <Spectrogram_Compute+0x11c>)
 800233c:	f000 fa06 	bl	800274c <stop_cycle_count>

		arm_mat_mult_fast_q15(&hz2mel_inst, &fftmag_inst, &melvec_inst, buf_tmp);
		STOP_CYCLE_COUNT("Mel matrix");
	#endif
	
}
 8002340:	b02a      	add	sp, #168	@ 0xa8
 8002342:	e8bd 81f0 	ldmia.w	sp!, {r4, r5, r6, r7, r8, pc}
 8002346:	0bd2      	lsrs	r2, r2, #15
 8002348:	f827 2f02 	strh.w	r2, [r7, #2]!
    for (size_t i = 0; i < mel_len; i++) {
 800234c:	45b8      	cmp	r8, r7
 800234e:	f106 067c 	add.w	r6, r6, #124	@ 0x7c
 8002352:	d1d2      	bne.n	80022fa <Spectrogram_Compute+0x92>
 8002354:	e7f1      	b.n	800233a <Spectrogram_Compute+0xd2>
			DEBUG_PRINT("Error: Mel triangle is too large for the FFT array\n");
 8002356:	480c      	ldr	r0, [pc, #48]	@ (8002388 <Spectrogram_Compute+0x120>)
 8002358:	f005 fbe4 	bl	8007b24 <puts>
		STOP_CYCLE_COUNT("Mel filter bank");
 800235c:	4809      	ldr	r0, [pc, #36]	@ (8002384 <Spectrogram_Compute+0x11c>)
 800235e:	f000 f9f5 	bl	800274c <stop_cycle_count>
}
 8002362:	b02a      	add	sp, #168	@ 0xa8
 8002364:	e8bd 81f0 	ldmia.w	sp!, {r4, r5, r6, r7, r8, pc}
 8002368:	200018d8 	.word	0x200018d8
 800236c:	200018d6 	.word	0x200018d6
 8002370:	20000000 	.word	0x20000000
 8002374:	200010d8 	.word	0x200010d8
 8002378:	200010d6 	.word	0x200010d6
 800237c:	20001ad6 	.word	0x20001ad6
 8002380:	08008dfc 	.word	0x08008dfc
 8002384:	08008dec 	.word	0x08008dec
 8002388:	08008db8 	.word	0x08008db8

0800238c <MX_SPI1_Init>:

SPI_HandleTypeDef hspi1;

/* SPI1 init function */
void MX_SPI1_Init(void)
{
 800238c:	b510      	push	{r4, lr}
  /* USER CODE END SPI1_Init 0 */

  /* USER CODE BEGIN SPI1_Init 1 */

  /* USER CODE END SPI1_Init 1 */
  hspi1.Instance = SPI1;
 800238e:	4810      	ldr	r0, [pc, #64]	@ (80023d0 <MX_SPI1_Init+0x44>)
  hspi1.Init.Mode = SPI_MODE_MASTER;
 8002390:	4c10      	ldr	r4, [pc, #64]	@ (80023d4 <MX_SPI1_Init+0x48>)
 8002392:	f44f 7182 	mov.w	r1, #260	@ 0x104
 8002396:	e9c0 4100 	strd	r4, r1, [r0]
 800239a:	f44f 7100 	mov.w	r1, #512	@ 0x200
 800239e:	2300      	movs	r3, #0
 80023a0:	2208      	movs	r2, #8
 80023a2:	f44f 64e0 	mov.w	r4, #1792	@ 0x700
 80023a6:	6181      	str	r1, [r0, #24]
 80023a8:	2107      	movs	r1, #7
 80023aa:	e9c0 3402 	strd	r3, r4, [r0, #8]
 80023ae:	e9c0 3304 	strd	r3, r3, [r0, #16]
 80023b2:	e9c0 2307 	strd	r2, r3, [r0, #28]
 80023b6:	e9c0 3309 	strd	r3, r3, [r0, #36]	@ 0x24
 80023ba:	e9c0 130b 	strd	r1, r3, [r0, #44]	@ 0x2c
  hspi1.Init.FirstBit = SPI_FIRSTBIT_MSB;
  hspi1.Init.TIMode = SPI_TIMODE_DISABLE;
  hspi1.Init.CRCCalculation = SPI_CRCCALCULATION_DISABLE;
  hspi1.Init.CRCPolynomial = 7;
  hspi1.Init.CRCLength = SPI_CRC_LENGTH_DATASIZE;
  hspi1.Init.NSSPMode = SPI_NSS_PULSE_ENABLE;
 80023be:	6342      	str	r2, [r0, #52]	@ 0x34
  if (HAL_SPI_Init(&hspi1) != HAL_OK)
 80023c0:	f003 f9e0 	bl	8005784 <HAL_SPI_Init>
 80023c4:	b900      	cbnz	r0, 80023c8 <MX_SPI1_Init+0x3c>
  }
  /* USER CODE BEGIN SPI1_Init 2 */

  /* USER CODE END SPI1_Init 2 */

}
 80023c6:	bd10      	pop	{r4, pc}
 80023c8:	e8bd 4010 	ldmia.w	sp!, {r4, lr}
    Error_Handler();
 80023cc:	f7fe bd06 	b.w	8000ddc <Error_Handler>
 80023d0:	20001cd8 	.word	0x20001cd8
 80023d4:	40013000 	.word	0x40013000

080023d8 <HAL_SPI_MspInit>:

void HAL_SPI_MspInit(SPI_HandleTypeDef* spiHandle)
{
 80023d8:	b570      	push	{r4, r5, r6, lr}

  GPIO_InitTypeDef GPIO_InitStruct = {0};
  if(spiHandle->Instance==SPI1)
 80023da:	4b22      	ldr	r3, [pc, #136]	@ (8002464 <HAL_SPI_MspInit+0x8c>)
 80023dc:	6802      	ldr	r2, [r0, #0]
{
 80023de:	b08a      	sub	sp, #40	@ 0x28
  GPIO_InitTypeDef GPIO_InitStruct = {0};
 80023e0:	2400      	movs	r4, #0
  if(spiHandle->Instance==SPI1)
 80023e2:	429a      	cmp	r2, r3
  GPIO_InitTypeDef GPIO_InitStruct = {0};
 80023e4:	e9cd 4404 	strd	r4, r4, [sp, #16]
 80023e8:	e9cd 4406 	strd	r4, r4, [sp, #24]
 80023ec:	9408      	str	r4, [sp, #32]
  if(spiHandle->Instance==SPI1)
 80023ee:	d001      	beq.n	80023f4 <HAL_SPI_MspInit+0x1c>

  /* USER CODE BEGIN SPI1_MspInit 1 */

  /* USER CODE END SPI1_MspInit 1 */
  }
}
 80023f0:	b00a      	add	sp, #40	@ 0x28
 80023f2:	bd70      	pop	{r4, r5, r6, pc}
    __HAL_RCC_SPI1_CLK_ENABLE();
 80023f4:	f503 4360 	add.w	r3, r3, #57344	@ 0xe000
    GPIO_InitStruct.Speed = GPIO_SPEED_FREQ_VERY_HIGH;
 80023f8:	2603      	movs	r6, #3
    __HAL_RCC_SPI1_CLK_ENABLE();
 80023fa:	6e1a      	ldr	r2, [r3, #96]	@ 0x60
 80023fc:	f442 5280 	orr.w	r2, r2, #4096	@ 0x1000
 8002400:	661a      	str	r2, [r3, #96]	@ 0x60
 8002402:	6e1a      	ldr	r2, [r3, #96]	@ 0x60
 8002404:	f402 5280 	and.w	r2, r2, #4096	@ 0x1000
 8002408:	9201      	str	r2, [sp, #4]
 800240a:	9a01      	ldr	r2, [sp, #4]
    __HAL_RCC_GPIOA_CLK_ENABLE();
 800240c:	6cda      	ldr	r2, [r3, #76]	@ 0x4c
 800240e:	f042 0201 	orr.w	r2, r2, #1
 8002412:	64da      	str	r2, [r3, #76]	@ 0x4c
 8002414:	6cda      	ldr	r2, [r3, #76]	@ 0x4c
 8002416:	f002 0201 	and.w	r2, r2, #1
 800241a:	9202      	str	r2, [sp, #8]
 800241c:	9a02      	ldr	r2, [sp, #8]
    __HAL_RCC_GPIOE_CLK_ENABLE();
 800241e:	6cda      	ldr	r2, [r3, #76]	@ 0x4c
 8002420:	f042 0210 	orr.w	r2, r2, #16
 8002424:	64da      	str	r2, [r3, #76]	@ 0x4c
 8002426:	6cdb      	ldr	r3, [r3, #76]	@ 0x4c
 8002428:	f003 0310 	and.w	r3, r3, #16
 800242c:	9303      	str	r3, [sp, #12]
    GPIO_InitStruct.Pin = GPIO_PIN_6|GPIO_PIN_7;
 800242e:	22c0      	movs	r2, #192	@ 0xc0
    GPIO_InitStruct.Speed = GPIO_SPEED_FREQ_VERY_HIGH;
 8002430:	2505      	movs	r5, #5
    HAL_GPIO_Init(GPIOA, &GPIO_InitStruct);
 8002432:	a904      	add	r1, sp, #16
    GPIO_InitStruct.Pin = GPIO_PIN_6|GPIO_PIN_7;
 8002434:	2302      	movs	r3, #2
    HAL_GPIO_Init(GPIOA, &GPIO_InitStruct);
 8002436:	f04f 4090 	mov.w	r0, #1207959552	@ 0x48000000
    GPIO_InitStruct.Pin = GPIO_PIN_6|GPIO_PIN_7;
 800243a:	e9cd 2304 	strd	r2, r3, [sp, #16]
    GPIO_InitStruct.Speed = GPIO_SPEED_FREQ_VERY_HIGH;
 800243e:	e9cd 6507 	strd	r6, r5, [sp, #28]
    __HAL_RCC_GPIOE_CLK_ENABLE();
 8002442:	9b03      	ldr	r3, [sp, #12]
    HAL_GPIO_Init(GPIOA, &GPIO_InitStruct);
 8002444:	f001 ff34 	bl	80042b0 <HAL_GPIO_Init>
    GPIO_InitStruct.Pin = GPIO_PIN_13;
 8002448:	f44f 5300 	mov.w	r3, #8192	@ 0x2000
 800244c:	9304      	str	r3, [sp, #16]
    HAL_GPIO_Init(GPIOE, &GPIO_InitStruct);
 800244e:	4806      	ldr	r0, [pc, #24]	@ (8002468 <HAL_SPI_MspInit+0x90>)
    GPIO_InitStruct.Alternate = GPIO_AF5_SPI1;
 8002450:	9508      	str	r5, [sp, #32]
    GPIO_InitStruct.Mode = GPIO_MODE_AF_PP;
 8002452:	2302      	movs	r3, #2
    HAL_GPIO_Init(GPIOE, &GPIO_InitStruct);
 8002454:	a904      	add	r1, sp, #16
    GPIO_InitStruct.Speed = GPIO_SPEED_FREQ_VERY_HIGH;
 8002456:	e9cd 4606 	strd	r4, r6, [sp, #24]
    GPIO_InitStruct.Mode = GPIO_MODE_AF_PP;
 800245a:	9305      	str	r3, [sp, #20]
    HAL_GPIO_Init(GPIOE, &GPIO_InitStruct);
 800245c:	f001 ff28 	bl	80042b0 <HAL_GPIO_Init>
}
 8002460:	b00a      	add	sp, #40	@ 0x28
 8002462:	bd70      	pop	{r4, r5, r6, pc}
 8002464:	40013000 	.word	0x40013000
 8002468:	48001000 	.word	0x48001000

0800246c <HAL_MspInit>:

  /* USER CODE BEGIN MspInit 0 */

  /* USER CODE END MspInit 0 */

  __HAL_RCC_SYSCFG_CLK_ENABLE();
 800246c:	4b0a      	ldr	r3, [pc, #40]	@ (8002498 <HAL_MspInit+0x2c>)
 800246e:	6e1a      	ldr	r2, [r3, #96]	@ 0x60
 8002470:	f042 0201 	orr.w	r2, r2, #1
 8002474:	661a      	str	r2, [r3, #96]	@ 0x60
 8002476:	6e1a      	ldr	r2, [r3, #96]	@ 0x60
{
 8002478:	b082      	sub	sp, #8
  __HAL_RCC_SYSCFG_CLK_ENABLE();
 800247a:	f002 0201 	and.w	r2, r2, #1
 800247e:	9200      	str	r2, [sp, #0]
 8002480:	9a00      	ldr	r2, [sp, #0]
  __HAL_RCC_PWR_CLK_ENABLE();
 8002482:	6d9a      	ldr	r2, [r3, #88]	@ 0x58
 8002484:	f042 5280 	orr.w	r2, r2, #268435456	@ 0x10000000
 8002488:	659a      	str	r2, [r3, #88]	@ 0x58
 800248a:	6d9b      	ldr	r3, [r3, #88]	@ 0x58
 800248c:	f003 5380 	and.w	r3, r3, #268435456	@ 0x10000000
 8002490:	9301      	str	r3, [sp, #4]
 8002492:	9b01      	ldr	r3, [sp, #4]
  /* System interrupt init*/

  /* USER CODE BEGIN MspInit 1 */

  /* USER CODE END MspInit 1 */
}
 8002494:	b002      	add	sp, #8
 8002496:	4770      	bx	lr
 8002498:	40021000 	.word	0x40021000

0800249c <NMI_Handler>:
{
  /* USER CODE BEGIN NonMaskableInt_IRQn 0 */

  /* USER CODE END NonMaskableInt_IRQn 0 */
  /* USER CODE BEGIN NonMaskableInt_IRQn 1 */
  while (1)
 800249c:	e7fe      	b.n	800249c <NMI_Handler>
 800249e:	bf00      	nop

080024a0 <HardFault_Handler>:
void HardFault_Handler(void)
{
  /* USER CODE BEGIN HardFault_IRQn 0 */

  /* USER CODE END HardFault_IRQn 0 */
  while (1)
 80024a0:	e7fe      	b.n	80024a0 <HardFault_Handler>
 80024a2:	bf00      	nop

080024a4 <MemManage_Handler>:
void MemManage_Handler(void)
{
  /* USER CODE BEGIN MemoryManagement_IRQn 0 */

  /* USER CODE END MemoryManagement_IRQn 0 */
  while (1)
 80024a4:	e7fe      	b.n	80024a4 <MemManage_Handler>
 80024a6:	bf00      	nop

080024a8 <BusFault_Handler>:
void BusFault_Handler(void)
{
  /* USER CODE BEGIN BusFault_IRQn 0 */

  /* USER CODE END BusFault_IRQn 0 */
  while (1)
 80024a8:	e7fe      	b.n	80024a8 <BusFault_Handler>
 80024aa:	bf00      	nop

080024ac <UsageFault_Handler>:
void UsageFault_Handler(void)
{
  /* USER CODE BEGIN UsageFault_IRQn 0 */

  /* USER CODE END UsageFault_IRQn 0 */
  while (1)
 80024ac:	e7fe      	b.n	80024ac <UsageFault_Handler>
 80024ae:	bf00      	nop

080024b0 <SVC_Handler>:

  /* USER CODE END SVCall_IRQn 0 */
  /* USER CODE BEGIN SVCall_IRQn 1 */

  /* USER CODE END SVCall_IRQn 1 */
}
 80024b0:	4770      	bx	lr
 80024b2:	bf00      	nop

080024b4 <DebugMon_Handler>:

/**
  * @brief This function handles Debug monitor.
  */
void DebugMon_Handler(void)
 80024b4:	4770      	bx	lr
 80024b6:	bf00      	nop

080024b8 <PendSV_Handler>:
}

/**
  * @brief This function handles Pendable request for system service.
  */
void PendSV_Handler(void)
 80024b8:	4770      	bx	lr
 80024ba:	bf00      	nop

080024bc <SysTick_Handler>:
void SysTick_Handler(void)
{
  /* USER CODE BEGIN SysTick_IRQn 0 */

  /* USER CODE END SysTick_IRQn 0 */
  HAL_IncTick();
 80024bc:	f000 b9de 	b.w	800287c <HAL_IncTick>

080024c0 <EXTI3_IRQHandler>:
  */
void EXTI3_IRQHandler(void)
{
  /* USER CODE BEGIN EXTI3_IRQn 0 */
  /* USER CODE END EXTI3_IRQn 0 */
  HAL_GPIO_EXTI_IRQHandler(RADIO_INT_Pin);
 80024c0:	2008      	movs	r0, #8
 80024c2:	f002 b81f 	b.w	8004504 <HAL_GPIO_EXTI_IRQHandler>
 80024c6:	bf00      	nop

080024c8 <DMA1_Channel1_IRQHandler>:
void DMA1_Channel1_IRQHandler(void)
{
  /* USER CODE BEGIN DMA1_Channel1_IRQn 0 */

  /* USER CODE END DMA1_Channel1_IRQn 0 */
  HAL_DMA_IRQHandler(&hdma_adc1);
 80024c8:	4801      	ldr	r0, [pc, #4]	@ (80024d0 <DMA1_Channel1_IRQHandler+0x8>)
 80024ca:	f001 bea3 	b.w	8004214 <HAL_DMA_IRQHandler>
 80024ce:	bf00      	nop
 80024d0:	20000484 	.word	0x20000484

080024d4 <TIM3_IRQHandler>:
void TIM3_IRQHandler(void)
{
  /* USER CODE BEGIN TIM3_IRQn 0 */

  /* USER CODE END TIM3_IRQn 0 */
  HAL_TIM_IRQHandler(&htim3);
 80024d4:	4801      	ldr	r0, [pc, #4]	@ (80024dc <TIM3_IRQHandler+0x8>)
 80024d6:	f003 bcdf 	b.w	8005e98 <HAL_TIM_IRQHandler>
 80024da:	bf00      	nop
 80024dc:	20001d40 	.word	0x20001d40

080024e0 <EXTI15_10_IRQHandler>:
void EXTI15_10_IRQHandler(void)
{
  /* USER CODE BEGIN EXTI15_10_IRQn 0 */

  /* USER CODE END EXTI15_10_IRQn 0 */
  HAL_GPIO_EXTI_IRQHandler(B1_Pin);
 80024e0:	f44f 5000 	mov.w	r0, #8192	@ 0x2000
 80024e4:	f002 b80e 	b.w	8004504 <HAL_GPIO_EXTI_IRQHandler>

080024e8 <_sbrk>:
  const uint32_t stack_limit = (uint32_t)&_estack - (uint32_t)&_Min_Stack_Size;
  const uint8_t *max_heap = (uint8_t *)stack_limit;
  uint8_t *prev_heap_end;

  /* Initialize heap end at first call */
  if (NULL == __sbrk_heap_end)
 80024e8:	490c      	ldr	r1, [pc, #48]	@ (800251c <_sbrk+0x34>)
  const uint32_t stack_limit = (uint32_t)&_estack - (uint32_t)&_Min_Stack_Size;
 80024ea:	4a0d      	ldr	r2, [pc, #52]	@ (8002520 <_sbrk+0x38>)
  if (NULL == __sbrk_heap_end)
 80024ec:	680b      	ldr	r3, [r1, #0]
{
 80024ee:	b510      	push	{r4, lr}
  const uint32_t stack_limit = (uint32_t)&_estack - (uint32_t)&_Min_Stack_Size;
 80024f0:	4c0c      	ldr	r4, [pc, #48]	@ (8002524 <_sbrk+0x3c>)
 80024f2:	1b12      	subs	r2, r2, r4
  if (NULL == __sbrk_heap_end)
 80024f4:	b12b      	cbz	r3, 8002502 <_sbrk+0x1a>
  {
    __sbrk_heap_end = &_end;
  }

  /* Protect heap from growing into the reserved MSP stack */
  if (__sbrk_heap_end + incr > max_heap)
 80024f6:	4418      	add	r0, r3
 80024f8:	4290      	cmp	r0, r2
 80024fa:	d807      	bhi.n	800250c <_sbrk+0x24>
    errno = ENOMEM;
    return (void *)-1;
  }

  prev_heap_end = __sbrk_heap_end;
  __sbrk_heap_end += incr;
 80024fc:	6008      	str	r0, [r1, #0]

  return (void *)prev_heap_end;
}
 80024fe:	4618      	mov	r0, r3
 8002500:	bd10      	pop	{r4, pc}
    __sbrk_heap_end = &_end;
 8002502:	4b09      	ldr	r3, [pc, #36]	@ (8002528 <_sbrk+0x40>)
 8002504:	600b      	str	r3, [r1, #0]
  if (__sbrk_heap_end + incr > max_heap)
 8002506:	4418      	add	r0, r3
 8002508:	4290      	cmp	r0, r2
 800250a:	d9f7      	bls.n	80024fc <_sbrk+0x14>
    errno = ENOMEM;
 800250c:	f005 fcec 	bl	8007ee8 <__errno>
 8002510:	230c      	movs	r3, #12
 8002512:	6003      	str	r3, [r0, #0]
    return (void *)-1;
 8002514:	f04f 33ff 	mov.w	r3, #4294967295
}
 8002518:	4618      	mov	r0, r3
 800251a:	bd10      	pop	{r4, pc}
 800251c:	20001d3c 	.word	0x20001d3c
 8002520:	20050000 	.word	0x20050000
 8002524:	00000400 	.word	0x00000400
 8002528:	20001f70 	.word	0x20001f70

0800252c <SystemInit>:
  SCB->VTOR = VECT_TAB_BASE_ADDRESS | VECT_TAB_OFFSET;
#endif

  /* FPU settings ------------------------------------------------------------*/
#if (__FPU_PRESENT == 1) && (__FPU_USED == 1)
  SCB->CPACR |= ((3UL << 20U)|(3UL << 22U));  /* set CP10 and CP11 Full Access */
 800252c:	480e      	ldr	r0, [pc, #56]	@ (8002568 <SystemInit+0x3c>)
#endif

  /* Reset the RCC clock configuration to the default reset state ------------*/
  /* Set MSION bit */
  RCC->CR |= RCC_CR_MSION;
 800252e:	4b0f      	ldr	r3, [pc, #60]	@ (800256c <SystemInit+0x40>)
  SCB->CPACR |= ((3UL << 20U)|(3UL << 22U));  /* set CP10 and CP11 Full Access */
 8002530:	f8d0 2088 	ldr.w	r2, [r0, #136]	@ 0x88
 8002534:	f442 0270 	orr.w	r2, r2, #15728640	@ 0xf00000
 8002538:	f8c0 2088 	str.w	r2, [r0, #136]	@ 0x88
  RCC->CR |= RCC_CR_MSION;
 800253c:	681a      	ldr	r2, [r3, #0]

  /* Reset CFGR register */
  RCC->CFGR = 0x00000000U;
 800253e:	2100      	movs	r1, #0
  RCC->CR |= RCC_CR_MSION;
 8002540:	f042 0201 	orr.w	r2, r2, #1
 8002544:	601a      	str	r2, [r3, #0]
  RCC->CFGR = 0x00000000U;
 8002546:	6099      	str	r1, [r3, #8]

  /* Reset HSEON, CSSON , HSION, and PLLON bits */
  RCC->CR &= 0xEAF6FFFFU;
 8002548:	681a      	ldr	r2, [r3, #0]
 800254a:	f022 52a8 	bic.w	r2, r2, #352321536	@ 0x15000000
 800254e:	f422 2210 	bic.w	r2, r2, #589824	@ 0x90000

  /* Reset PLLCFGR register */
  RCC->PLLCFGR = 0x00001000U;
 8002552:	f44f 5080 	mov.w	r0, #4096	@ 0x1000
  RCC->CR &= 0xEAF6FFFFU;
 8002556:	601a      	str	r2, [r3, #0]
  RCC->PLLCFGR = 0x00001000U;
 8002558:	60d8      	str	r0, [r3, #12]

  /* Reset HSEBYP bit */
  RCC->CR &= 0xFFFBFFFFU;
 800255a:	681a      	ldr	r2, [r3, #0]
 800255c:	f422 2280 	bic.w	r2, r2, #262144	@ 0x40000
 8002560:	601a      	str	r2, [r3, #0]

  /* Disable all interrupts */
  RCC->CIER = 0x00000000U;
 8002562:	6199      	str	r1, [r3, #24]
}
 8002564:	4770      	bx	lr
 8002566:	bf00      	nop
 8002568:	e000ed00 	.word	0xe000ed00
 800256c:	40021000 	.word	0x40021000

08002570 <MX_TIM3_Init>:

TIM_HandleTypeDef htim3;

/* TIM3 init function */
void MX_TIM3_Init(void)
{
 8002570:	b500      	push	{lr}
  TIM_MasterConfigTypeDef sMasterConfig = {0};

  /* USER CODE BEGIN TIM3_Init 1 */

  /* USER CODE END TIM3_Init 1 */
  htim3.Instance = TIM3;
 8002572:	481a      	ldr	r0, [pc, #104]	@ (80025dc <MX_TIM3_Init+0x6c>)
 8002574:	4a1a      	ldr	r2, [pc, #104]	@ (80025e0 <MX_TIM3_Init+0x70>)
 8002576:	6002      	str	r2, [r0, #0]
{
 8002578:	b089      	sub	sp, #36	@ 0x24
  htim3.Init.Prescaler = 23;
 800257a:	2217      	movs	r2, #23
  TIM_ClockConfigTypeDef sClockSourceConfig = {0};
 800257c:	2300      	movs	r3, #0
  htim3.Init.Prescaler = 23;
 800257e:	6042      	str	r2, [r0, #4]
 8002580:	22c3      	movs	r2, #195	@ 0xc3
  TIM_ClockConfigTypeDef sClockSourceConfig = {0};
 8002582:	e9cd 3304 	strd	r3, r3, [sp, #16]
 8002586:	e9cd 3306 	strd	r3, r3, [sp, #24]
  TIM_MasterConfigTypeDef sMasterConfig = {0};
 800258a:	e9cd 3301 	strd	r3, r3, [sp, #4]
  htim3.Init.Prescaler = 23;
 800258e:	e9c0 3202 	strd	r3, r2, [r0, #8]
  TIM_MasterConfigTypeDef sMasterConfig = {0};
 8002592:	9303      	str	r3, [sp, #12]
  htim3.Init.Prescaler = 23;
 8002594:	6103      	str	r3, [r0, #16]
  htim3.Init.CounterMode = TIM_COUNTERMODE_UP;
  htim3.Init.Period = 195;
  htim3.Init.ClockDivision = TIM_CLOCKDIVISION_DIV1;
  htim3.Init.AutoReloadPreload = TIM_AUTORELOAD_PRELOAD_DISABLE;
 8002596:	6183      	str	r3, [r0, #24]
  if (HAL_TIM_Base_Init(&htim3) != HAL_OK)
 8002598:	f003 fafc 	bl	8005b94 <HAL_TIM_Base_Init>
 800259c:	b998      	cbnz	r0, 80025c6 <MX_TIM3_Init+0x56>
  {
    Error_Handler();
  }
  sClockSourceConfig.ClockSource = TIM_CLOCKSOURCE_INTERNAL;
 800259e:	f44f 5380 	mov.w	r3, #4096	@ 0x1000
  if (HAL_TIM_ConfigClockSource(&htim3, &sClockSourceConfig) != HAL_OK)
 80025a2:	480e      	ldr	r0, [pc, #56]	@ (80025dc <MX_TIM3_Init+0x6c>)
  sClockSourceConfig.ClockSource = TIM_CLOCKSOURCE_INTERNAL;
 80025a4:	9304      	str	r3, [sp, #16]
  if (HAL_TIM_ConfigClockSource(&htim3, &sClockSourceConfig) != HAL_OK)
 80025a6:	a904      	add	r1, sp, #16
 80025a8:	f003 fbc2 	bl	8005d30 <HAL_TIM_ConfigClockSource>
 80025ac:	b998      	cbnz	r0, 80025d6 <MX_TIM3_Init+0x66>
  {
    Error_Handler();
  }
  sMasterConfig.MasterOutputTrigger = TIM_TRGO_UPDATE;
 80025ae:	2220      	movs	r2, #32
  sMasterConfig.MasterSlaveMode = TIM_MASTERSLAVEMODE_DISABLE;
 80025b0:	2300      	movs	r3, #0
  if (HAL_TIMEx_MasterConfigSynchronization(&htim3, &sMasterConfig) != HAL_OK)
 80025b2:	480a      	ldr	r0, [pc, #40]	@ (80025dc <MX_TIM3_Init+0x6c>)
  sMasterConfig.MasterOutputTrigger = TIM_TRGO_UPDATE;
 80025b4:	9201      	str	r2, [sp, #4]
  if (HAL_TIMEx_MasterConfigSynchronization(&htim3, &sMasterConfig) != HAL_OK)
 80025b6:	a901      	add	r1, sp, #4
  sMasterConfig.MasterSlaveMode = TIM_MASTERSLAVEMODE_DISABLE;
 80025b8:	9303      	str	r3, [sp, #12]
  if (HAL_TIMEx_MasterConfigSynchronization(&htim3, &sMasterConfig) != HAL_OK)
 80025ba:	f003 fd19 	bl	8005ff0 <HAL_TIMEx_MasterConfigSynchronization>
 80025be:	b928      	cbnz	r0, 80025cc <MX_TIM3_Init+0x5c>
  }
  /* USER CODE BEGIN TIM3_Init 2 */

  /* USER CODE END TIM3_Init 2 */

}
 80025c0:	b009      	add	sp, #36	@ 0x24
 80025c2:	f85d fb04 	ldr.w	pc, [sp], #4
    Error_Handler();
 80025c6:	f7fe fc09 	bl	8000ddc <Error_Handler>
 80025ca:	e7e8      	b.n	800259e <MX_TIM3_Init+0x2e>
    Error_Handler();
 80025cc:	f7fe fc06 	bl	8000ddc <Error_Handler>
}
 80025d0:	b009      	add	sp, #36	@ 0x24
 80025d2:	f85d fb04 	ldr.w	pc, [sp], #4
    Error_Handler();
 80025d6:	f7fe fc01 	bl	8000ddc <Error_Handler>
 80025da:	e7e8      	b.n	80025ae <MX_TIM3_Init+0x3e>
 80025dc:	20001d40 	.word	0x20001d40
 80025e0:	40000400 	.word	0x40000400

080025e4 <HAL_TIM_Base_MspInit>:

void HAL_TIM_Base_MspInit(TIM_HandleTypeDef* tim_baseHandle)
{

  if(tim_baseHandle->Instance==TIM3)
 80025e4:	4b0e      	ldr	r3, [pc, #56]	@ (8002620 <HAL_TIM_Base_MspInit+0x3c>)
 80025e6:	6802      	ldr	r2, [r0, #0]
 80025e8:	429a      	cmp	r2, r3
 80025ea:	d000      	beq.n	80025ee <HAL_TIM_Base_MspInit+0xa>
 80025ec:	4770      	bx	lr
  {
  /* USER CODE BEGIN TIM3_MspInit 0 */

  /* USER CODE END TIM3_MspInit 0 */
    /* TIM3 clock enable */
    __HAL_RCC_TIM3_CLK_ENABLE();
 80025ee:	f503 3303 	add.w	r3, r3, #134144	@ 0x20c00
{
 80025f2:	b500      	push	{lr}
    __HAL_RCC_TIM3_CLK_ENABLE();
 80025f4:	6d99      	ldr	r1, [r3, #88]	@ 0x58
 80025f6:	f041 0102 	orr.w	r1, r1, #2
 80025fa:	6599      	str	r1, [r3, #88]	@ 0x58
 80025fc:	6d9b      	ldr	r3, [r3, #88]	@ 0x58
{
 80025fe:	b083      	sub	sp, #12

    /* TIM3 interrupt Init */
    HAL_NVIC_SetPriority(TIM3_IRQn, 0, 0);
 8002600:	2200      	movs	r2, #0
    __HAL_RCC_TIM3_CLK_ENABLE();
 8002602:	f003 0302 	and.w	r3, r3, #2
 8002606:	9301      	str	r3, [sp, #4]
    HAL_NVIC_SetPriority(TIM3_IRQn, 0, 0);
 8002608:	201d      	movs	r0, #29
 800260a:	4611      	mov	r1, r2
    __HAL_RCC_TIM3_CLK_ENABLE();
 800260c:	9b01      	ldr	r3, [sp, #4]
    HAL_NVIC_SetPriority(TIM3_IRQn, 0, 0);
 800260e:	f000 ff8b 	bl	8003528 <HAL_NVIC_SetPriority>
    HAL_NVIC_EnableIRQ(TIM3_IRQn);
 8002612:	201d      	movs	r0, #29
  /* USER CODE BEGIN TIM3_MspInit 1 */

  /* USER CODE END TIM3_MspInit 1 */
  }
}
 8002614:	b003      	add	sp, #12
 8002616:	f85d eb04 	ldr.w	lr, [sp], #4
    HAL_NVIC_EnableIRQ(TIM3_IRQn);
 800261a:	f000 bfc1 	b.w	80035a0 <HAL_NVIC_EnableIRQ>
 800261e:	bf00      	nop
 8002620:	40000400 	.word	0x40000400
 8002624:	00000000 	.word	0x00000000

08002628 <MX_LPUART1_UART_Init>:
  hlpuart1.Init.WordLength = UART_WORDLENGTH_8B;
  hlpuart1.Init.StopBits = UART_STOPBITS_1;
  hlpuart1.Init.Parity = UART_PARITY_NONE;
  hlpuart1.Init.Mode = UART_MODE_TX_RX;
  hlpuart1.Init.HwFlowCtl = UART_HWCONTROL_NONE;
  hlpuart1.Init.OneBitSampling = UART_ONE_BIT_SAMPLE_DISABLE;
 8002628:	ed9f 7b0d 	vldr	d7, [pc, #52]	@ 8002660 <MX_LPUART1_UART_Init+0x38>
{
 800262c:	b510      	push	{r4, lr}
  hlpuart1.Instance = LPUART1;
 800262e:	480e      	ldr	r0, [pc, #56]	@ (8002668 <MX_LPUART1_UART_Init+0x40>)
 8002630:	4c0e      	ldr	r4, [pc, #56]	@ (800266c <MX_LPUART1_UART_Init+0x44>)
  hlpuart1.Init.WordLength = UART_WORDLENGTH_8B;
 8002632:	2300      	movs	r3, #0
  hlpuart1.Init.BaudRate = 115200;
 8002634:	f44f 31e1 	mov.w	r1, #115200	@ 0x1c200
  hlpuart1.Init.Mode = UART_MODE_TX_RX;
 8002638:	220c      	movs	r2, #12
  hlpuart1.Init.BaudRate = 115200;
 800263a:	e9c0 4100 	strd	r4, r1, [r0]
  hlpuart1.Init.OneBitSampling = UART_ONE_BIT_SAMPLE_DISABLE;
 800263e:	ed80 7b08 	vstr	d7, [r0, #32]
  hlpuart1.Init.StopBits = UART_STOPBITS_1;
 8002642:	e9c0 3302 	strd	r3, r3, [r0, #8]
  hlpuart1.Init.Mode = UART_MODE_TX_RX;
 8002646:	e9c0 3204 	strd	r3, r2, [r0, #16]
 800264a:	6183      	str	r3, [r0, #24]
  hlpuart1.AdvancedInit.AdvFeatureInit = UART_ADVFEATURE_NO_INIT;
  if (HAL_UART_Init(&hlpuart1) != HAL_OK)
 800264c:	f004 f926 	bl	800689c <HAL_UART_Init>
 8002650:	b900      	cbnz	r0, 8002654 <MX_LPUART1_UART_Init+0x2c>
  }
  /* USER CODE BEGIN LPUART1_Init 2 */

  /* USER CODE END LPUART1_Init 2 */

}
 8002652:	bd10      	pop	{r4, pc}
 8002654:	e8bd 4010 	ldmia.w	sp!, {r4, lr}
    Error_Handler();
 8002658:	f7fe bbc0 	b.w	8000ddc <Error_Handler>
 800265c:	f3af 8000 	nop.w
	...
 8002668:	20001d90 	.word	0x20001d90
 800266c:	40008000 	.word	0x40008000

08002670 <HAL_UART_MspInit>:

void HAL_UART_MspInit(UART_HandleTypeDef* uartHandle)
{
 8002670:	b510      	push	{r4, lr}
 8002672:	4604      	mov	r4, r0
 8002674:	b0aa      	sub	sp, #168	@ 0xa8

  GPIO_InitTypeDef GPIO_InitStruct = {0};
 8002676:	2100      	movs	r1, #0
  RCC_PeriphCLKInitTypeDef PeriphClkInit = {0};
 8002678:	228c      	movs	r2, #140	@ 0x8c
 800267a:	a807      	add	r0, sp, #28
  GPIO_InitTypeDef GPIO_InitStruct = {0};
 800267c:	e9cd 1102 	strd	r1, r1, [sp, #8]
 8002680:	e9cd 1104 	strd	r1, r1, [sp, #16]
 8002684:	9106      	str	r1, [sp, #24]
  RCC_PeriphCLKInitTypeDef PeriphClkInit = {0};
 8002686:	f005 fbe1 	bl	8007e4c <memset>
  if(uartHandle->Instance==LPUART1)
 800268a:	4b1d      	ldr	r3, [pc, #116]	@ (8002700 <HAL_UART_MspInit+0x90>)
 800268c:	6822      	ldr	r2, [r4, #0]
 800268e:	429a      	cmp	r2, r3
 8002690:	d001      	beq.n	8002696 <HAL_UART_MspInit+0x26>

  /* USER CODE BEGIN LPUART1_MspInit 1 */

  /* USER CODE END LPUART1_MspInit 1 */
  }
}
 8002692:	b02a      	add	sp, #168	@ 0xa8
 8002694:	bd10      	pop	{r4, pc}
    PeriphClkInit.PeriphClockSelection = RCC_PERIPHCLK_LPUART1;
 8002696:	2220      	movs	r2, #32
    PeriphClkInit.Lpuart1ClockSelection = RCC_LPUART1CLKSOURCE_SYSCLK;
 8002698:	f44f 6380 	mov.w	r3, #1024	@ 0x400
    if (HAL_RCCEx_PeriphCLKConfig(&PeriphClkInit) != HAL_OK)
 800269c:	a807      	add	r0, sp, #28
    PeriphClkInit.PeriphClockSelection = RCC_PERIPHCLK_LPUART1;
 800269e:	9207      	str	r2, [sp, #28]
    PeriphClkInit.Lpuart1ClockSelection = RCC_LPUART1CLKSOURCE_SYSCLK;
 80026a0:	931a      	str	r3, [sp, #104]	@ 0x68
    if (HAL_RCCEx_PeriphCLKConfig(&PeriphClkInit) != HAL_OK)
 80026a2:	f002 fd25 	bl	80050f0 <HAL_RCCEx_PeriphCLKConfig>
 80026a6:	bb20      	cbnz	r0, 80026f2 <HAL_UART_MspInit+0x82>
    __HAL_RCC_LPUART1_CLK_ENABLE();
 80026a8:	4b16      	ldr	r3, [pc, #88]	@ (8002704 <HAL_UART_MspInit+0x94>)
 80026aa:	6dda      	ldr	r2, [r3, #92]	@ 0x5c
 80026ac:	f042 0201 	orr.w	r2, r2, #1
 80026b0:	65da      	str	r2, [r3, #92]	@ 0x5c
 80026b2:	6dda      	ldr	r2, [r3, #92]	@ 0x5c
 80026b4:	f002 0201 	and.w	r2, r2, #1
 80026b8:	9200      	str	r2, [sp, #0]
 80026ba:	9a00      	ldr	r2, [sp, #0]
    __HAL_RCC_GPIOG_CLK_ENABLE();
 80026bc:	6cda      	ldr	r2, [r3, #76]	@ 0x4c
 80026be:	f042 0240 	orr.w	r2, r2, #64	@ 0x40
 80026c2:	64da      	str	r2, [r3, #76]	@ 0x4c
 80026c4:	6cdb      	ldr	r3, [r3, #76]	@ 0x4c
 80026c6:	f003 0340 	and.w	r3, r3, #64	@ 0x40
 80026ca:	9301      	str	r3, [sp, #4]
 80026cc:	9b01      	ldr	r3, [sp, #4]
    HAL_PWREx_EnableVddIO2();
 80026ce:	f001 ff6d 	bl	80045ac <HAL_PWREx_EnableVddIO2>
    GPIO_InitStruct.Pin = STLK_RX_Pin|STLK_TX_Pin;
 80026d2:	ed9f 7b09 	vldr	d7, [pc, #36]	@ 80026f8 <HAL_UART_MspInit+0x88>
 80026d6:	2200      	movs	r2, #0
 80026d8:	2303      	movs	r3, #3
 80026da:	e9cd 2304 	strd	r2, r3, [sp, #16]
    HAL_GPIO_Init(GPIOG, &GPIO_InitStruct);
 80026de:	480a      	ldr	r0, [pc, #40]	@ (8002708 <HAL_UART_MspInit+0x98>)
    GPIO_InitStruct.Alternate = GPIO_AF8_LPUART1;
 80026e0:	2308      	movs	r3, #8
    HAL_GPIO_Init(GPIOG, &GPIO_InitStruct);
 80026e2:	a902      	add	r1, sp, #8
    GPIO_InitStruct.Pin = STLK_RX_Pin|STLK_TX_Pin;
 80026e4:	ed8d 7b02 	vstr	d7, [sp, #8]
    GPIO_InitStruct.Alternate = GPIO_AF8_LPUART1;
 80026e8:	9306      	str	r3, [sp, #24]
    HAL_GPIO_Init(GPIOG, &GPIO_InitStruct);
 80026ea:	f001 fde1 	bl	80042b0 <HAL_GPIO_Init>
}
 80026ee:	b02a      	add	sp, #168	@ 0xa8
 80026f0:	bd10      	pop	{r4, pc}
      Error_Handler();
 80026f2:	f7fe fb73 	bl	8000ddc <Error_Handler>
 80026f6:	e7d7      	b.n	80026a8 <HAL_UART_MspInit+0x38>
 80026f8:	00000180 	.word	0x00000180
 80026fc:	00000002 	.word	0x00000002
 8002700:	40008000 	.word	0x40008000
 8002704:	40021000 	.word	0x40021000
 8002708:	48001800 	.word	0x48001800

0800270c <start_cycle_count>:

#if (PERF_COUNT == 1)

volatile uint8_t counting_cycles = 0;

void start_cycle_count() {
 800270c:	b510      	push	{r4, lr}
  __ASM volatile ("MRS %0, primask" : "=r" (result) :: "memory");
 800270e:	f3ef 8410 	mrs	r4, PRIMASK
  __ASM volatile ("cpsid i" : : : "memory");
 8002712:	b672      	cpsid	i
	uint32_t prim = __get_PRIMASK();
	__disable_irq();
	if (counting_cycles) {
 8002714:	4b0a      	ldr	r3, [pc, #40]	@ (8002740 <start_cycle_count+0x34>)
 8002716:	781a      	ldrb	r2, [r3, #0]
 8002718:	b95a      	cbnz	r2, 8002732 <start_cycle_count+0x26>
		DEBUG_PRINT("Tried re-entrant cycle counting.\r\n");
		Error_Handler();
	} else {
		counting_cycles = 1;
 800271a:	2201      	movs	r2, #1
 800271c:	701a      	strb	r2, [r3, #0]
	}
	if (!prim) {
 800271e:	b904      	cbnz	r4, 8002722 <start_cycle_count+0x16>
  __ASM volatile ("cpsie i" : : : "memory");
 8002720:	b662      	cpsie	i
		__enable_irq();
	}
	DWT->CTRL |= 1 ; // enable the counter
 8002722:	4b08      	ldr	r3, [pc, #32]	@ (8002744 <start_cycle_count+0x38>)
 8002724:	681a      	ldr	r2, [r3, #0]
	DWT->CYCCNT = 0; // reset the counter
 8002726:	2100      	movs	r1, #0
	DWT->CTRL |= 1 ; // enable the counter
 8002728:	f042 0201 	orr.w	r2, r2, #1
 800272c:	601a      	str	r2, [r3, #0]
	DWT->CYCCNT = 0; // reset the counter
 800272e:	6059      	str	r1, [r3, #4]
}
 8002730:	bd10      	pop	{r4, pc}
		DEBUG_PRINT("Tried re-entrant cycle counting.\r\n");
 8002732:	4805      	ldr	r0, [pc, #20]	@ (8002748 <start_cycle_count+0x3c>)
 8002734:	f005 f9f6 	bl	8007b24 <puts>
		Error_Handler();
 8002738:	f7fe fb50 	bl	8000ddc <Error_Handler>
 800273c:	e7ef      	b.n	800271e <start_cycle_count+0x12>
 800273e:	bf00      	nop
 8002740:	20001e18 	.word	0x20001e18
 8002744:	e0001000 	.word	0xe0001000
 8002748:	080097f4 	.word	0x080097f4

0800274c <stop_cycle_count>:
void stop_cycle_count(char *s) {
 800274c:	b538      	push	{r3, r4, r5, lr}
	uint32_t res = DWT->CYCCNT;
 800274e:	4909      	ldr	r1, [pc, #36]	@ (8002774 <stop_cycle_count+0x28>)
	counting_cycles = 0;
 8002750:	4b09      	ldr	r3, [pc, #36]	@ (8002778 <stop_cycle_count+0x2c>)
	uint32_t res = DWT->CYCCNT;
 8002752:	684d      	ldr	r5, [r1, #4]
void stop_cycle_count(char *s) {
 8002754:	4604      	mov	r4, r0
	counting_cycles = 0;
 8002756:	2200      	movs	r2, #0
	printf("[PERF] ");
 8002758:	4808      	ldr	r0, [pc, #32]	@ (800277c <stop_cycle_count+0x30>)
	counting_cycles = 0;
 800275a:	701a      	strb	r2, [r3, #0]
	printf("[PERF] ");
 800275c:	f005 f97a 	bl	8007a54 <iprintf>
	printf(s);
 8002760:	4620      	mov	r0, r4
 8002762:	f005 f977 	bl	8007a54 <iprintf>
	printf(" %lu cycles.\r\n", res);
 8002766:	4629      	mov	r1, r5
 8002768:	4805      	ldr	r0, [pc, #20]	@ (8002780 <stop_cycle_count+0x34>)
}
 800276a:	e8bd 4038 	ldmia.w	sp!, {r3, r4, r5, lr}
	printf(" %lu cycles.\r\n", res);
 800276e:	f005 b971 	b.w	8007a54 <iprintf>
 8002772:	bf00      	nop
 8002774:	e0001000 	.word	0xe0001000
 8002778:	20001e18 	.word	0x20001e18
 800277c:	08009818 	.word	0x08009818
 8002780:	08009820 	.word	0x08009820

08002784 <hex_encode>:


// Encode the binary buffer buf of length len in the null-terminated string s
// (which must have length at least 2*len+1).
void hex_encode(char* s, const uint8_t* buf, size_t len) {
    s[2*len] = '\0';
 8002784:	2300      	movs	r3, #0
 8002786:	f800 3012 	strb.w	r3, [r0, r2, lsl #1]
 800278a:	ea4f 0c42 	mov.w	ip, r2, lsl #1
    for (size_t i=0; i<len; i++) {
 800278e:	b18a      	cbz	r2, 80027b4 <hex_encode+0x30>
 8002790:	4a09      	ldr	r2, [pc, #36]	@ (80027b8 <hex_encode+0x34>)
 8002792:	3901      	subs	r1, #1
 8002794:	4484      	add	ip, r0
        s[i*2] = "0123456789abcdef"[buf[i] >> 4];
 8002796:	f811 3f01 	ldrb.w	r3, [r1, #1]!
 800279a:	091b      	lsrs	r3, r3, #4
    for (size_t i=0; i<len; i++) {
 800279c:	3002      	adds	r0, #2
        s[i*2] = "0123456789abcdef"[buf[i] >> 4];
 800279e:	5cd3      	ldrb	r3, [r2, r3]
 80027a0:	f800 3c02 	strb.w	r3, [r0, #-2]
        s[i*2+1] = "0123456789abcdef"[buf[i] & 0xF];
 80027a4:	780b      	ldrb	r3, [r1, #0]
 80027a6:	f003 030f 	and.w	r3, r3, #15
    for (size_t i=0; i<len; i++) {
 80027aa:	4584      	cmp	ip, r0
        s[i*2+1] = "0123456789abcdef"[buf[i] & 0xF];
 80027ac:	5cd3      	ldrb	r3, [r2, r3]
 80027ae:	f800 3c01 	strb.w	r3, [r0, #-1]
    for (size_t i=0; i<len; i++) {
 80027b2:	d1f0      	bne.n	8002796 <hex_encode+0x12>
    }
}
 80027b4:	4770      	bx	lr
 80027b6:	bf00      	nop
 80027b8:	08009830 	.word	0x08009830

080027bc <Reset_Handler>:

    .section	.text.Reset_Handler
	.weak	Reset_Handler
	.type	Reset_Handler, %function
Reset_Handler:
  ldr   sp, =_estack    /* Set stack pointer */
 80027bc:	f8df d034 	ldr.w	sp, [pc, #52]	@ 80027f4 <LoopForever+0x2>

/* Call the clock system initialization function.*/
    bl  SystemInit
 80027c0:	f7ff feb4 	bl	800252c <SystemInit>

/* Copy the data segment initializers from flash to SRAM */
  ldr r0, =_sdata
 80027c4:	480c      	ldr	r0, [pc, #48]	@ (80027f8 <LoopForever+0x6>)
  ldr r1, =_edata
 80027c6:	490d      	ldr	r1, [pc, #52]	@ (80027fc <LoopForever+0xa>)
  ldr r2, =_sidata
 80027c8:	4a0d      	ldr	r2, [pc, #52]	@ (8002800 <LoopForever+0xe>)
  movs r3, #0
 80027ca:	2300      	movs	r3, #0
  b LoopCopyDataInit
 80027cc:	e002      	b.n	80027d4 <LoopCopyDataInit>

080027ce <CopyDataInit>:

CopyDataInit:
  ldr r4, [r2, r3]
 80027ce:	58d4      	ldr	r4, [r2, r3]
  str r4, [r0, r3]
 80027d0:	50c4      	str	r4, [r0, r3]
  adds r3, r3, #4
 80027d2:	3304      	adds	r3, #4

080027d4 <LoopCopyDataInit>:

LoopCopyDataInit:
  adds r4, r0, r3
 80027d4:	18c4      	adds	r4, r0, r3
  cmp r4, r1
 80027d6:	428c      	cmp	r4, r1
  bcc CopyDataInit
 80027d8:	d3f9      	bcc.n	80027ce <CopyDataInit>
  
/* Zero fill the bss segment. */
  ldr r2, =_sbss
 80027da:	4a0a      	ldr	r2, [pc, #40]	@ (8002804 <LoopForever+0x12>)
  ldr r4, =_ebss
 80027dc:	4c0a      	ldr	r4, [pc, #40]	@ (8002808 <LoopForever+0x16>)
  movs r3, #0
 80027de:	2300      	movs	r3, #0
  b LoopFillZerobss
 80027e0:	e001      	b.n	80027e6 <LoopFillZerobss>

080027e2 <FillZerobss>:

FillZerobss:
  str  r3, [r2]
 80027e2:	6013      	str	r3, [r2, #0]
  adds r2, r2, #4
 80027e4:	3204      	adds	r2, #4

080027e6 <LoopFillZerobss>:

LoopFillZerobss:
  cmp r2, r4
 80027e6:	42a2      	cmp	r2, r4
  bcc FillZerobss
 80027e8:	d3fb      	bcc.n	80027e2 <FillZerobss>

/* Call static constructors */
    bl __libc_init_array
 80027ea:	f005 fb83 	bl	8007ef4 <__libc_init_array>
/* Call the application's entry point.*/
	bl	main
 80027ee:	f7fe fb6f 	bl	8000ed0 <main>

080027f2 <LoopForever>:

LoopForever:
    b LoopForever
 80027f2:	e7fe      	b.n	80027f2 <LoopForever>
  ldr   sp, =_estack    /* Set stack pointer */
 80027f4:	20050000 	.word	0x20050000
  ldr r0, =_sdata
 80027f8:	20000000 	.word	0x20000000
  ldr r1, =_edata
 80027fc:	20000468 	.word	0x20000468
  ldr r2, =_sidata
 8002800:	0801b6f0 	.word	0x0801b6f0
  ldr r2, =_sbss
 8002804:	20000468 	.word	0x20000468
  ldr r4, =_ebss
 8002808:	20001f6c 	.word	0x20001f6c

0800280c <ADC1_2_IRQHandler>:
 * @retval : None
*/
    .section	.text.Default_Handler,"ax",%progbits
Default_Handler:
Infinite_Loop:
	b	Infinite_Loop
 800280c:	e7fe      	b.n	800280c <ADC1_2_IRQHandler>
	...

08002810 <HAL_InitTick>:
  *       implementation  in user file.
  * @param TickPriority  Tick interrupt priority.
  * @retval HAL status
  */
__weak HAL_StatusTypeDef HAL_InitTick(uint32_t TickPriority)
{
 8002810:	b538      	push	{r3, r4, r5, lr}
  HAL_StatusTypeDef  status = HAL_OK;

  /* Check uwTickFreq for MisraC 2012 (even if uwTickFreq is a enum type that doesn't take the value zero)*/
  if ((uint32_t)uwTickFreq != 0U)
 8002812:	4b0f      	ldr	r3, [pc, #60]	@ (8002850 <HAL_InitTick+0x40>)
 8002814:	781b      	ldrb	r3, [r3, #0]
 8002816:	b90b      	cbnz	r3, 800281c <HAL_InitTick+0xc>
        status = HAL_ERROR;
      }
    }
    else
    {
      status = HAL_ERROR;
 8002818:	2001      	movs	r0, #1
    status = HAL_ERROR;
  }

  /* Return function status */
  return status;
}
 800281a:	bd38      	pop	{r3, r4, r5, pc}
    if (HAL_SYSTICK_Config(SystemCoreClock / (1000U / (uint32_t)uwTickFreq)) == 0U)
 800281c:	490d      	ldr	r1, [pc, #52]	@ (8002854 <HAL_InitTick+0x44>)
 800281e:	f44f 727a 	mov.w	r2, #1000	@ 0x3e8
 8002822:	4605      	mov	r5, r0
 8002824:	fbb2 f3f3 	udiv	r3, r2, r3
 8002828:	6808      	ldr	r0, [r1, #0]
 800282a:	fbb0 f0f3 	udiv	r0, r0, r3
 800282e:	f000 fec5 	bl	80035bc <HAL_SYSTICK_Config>
 8002832:	4604      	mov	r4, r0
 8002834:	2800      	cmp	r0, #0
 8002836:	d1ef      	bne.n	8002818 <HAL_InitTick+0x8>
      if (TickPriority < (1UL << __NVIC_PRIO_BITS))
 8002838:	2d0f      	cmp	r5, #15
 800283a:	d8ed      	bhi.n	8002818 <HAL_InitTick+0x8>
        HAL_NVIC_SetPriority(SysTick_IRQn, TickPriority, 0U);
 800283c:	4602      	mov	r2, r0
 800283e:	4629      	mov	r1, r5
 8002840:	f04f 30ff 	mov.w	r0, #4294967295
 8002844:	f000 fe70 	bl	8003528 <HAL_NVIC_SetPriority>
        uwTickPrio = TickPriority;
 8002848:	4b03      	ldr	r3, [pc, #12]	@ (8002858 <HAL_InitTick+0x48>)
 800284a:	4620      	mov	r0, r4
 800284c:	601d      	str	r5, [r3, #0]
}
 800284e:	bd38      	pop	{r3, r4, r5, pc}
 8002850:	20000404 	.word	0x20000404
 8002854:	20000400 	.word	0x20000400
 8002858:	20000408 	.word	0x20000408

0800285c <HAL_Init>:
{
 800285c:	b510      	push	{r4, lr}
  HAL_NVIC_SetPriorityGrouping(NVIC_PRIORITYGROUP_4);
 800285e:	2003      	movs	r0, #3
 8002860:	f000 fe50 	bl	8003504 <HAL_NVIC_SetPriorityGrouping>
  if (HAL_InitTick(TICK_INT_PRIORITY) != HAL_OK)
 8002864:	2000      	movs	r0, #0
 8002866:	f7ff ffd3 	bl	8002810 <HAL_InitTick>
 800286a:	b110      	cbz	r0, 8002872 <HAL_Init+0x16>
    status = HAL_ERROR;
 800286c:	2401      	movs	r4, #1
}
 800286e:	4620      	mov	r0, r4
 8002870:	bd10      	pop	{r4, pc}
 8002872:	4604      	mov	r4, r0
    HAL_MspInit();
 8002874:	f7ff fdfa 	bl	800246c <HAL_MspInit>
}
 8002878:	4620      	mov	r0, r4
 800287a:	bd10      	pop	{r4, pc}

0800287c <HAL_IncTick>:
  *      implementations in user file.
  * @retval None
  */
__weak void HAL_IncTick(void)
{
  uwTick += (uint32_t)uwTickFreq;
 800287c:	4a03      	ldr	r2, [pc, #12]	@ (800288c <HAL_IncTick+0x10>)
 800287e:	4b04      	ldr	r3, [pc, #16]	@ (8002890 <HAL_IncTick+0x14>)
 8002880:	6811      	ldr	r1, [r2, #0]
 8002882:	781b      	ldrb	r3, [r3, #0]
 8002884:	440b      	add	r3, r1
 8002886:	6013      	str	r3, [r2, #0]
}
 8002888:	4770      	bx	lr
 800288a:	bf00      	nop
 800288c:	20001e1c 	.word	0x20001e1c
 8002890:	20000404 	.word	0x20000404

08002894 <HAL_GetTick>:
  *       implementations in user file.
  * @retval tick value
  */
__weak uint32_t HAL_GetTick(void)
{
  return uwTick;
 8002894:	4b01      	ldr	r3, [pc, #4]	@ (800289c <HAL_GetTick+0x8>)
 8002896:	6818      	ldr	r0, [r3, #0]
}
 8002898:	4770      	bx	lr
 800289a:	bf00      	nop
 800289c:	20001e1c 	.word	0x20001e1c

080028a0 <HAL_Delay>:
  *       implementations in user file.
  * @param Delay  specifies the delay time length, in milliseconds.
  * @retval None
  */
__weak void HAL_Delay(uint32_t Delay)
{
 80028a0:	b538      	push	{r3, r4, r5, lr}
 80028a2:	4604      	mov	r4, r0
  uint32_t tickstart = HAL_GetTick();
 80028a4:	f7ff fff6 	bl	8002894 <HAL_GetTick>
  uint32_t wait = Delay;

  /* Add a period to guaranty minimum wait */
  if (wait < HAL_MAX_DELAY)
 80028a8:	1c63      	adds	r3, r4, #1
  uint32_t tickstart = HAL_GetTick();
 80028aa:	4605      	mov	r5, r0
  if (wait < HAL_MAX_DELAY)
 80028ac:	d002      	beq.n	80028b4 <HAL_Delay+0x14>
  {
    wait += (uint32_t)uwTickFreq;
 80028ae:	4b04      	ldr	r3, [pc, #16]	@ (80028c0 <HAL_Delay+0x20>)
 80028b0:	781b      	ldrb	r3, [r3, #0]
 80028b2:	441c      	add	r4, r3
  }

  while ((HAL_GetTick() - tickstart) < wait)
 80028b4:	f7ff ffee 	bl	8002894 <HAL_GetTick>
 80028b8:	1b40      	subs	r0, r0, r5
 80028ba:	42a0      	cmp	r0, r4
 80028bc:	d3fa      	bcc.n	80028b4 <HAL_Delay+0x14>
  {
  }
}
 80028be:	bd38      	pop	{r3, r4, r5, pc}
 80028c0:	20000404 	.word	0x20000404

080028c4 <HAL_ADC_Init>:
  *         without  disabling the other ADCs.
  * @param hadc ADC handle
  * @retval HAL status
  */
HAL_StatusTypeDef HAL_ADC_Init(ADC_HandleTypeDef *hadc)
{
 80028c4:	b530      	push	{r4, r5, lr}
 80028c6:	b083      	sub	sp, #12
  HAL_StatusTypeDef tmp_hal_status = HAL_OK;
  uint32_t tmp_cfgr;
  uint32_t tmp_adc_is_conversion_on_going_regular;
  uint32_t tmp_adc_is_conversion_on_going_injected;
  __IO uint32_t wait_loop_index = 0UL;
 80028c8:	2300      	movs	r3, #0
 80028ca:	9301      	str	r3, [sp, #4]

  /* Check ADC handle */
  if (hadc == NULL)
 80028cc:	2800      	cmp	r0, #0
 80028ce:	f000 809f 	beq.w	8002a10 <HAL_ADC_Init+0x14c>
  /* DISCEN and CONT bits cannot be set at the same time */
  assert_param(!((hadc->Init.DiscontinuousConvMode == ENABLE) && (hadc->Init.ContinuousConvMode == ENABLE)));

  /* Actions performed only if ADC is coming from state reset:                */
  /* - Initialization of ADC MSP                                              */
  if (hadc->State == HAL_ADC_STATE_RESET)
 80028d2:	6d85      	ldr	r5, [r0, #88]	@ 0x58
 80028d4:	4604      	mov	r4, r0
 80028d6:	2d00      	cmp	r5, #0
 80028d8:	f000 809f 	beq.w	8002a1a <HAL_ADC_Init+0x156>
    /* Initialize Lock */
    hadc->Lock = HAL_UNLOCKED;
  }

  /* - Exit from deep-power-down mode and ADC voltage regulator enable        */
  if (LL_ADC_IsDeepPowerDownEnabled(hadc->Instance) != 0UL)
 80028dc:	6822      	ldr	r2, [r4, #0]
  * @param  ADCx ADC instance
  * @retval 0: deep power down is disabled, 1: deep power down is enabled.
  */
__STATIC_INLINE uint32_t LL_ADC_IsDeepPowerDownEnabled(const ADC_TypeDef *ADCx)
{
  return ((READ_BIT(ADCx->CR, ADC_CR_DEEPPWD) == (ADC_CR_DEEPPWD)) ? 1UL : 0UL);
 80028de:	6893      	ldr	r3, [r2, #8]
 80028e0:	009d      	lsls	r5, r3, #2
 80028e2:	d505      	bpl.n	80028f0 <HAL_ADC_Init+0x2c>
  CLEAR_BIT(ADCx->CR, (ADC_CR_DEEPPWD | ADC_CR_BITS_PROPERTY_RS));
 80028e4:	6893      	ldr	r3, [r2, #8]
 80028e6:	f023 4320 	bic.w	r3, r3, #2684354560	@ 0xa0000000
 80028ea:	f023 033f 	bic.w	r3, r3, #63	@ 0x3f
 80028ee:	6093      	str	r3, [r2, #8]
  * @param  ADCx ADC instance
  * @retval 0: internal regulator is disabled, 1: internal regulator is enabled.
  */
__STATIC_INLINE uint32_t LL_ADC_IsInternalRegulatorEnabled(const ADC_TypeDef *ADCx)
{
  return ((READ_BIT(ADCx->CR, ADC_CR_ADVREGEN) == (ADC_CR_ADVREGEN)) ? 1UL : 0UL);
 80028f0:	6893      	ldr	r3, [r2, #8]
 80028f2:	00d8      	lsls	r0, r3, #3
 80028f4:	d419      	bmi.n	800292a <HAL_ADC_Init+0x66>
    LL_ADC_EnableInternalRegulator(hadc->Instance);

    /* Note: Variable divided by 2 to compensate partially              */
    /*       CPU processing cycles, scaling in us split to not          */
    /*       exceed 32 bits register capacity and handle low frequency. */
    wait_loop_index = ((LL_ADC_DELAY_INTERNAL_REGUL_STAB_US / 10UL) * ((SystemCoreClock / (100000UL * 2UL)) + 1UL));
 80028f6:	4b5b      	ldr	r3, [pc, #364]	@ (8002a64 <HAL_ADC_Init+0x1a0>)
 80028f8:	485b      	ldr	r0, [pc, #364]	@ (8002a68 <HAL_ADC_Init+0x1a4>)
 80028fa:	681b      	ldr	r3, [r3, #0]
  MODIFY_REG(ADCx->CR,
 80028fc:	6891      	ldr	r1, [r2, #8]
 80028fe:	099b      	lsrs	r3, r3, #6
 8002900:	fba0 0303 	umull	r0, r3, r0, r3
 8002904:	f021 4110 	bic.w	r1, r1, #2415919104	@ 0x90000000
 8002908:	099b      	lsrs	r3, r3, #6
 800290a:	f021 013f 	bic.w	r1, r1, #63	@ 0x3f
 800290e:	3301      	adds	r3, #1
 8002910:	005b      	lsls	r3, r3, #1
 8002912:	f041 5180 	orr.w	r1, r1, #268435456	@ 0x10000000
 8002916:	6091      	str	r1, [r2, #8]
 8002918:	9301      	str	r3, [sp, #4]
    while (wait_loop_index != 0UL)
 800291a:	9b01      	ldr	r3, [sp, #4]
 800291c:	b12b      	cbz	r3, 800292a <HAL_ADC_Init+0x66>
    {
      wait_loop_index--;
 800291e:	9b01      	ldr	r3, [sp, #4]
 8002920:	3b01      	subs	r3, #1
 8002922:	9301      	str	r3, [sp, #4]
    while (wait_loop_index != 0UL)
 8002924:	9b01      	ldr	r3, [sp, #4]
 8002926:	2b00      	cmp	r3, #0
 8002928:	d1f9      	bne.n	800291e <HAL_ADC_Init+0x5a>
  return ((READ_BIT(ADCx->CR, ADC_CR_ADVREGEN) == (ADC_CR_ADVREGEN)) ? 1UL : 0UL);
 800292a:	6893      	ldr	r3, [r2, #8]
 800292c:	00d9      	lsls	r1, r3, #3
 800292e:	d472      	bmi.n	8002a16 <HAL_ADC_Init+0x152>
  /* or not ADC is coming from state reset (if any potential problem of       */
  /* clocking, voltage regulator would not be enabled).                       */
  if (LL_ADC_IsInternalRegulatorEnabled(hadc->Instance) == 0UL)
  {
    /* Update ADC state machine to error */
    SET_BIT(hadc->State, HAL_ADC_STATE_ERROR_INTERNAL);
 8002930:	6da3      	ldr	r3, [r4, #88]	@ 0x58
 8002932:	f043 0310 	orr.w	r3, r3, #16
 8002936:	65a3      	str	r3, [r4, #88]	@ 0x58

    /* Set ADC error code to ADC peripheral internal error */
    SET_BIT(hadc->ErrorCode, HAL_ADC_ERROR_INTERNAL);
 8002938:	6de3      	ldr	r3, [r4, #92]	@ 0x5c

    tmp_hal_status = HAL_ERROR;
 800293a:	2001      	movs	r0, #1
    SET_BIT(hadc->ErrorCode, HAL_ADC_ERROR_INTERNAL);
 800293c:	4303      	orrs	r3, r0
 800293e:	65e3      	str	r3, [r4, #92]	@ 0x5c
  * @param  ADCx ADC instance
  * @retval 0: no conversion is on going on ADC group regular.
  */
__STATIC_INLINE uint32_t LL_ADC_REG_IsConversionOngoing(const ADC_TypeDef *ADCx)
{
  return ((READ_BIT(ADCx->CR, ADC_CR_ADSTART) == (ADC_CR_ADSTART)) ? 1UL : 0UL);
 8002940:	6893      	ldr	r3, [r2, #8]
 8002942:	f013 0f04 	tst.w	r3, #4
  /* correctly completed and if there is no conversion on going on regular    */
  /* group (ADC may already be enabled at this point if HAL_ADC_Init() is     */
  /* called to update a parameter on the fly).                                */
  tmp_adc_is_conversion_on_going_regular = LL_ADC_REG_IsConversionOngoing(hadc->Instance);

  if (((hadc->State & HAL_ADC_STATE_ERROR_INTERNAL) == 0UL)
 8002946:	6da3      	ldr	r3, [r4, #88]	@ 0x58
 8002948:	d15e      	bne.n	8002a08 <HAL_ADC_Init+0x144>
 800294a:	06db      	lsls	r3, r3, #27
 800294c:	d45c      	bmi.n	8002a08 <HAL_ADC_Init+0x144>
      && (tmp_adc_is_conversion_on_going_regular == 0UL)
     )
  {
    /* Set ADC state */
    ADC_STATE_CLR_SET(hadc->State,
 800294e:	6da3      	ldr	r3, [r4, #88]	@ 0x58
 8002950:	f423 7381 	bic.w	r3, r3, #258	@ 0x102
 8002954:	f043 0302 	orr.w	r3, r3, #2
 8002958:	65a3      	str	r3, [r4, #88]	@ 0x58
  return ((READ_BIT(ADCx->CR, ADC_CR_ADEN) == (ADC_CR_ADEN)) ? 1UL : 0UL);
 800295a:	6893      	ldr	r3, [r2, #8]
 800295c:	07dd      	lsls	r5, r3, #31
 800295e:	d410      	bmi.n	8002982 <HAL_ADC_Init+0xbe>
 8002960:	4942      	ldr	r1, [pc, #264]	@ (8002a6c <HAL_ADC_Init+0x1a8>)
 8002962:	4b43      	ldr	r3, [pc, #268]	@ (8002a70 <HAL_ADC_Init+0x1ac>)
 8002964:	6889      	ldr	r1, [r1, #8]
 8002966:	689b      	ldr	r3, [r3, #8]
 8002968:	430b      	orrs	r3, r1
 800296a:	4942      	ldr	r1, [pc, #264]	@ (8002a74 <HAL_ADC_Init+0x1b0>)
 800296c:	6889      	ldr	r1, [r1, #8]
 800296e:	430b      	orrs	r3, r1
 8002970:	07d9      	lsls	r1, r3, #31
 8002972:	d406      	bmi.n	8002982 <HAL_ADC_Init+0xbe>
  MODIFY_REG(ADCxy_COMMON->CCR, ADC_CCR_CKMODE | ADC_CCR_PRESC, CommonClock);
 8002974:	4940      	ldr	r1, [pc, #256]	@ (8002a78 <HAL_ADC_Init+0x1b4>)
 8002976:	6865      	ldr	r5, [r4, #4]
 8002978:	688b      	ldr	r3, [r1, #8]
 800297a:	f423 137c 	bic.w	r3, r3, #4128768	@ 0x3f0000
 800297e:	432b      	orrs	r3, r5
 8002980:	608b      	str	r3, [r1, #8]
    /*  - overrun                                  Init.Overrun               */
    /*  - discontinuous mode                       Init.DiscontinuousConvMode */
    /*  - discontinuous mode channel count         Init.NbrOfDiscConversion   */
    tmp_cfgr  = (ADC_CFGR_CONTINUOUS((uint32_t)hadc->Init.ContinuousConvMode)           |
                 hadc->Init.Overrun                                                     |
                 hadc->Init.DataAlign                                                   |
 8002982:	68e5      	ldr	r5, [r4, #12]
 8002984:	6b63      	ldr	r3, [r4, #52]	@ 0x34
                 hadc->Init.Resolution                                                  |
                 ADC_CFGR_REG_DISCONTINUOUS((uint32_t)hadc->Init.DiscontinuousConvMode));
 8002986:	f894 1020 	ldrb.w	r1, [r4, #32]
                 hadc->Init.DataAlign                                                   |
 800298a:	432b      	orrs	r3, r5
 800298c:	68a5      	ldr	r5, [r4, #8]
 800298e:	432b      	orrs	r3, r5
    tmp_cfgr  = (ADC_CFGR_CONTINUOUS((uint32_t)hadc->Init.ContinuousConvMode)           |
 8002990:	7e65      	ldrb	r5, [r4, #25]

    if (hadc->Init.DiscontinuousConvMode == ENABLE)
 8002992:	2901      	cmp	r1, #1
                 hadc->Init.DataAlign                                                   |
 8002994:	ea43 3345 	orr.w	r3, r3, r5, lsl #13
    tmp_cfgr  = (ADC_CFGR_CONTINUOUS((uint32_t)hadc->Init.ContinuousConvMode)           |
 8002998:	ea43 4301 	orr.w	r3, r3, r1, lsl #16
    if (hadc->Init.DiscontinuousConvMode == ENABLE)
 800299c:	d04b      	beq.n	8002a36 <HAL_ADC_Init+0x172>
    /* Enable external trigger if trigger selection is different of software  */
    /* start.                                                                 */
    /* Note: This configuration keeps the hardware feature of parameter       */
    /*       ExternalTrigConvEdge "trigger edge none" equivalent to           */
    /*       software start.                                                  */
    if (hadc->Init.ExternalTrigConv != ADC_SOFTWARE_START)
 800299e:	6aa1      	ldr	r1, [r4, #40]	@ 0x28
 80029a0:	b121      	cbz	r1, 80029ac <HAL_ADC_Init+0xe8>
    {
      tmp_cfgr |= ((hadc->Init.ExternalTrigConv & ADC_CFGR_EXTSEL)
                   | hadc->Init.ExternalTrigConvEdge
 80029a2:	6ae5      	ldr	r5, [r4, #44]	@ 0x2c
      tmp_cfgr |= ((hadc->Init.ExternalTrigConv & ADC_CFGR_EXTSEL)
 80029a4:	f401 7170 	and.w	r1, r1, #960	@ 0x3c0
                   | hadc->Init.ExternalTrigConvEdge
 80029a8:	4329      	orrs	r1, r5
      tmp_cfgr |= ((hadc->Init.ExternalTrigConv & ADC_CFGR_EXTSEL)
 80029aa:	430b      	orrs	r3, r1
                  );
    }

    /* Update Configuration Register CFGR */
    MODIFY_REG(hadc->Instance->CFGR, ADC_CFGR_FIELDS_1, tmp_cfgr);
 80029ac:	68d5      	ldr	r5, [r2, #12]
 80029ae:	4933      	ldr	r1, [pc, #204]	@ (8002a7c <HAL_ADC_Init+0x1b8>)
 80029b0:	4029      	ands	r1, r5
 80029b2:	4319      	orrs	r1, r3
 80029b4:	60d1      	str	r1, [r2, #12]
  * @param  ADCx ADC instance
  * @retval 0: no conversion is on going on ADC group injected.
  */
__STATIC_INLINE uint32_t LL_ADC_INJ_IsConversionOngoing(const ADC_TypeDef *ADCx)
{
  return ((READ_BIT(ADCx->CR, ADC_CR_JADSTART) == (ADC_CR_JADSTART)) ? 1UL : 0UL);
 80029b6:	6893      	ldr	r3, [r2, #8]
 80029b8:	071b      	lsls	r3, r3, #28
 80029ba:	d416      	bmi.n	80029ea <HAL_ADC_Init+0x126>
        && (tmp_adc_is_conversion_on_going_injected == 0UL)
       )
    {
      tmp_cfgr = (ADC_CFGR_DFSDM(hadc)                                            |
                   ADC_CFGR_AUTOWAIT((uint32_t)hadc->Init.LowPowerAutoWait)        |
                   ADC_CFGR_DMACONTREQ((uint32_t)hadc->Init.DMAContinuousRequests));
 80029bc:	f894 3030 	ldrb.w	r3, [r4, #48]	@ 0x30
                   ADC_CFGR_AUTOWAIT((uint32_t)hadc->Init.LowPowerAutoWait)        |
 80029c0:	7e25      	ldrb	r5, [r4, #24]

      MODIFY_REG(hadc->Instance->CFGR, ADC_CFGR_FIELDS_2, tmp_cfgr);
 80029c2:	68d1      	ldr	r1, [r2, #12]
                   ADC_CFGR_DMACONTREQ((uint32_t)hadc->Init.DMAContinuousRequests));
 80029c4:	005b      	lsls	r3, r3, #1
      tmp_cfgr = (ADC_CFGR_DFSDM(hadc)                                            |
 80029c6:	ea43 3385 	orr.w	r3, r3, r5, lsl #14
 80029ca:	6ce5      	ldr	r5, [r4, #76]	@ 0x4c
      MODIFY_REG(hadc->Instance->CFGR, ADC_CFGR_FIELDS_2, tmp_cfgr);
 80029cc:	f421 4180 	bic.w	r1, r1, #16384	@ 0x4000
 80029d0:	f021 0106 	bic.w	r1, r1, #6
      tmp_cfgr = (ADC_CFGR_DFSDM(hadc)                                            |
 80029d4:	432b      	orrs	r3, r5
      MODIFY_REG(hadc->Instance->CFGR, ADC_CFGR_FIELDS_2, tmp_cfgr);
 80029d6:	430b      	orrs	r3, r1
 80029d8:	60d3      	str	r3, [r2, #12]

      if (hadc->Init.OversamplingMode == ENABLE)
 80029da:	f894 3038 	ldrb.w	r3, [r4, #56]	@ 0x38
 80029de:	2b01      	cmp	r3, #1
 80029e0:	d02e      	beq.n	8002a40 <HAL_ADC_Init+0x17c>
                  );
      }
      else
      {
        /* Disable ADC oversampling scope on ADC group regular */
        CLEAR_BIT(hadc->Instance->CFGR2, ADC_CFGR2_ROVSE);
 80029e2:	6913      	ldr	r3, [r2, #16]
 80029e4:	f023 0301 	bic.w	r3, r3, #1
 80029e8:	6113      	str	r3, [r2, #16]
    /*   Note: Scan mode is not present by hardware on this device, but       */
    /*   emulated by software for alignment over all STM32 devices.           */
    /* - if scan mode is enabled, regular channels sequence length is set to  */
    /*   parameter "NbrOfConversion".                                         */

    if (hadc->Init.ScanConvMode == ADC_SCAN_ENABLE)
 80029ea:	6923      	ldr	r3, [r4, #16]
 80029ec:	2b01      	cmp	r3, #1
 80029ee:	d01a      	beq.n	8002a26 <HAL_ADC_Init+0x162>
      /* Set number of ranks in regular group sequencer */
      MODIFY_REG(hadc->Instance->SQR1, ADC_SQR1_L, (hadc->Init.NbrOfConversion - (uint8_t)1));
    }
    else
    {
      CLEAR_BIT(hadc->Instance->SQR1, ADC_SQR1_L);
 80029f0:	6b13      	ldr	r3, [r2, #48]	@ 0x30
 80029f2:	f023 030f 	bic.w	r3, r3, #15
 80029f6:	6313      	str	r3, [r2, #48]	@ 0x30
    }

    /* Initialize the ADC state */
    /* Clear HAL_ADC_STATE_BUSY_INTERNAL bit, set HAL_ADC_STATE_READY bit */
    ADC_STATE_CLR_SET(hadc->State, HAL_ADC_STATE_BUSY_INTERNAL, HAL_ADC_STATE_READY);
 80029f8:	6da3      	ldr	r3, [r4, #88]	@ 0x58
 80029fa:	f023 0303 	bic.w	r3, r3, #3
 80029fe:	f043 0301 	orr.w	r3, r3, #1
 8002a02:	65a3      	str	r3, [r4, #88]	@ 0x58
    tmp_hal_status = HAL_ERROR;
  }

  /* Return function status */
  return tmp_hal_status;
}
 8002a04:	b003      	add	sp, #12
 8002a06:	bd30      	pop	{r4, r5, pc}
    SET_BIT(hadc->State, HAL_ADC_STATE_ERROR_INTERNAL);
 8002a08:	6da3      	ldr	r3, [r4, #88]	@ 0x58
 8002a0a:	f043 0310 	orr.w	r3, r3, #16
 8002a0e:	65a3      	str	r3, [r4, #88]	@ 0x58
    return HAL_ERROR;
 8002a10:	2001      	movs	r0, #1
}
 8002a12:	b003      	add	sp, #12
 8002a14:	bd30      	pop	{r4, r5, pc}
  HAL_StatusTypeDef tmp_hal_status = HAL_OK;
 8002a16:	2000      	movs	r0, #0
 8002a18:	e792      	b.n	8002940 <HAL_ADC_Init+0x7c>
    HAL_ADC_MspInit(hadc);
 8002a1a:	f7fd fe05 	bl	8000628 <HAL_ADC_MspInit>
    ADC_CLEAR_ERRORCODE(hadc);
 8002a1e:	65e5      	str	r5, [r4, #92]	@ 0x5c
    hadc->Lock = HAL_UNLOCKED;
 8002a20:	f884 5054 	strb.w	r5, [r4, #84]	@ 0x54
 8002a24:	e75a      	b.n	80028dc <HAL_ADC_Init+0x18>
      MODIFY_REG(hadc->Instance->SQR1, ADC_SQR1_L, (hadc->Init.NbrOfConversion - (uint8_t)1));
 8002a26:	6b11      	ldr	r1, [r2, #48]	@ 0x30
 8002a28:	69e3      	ldr	r3, [r4, #28]
 8002a2a:	f021 010f 	bic.w	r1, r1, #15
 8002a2e:	3b01      	subs	r3, #1
 8002a30:	430b      	orrs	r3, r1
 8002a32:	6313      	str	r3, [r2, #48]	@ 0x30
 8002a34:	e7e0      	b.n	80029f8 <HAL_ADC_Init+0x134>
      tmp_cfgr |= ADC_CFGR_DISCONTINUOUS_NUM(hadc->Init.NbrOfDiscConversion);
 8002a36:	6a61      	ldr	r1, [r4, #36]	@ 0x24
 8002a38:	3901      	subs	r1, #1
 8002a3a:	ea43 4341 	orr.w	r3, r3, r1, lsl #17
 8002a3e:	e7ae      	b.n	800299e <HAL_ADC_Init+0xda>
        MODIFY_REG(hadc->Instance->CFGR2,
 8002a40:	6911      	ldr	r1, [r2, #16]
 8002a42:	6be3      	ldr	r3, [r4, #60]	@ 0x3c
 8002a44:	6c25      	ldr	r5, [r4, #64]	@ 0x40
 8002a46:	f421 61ff 	bic.w	r1, r1, #2040	@ 0x7f8
 8002a4a:	f021 0104 	bic.w	r1, r1, #4
 8002a4e:	432b      	orrs	r3, r5
 8002a50:	430b      	orrs	r3, r1
 8002a52:	6c61      	ldr	r1, [r4, #68]	@ 0x44
 8002a54:	430b      	orrs	r3, r1
 8002a56:	6ca1      	ldr	r1, [r4, #72]	@ 0x48
 8002a58:	430b      	orrs	r3, r1
 8002a5a:	f043 0301 	orr.w	r3, r3, #1
 8002a5e:	6113      	str	r3, [r2, #16]
 8002a60:	e7c3      	b.n	80029ea <HAL_ADC_Init+0x126>
 8002a62:	bf00      	nop
 8002a64:	20000400 	.word	0x20000400
 8002a68:	053e2d63 	.word	0x053e2d63
 8002a6c:	50040000 	.word	0x50040000
 8002a70:	50040100 	.word	0x50040100
 8002a74:	50040200 	.word	0x50040200
 8002a78:	50040300 	.word	0x50040300
 8002a7c:	fff0c007 	.word	0xfff0c007

08002a80 <ADC_DMAHalfConvCplt>:
  * @brief  DMA half transfer complete callback.
  * @param hdma pointer to DMA handle.
  * @retval None
  */
void ADC_DMAHalfConvCplt(DMA_HandleTypeDef *hdma)
{
 8002a80:	b508      	push	{r3, lr}

  /* Half conversion callback */
#if (USE_HAL_ADC_REGISTER_CALLBACKS == 1)
  hadc->ConvHalfCpltCallback(hadc);
#else
  HAL_ADC_ConvHalfCpltCallback(hadc);
 8002a82:	6a80      	ldr	r0, [r0, #40]	@ 0x28
 8002a84:	f7fd fee6 	bl	8000854 <HAL_ADC_ConvHalfCpltCallback>
#endif /* USE_HAL_ADC_REGISTER_CALLBACKS */
}
 8002a88:	bd08      	pop	{r3, pc}
 8002a8a:	bf00      	nop

08002a8c <HAL_ADC_ErrorCallback>:
__weak void HAL_ADC_ErrorCallback(ADC_HandleTypeDef *hadc)
 8002a8c:	4770      	bx	lr
 8002a8e:	bf00      	nop

08002a90 <ADC_DMAConvCplt>:
  ADC_HandleTypeDef *hadc = (ADC_HandleTypeDef *)((DMA_HandleTypeDef *)hdma)->Parent;
 8002a90:	6a83      	ldr	r3, [r0, #40]	@ 0x28
  if ((hadc->State & (HAL_ADC_STATE_ERROR_INTERNAL | HAL_ADC_STATE_ERROR_DMA)) == 0UL)
 8002a92:	6d9a      	ldr	r2, [r3, #88]	@ 0x58
 8002a94:	f012 0f50 	tst.w	r2, #80	@ 0x50
{
 8002a98:	b510      	push	{r4, lr}
    SET_BIT(hadc->State, HAL_ADC_STATE_REG_EOC);
 8002a9a:	6d9a      	ldr	r2, [r3, #88]	@ 0x58
  if ((hadc->State & (HAL_ADC_STATE_ERROR_INTERNAL | HAL_ADC_STATE_ERROR_DMA)) == 0UL)
 8002a9c:	d11d      	bne.n	8002ada <ADC_DMAConvCplt+0x4a>
    if ((hadc->Instance->ISR & ADC_FLAG_EOS) != 0UL)
 8002a9e:	6819      	ldr	r1, [r3, #0]
    SET_BIT(hadc->State, HAL_ADC_STATE_REG_EOC);
 8002aa0:	f442 7200 	orr.w	r2, r2, #512	@ 0x200
 8002aa4:	659a      	str	r2, [r3, #88]	@ 0x58
    if ((hadc->Instance->ISR & ADC_FLAG_EOS) != 0UL)
 8002aa6:	680a      	ldr	r2, [r1, #0]
 8002aa8:	f012 0f08 	tst.w	r2, #8
  return ((READ_BIT(ADCx->CFGR, ADC_CFGR_EXTEN) == (LL_ADC_REG_TRIG_SOFTWARE & ADC_CFGR_EXTEN)) ? 1UL : 0UL);
 8002aac:	68ca      	ldr	r2, [r1, #12]
 8002aae:	d01b      	beq.n	8002ae8 <ADC_DMAConvCplt+0x58>
 8002ab0:	f412 6f40 	tst.w	r2, #3072	@ 0xc00
 8002ab4:	d10d      	bne.n	8002ad2 <ADC_DMAConvCplt+0x42>
        if (READ_BIT(hadc->Instance->CFGR, ADC_CFGR_CONT) == 0UL)
 8002ab6:	68ca      	ldr	r2, [r1, #12]
 8002ab8:	0494      	lsls	r4, r2, #18
 8002aba:	d40a      	bmi.n	8002ad2 <ADC_DMAConvCplt+0x42>
        CLEAR_BIT(hadc->State, HAL_ADC_STATE_REG_BUSY);
 8002abc:	6d9a      	ldr	r2, [r3, #88]	@ 0x58
 8002abe:	f422 7280 	bic.w	r2, r2, #256	@ 0x100
 8002ac2:	659a      	str	r2, [r3, #88]	@ 0x58
        if ((hadc->State & HAL_ADC_STATE_INJ_BUSY) == 0UL)
 8002ac4:	6d9a      	ldr	r2, [r3, #88]	@ 0x58
 8002ac6:	04d1      	lsls	r1, r2, #19
 8002ac8:	d403      	bmi.n	8002ad2 <ADC_DMAConvCplt+0x42>
          SET_BIT(hadc->State, HAL_ADC_STATE_READY);
 8002aca:	6d9a      	ldr	r2, [r3, #88]	@ 0x58
 8002acc:	f042 0201 	orr.w	r2, r2, #1
 8002ad0:	659a      	str	r2, [r3, #88]	@ 0x58
    HAL_ADC_ConvCpltCallback(hadc);
 8002ad2:	4618      	mov	r0, r3
 8002ad4:	f7fd fe7c 	bl	80007d0 <HAL_ADC_ConvCpltCallback>
}
 8002ad8:	bd10      	pop	{r4, pc}
    if ((hadc->State & HAL_ADC_STATE_ERROR_INTERNAL) != 0UL)
 8002ada:	06d2      	lsls	r2, r2, #27
 8002adc:	d40a      	bmi.n	8002af4 <ADC_DMAConvCplt+0x64>
      hadc->DMA_Handle->XferErrorCallback(hdma);
 8002ade:	6d1b      	ldr	r3, [r3, #80]	@ 0x50
}
 8002ae0:	e8bd 4010 	ldmia.w	sp!, {r4, lr}
      hadc->DMA_Handle->XferErrorCallback(hdma);
 8002ae4:	6b5b      	ldr	r3, [r3, #52]	@ 0x34
 8002ae6:	4718      	bx	r3
      if (READ_BIT(hadc->Instance->CFGR, ADC_CFGR_DMACFG) == 0UL)
 8002ae8:	0790      	lsls	r0, r2, #30
 8002aea:	d5e7      	bpl.n	8002abc <ADC_DMAConvCplt+0x2c>
    HAL_ADC_ConvCpltCallback(hadc);
 8002aec:	4618      	mov	r0, r3
 8002aee:	f7fd fe6f 	bl	80007d0 <HAL_ADC_ConvCpltCallback>
 8002af2:	e7f1      	b.n	8002ad8 <ADC_DMAConvCplt+0x48>
      HAL_ADC_ErrorCallback(hadc);
 8002af4:	4618      	mov	r0, r3
 8002af6:	f7ff ffc9 	bl	8002a8c <HAL_ADC_ErrorCallback>
}
 8002afa:	bd10      	pop	{r4, pc}

08002afc <ADC_DMAError>:
  * @retval None
  */
void ADC_DMAError(DMA_HandleTypeDef *hdma)
{
  /* Retrieve ADC handle corresponding to current DMA handle */
  ADC_HandleTypeDef *hadc = (ADC_HandleTypeDef *)((DMA_HandleTypeDef *)hdma)->Parent;
 8002afc:	6a80      	ldr	r0, [r0, #40]	@ 0x28
{
 8002afe:	b508      	push	{r3, lr}

  /* Set ADC state */
  SET_BIT(hadc->State, HAL_ADC_STATE_ERROR_DMA);
 8002b00:	6d83      	ldr	r3, [r0, #88]	@ 0x58
 8002b02:	f043 0340 	orr.w	r3, r3, #64	@ 0x40
 8002b06:	6583      	str	r3, [r0, #88]	@ 0x58

  /* Set ADC error code to DMA error */
  SET_BIT(hadc->ErrorCode, HAL_ADC_ERROR_DMA);
 8002b08:	6dc3      	ldr	r3, [r0, #92]	@ 0x5c
 8002b0a:	f043 0304 	orr.w	r3, r3, #4
 8002b0e:	65c3      	str	r3, [r0, #92]	@ 0x5c

  /* Error callback */
#if (USE_HAL_ADC_REGISTER_CALLBACKS == 1)
  hadc->ErrorCallback(hadc);
#else
  HAL_ADC_ErrorCallback(hadc);
 8002b10:	f7ff ffbc 	bl	8002a8c <HAL_ADC_ErrorCallback>
#endif /* USE_HAL_ADC_REGISTER_CALLBACKS */
}
 8002b14:	bd08      	pop	{r3, pc}
 8002b16:	bf00      	nop

08002b18 <HAL_ADC_ConfigChannel>:
{
 8002b18:	e92d 41f0 	stmdb	sp!, {r4, r5, r6, r7, r8, lr}
  __HAL_LOCK(hadc);
 8002b1c:	f890 2054 	ldrb.w	r2, [r0, #84]	@ 0x54
{
 8002b20:	b082      	sub	sp, #8
 8002b22:	4603      	mov	r3, r0
  __HAL_LOCK(hadc);
 8002b24:	2a01      	cmp	r2, #1
  __IO uint32_t wait_loop_index = 0UL;
 8002b26:	f04f 0000 	mov.w	r0, #0
 8002b2a:	9001      	str	r0, [sp, #4]
  __HAL_LOCK(hadc);
 8002b2c:	f000 812f 	beq.w	8002d8e <HAL_ADC_ConfigChannel+0x276>
  if (LL_ADC_REG_IsConversionOngoing(hadc->Instance) == 0UL)
 8002b30:	681c      	ldr	r4, [r3, #0]
  __HAL_LOCK(hadc);
 8002b32:	2001      	movs	r0, #1
 8002b34:	f883 0054 	strb.w	r0, [r3, #84]	@ 0x54
  return ((READ_BIT(ADCx->CR, ADC_CR_ADSTART) == (ADC_CR_ADSTART)) ? 1UL : 0UL);
 8002b38:	68a2      	ldr	r2, [r4, #8]
 8002b3a:	f012 0c04 	ands.w	ip, r2, #4
 8002b3e:	d155      	bne.n	8002bec <HAL_ADC_ConfigChannel+0xd4>
    uint32_t config_rank = pConfig->Rank;
 8002b40:	6848      	ldr	r0, [r1, #4]
    if (pConfig->Rank <= 5U)
 8002b42:	2805      	cmp	r0, #5
 8002b44:	f240 8096 	bls.w	8002c74 <HAL_ADC_ConfigChannel+0x15c>
  MODIFY_REG(*preg,
 8002b48:	f000 051f 	and.w	r5, r0, #31
 8002b4c:	f04f 0e1f 	mov.w	lr, #31
  __IO uint32_t *preg = __ADC_PTR_REG_OFFSET(ADCx->SQR1,
 8002b50:	0982      	lsrs	r2, r0, #6
  MODIFY_REG(*preg,
 8002b52:	fa0e fe05 	lsl.w	lr, lr, r5
  __IO uint32_t *preg = __ADC_PTR_REG_OFFSET(ADCx->SQR1,
 8002b56:	f002 0c0c 	and.w	ip, r2, #12
  MODIFY_REG(*preg,
 8002b5a:	ea6f 0e0e 	mvn.w	lr, lr
 8002b5e:	680a      	ldr	r2, [r1, #0]
  __IO uint32_t *preg = __ADC_PTR_REG_OFFSET(ADCx->SQR1,
 8002b60:	f104 0030 	add.w	r0, r4, #48	@ 0x30
  MODIFY_REG(*preg,
 8002b64:	f3c2 6284 	ubfx	r2, r2, #26, #5
 8002b68:	40aa      	lsls	r2, r5
 8002b6a:	f850 500c 	ldr.w	r5, [r0, ip]
 8002b6e:	ea05 050e 	and.w	r5, r5, lr
 8002b72:	432a      	orrs	r2, r5
 8002b74:	f840 200c 	str.w	r2, [r0, ip]
  return ((READ_BIT(ADCx->CR, ADC_CR_ADSTART) == (ADC_CR_ADSTART)) ? 1UL : 0UL);
 8002b78:	68a2      	ldr	r2, [r4, #8]
 8002b7a:	0757      	lsls	r7, r2, #29
 8002b7c:	d540      	bpl.n	8002c00 <HAL_ADC_ConfigChannel+0xe8>
  return ((READ_BIT(ADCx->CR, ADC_CR_JADSTART) == (ADC_CR_JADSTART)) ? 1UL : 0UL);
 8002b7e:	68a2      	ldr	r2, [r4, #8]
        LL_ADC_SetChannelSamplingTime(hadc->Instance, pConfig->Channel, LL_ADC_SAMPLINGTIME_2CYCLES_5);
 8002b80:	680a      	ldr	r2, [r1, #0]
  return ((READ_BIT(ADCx->CR, ADC_CR_ADEN) == (ADC_CR_ADEN)) ? 1UL : 0UL);
 8002b82:	68a0      	ldr	r0, [r4, #8]
 8002b84:	07c5      	lsls	r5, r0, #31
 8002b86:	d412      	bmi.n	8002bae <HAL_ADC_ConfigChannel+0x96>
      LL_ADC_SetChannelSingleDiff(hadc->Instance, pConfig->Channel, pConfig->SingleDiff);
 8002b88:	68ce      	ldr	r6, [r1, #12]
  MODIFY_REG(ADCx->DIFSEL,
 8002b8a:	48af      	ldr	r0, [pc, #700]	@ (8002e48 <HAL_ADC_ConfigChannel+0x330>)
 8002b8c:	f8d4 50b0 	ldr.w	r5, [r4, #176]	@ 0xb0
 8002b90:	f006 0718 	and.w	r7, r6, #24
 8002b94:	40f8      	lsrs	r0, r7
 8002b96:	f3c2 0712 	ubfx	r7, r2, #0, #19
 8002b9a:	4010      	ands	r0, r2
 8002b9c:	ea25 0507 	bic.w	r5, r5, r7
 8002ba0:	4328      	orrs	r0, r5
 8002ba2:	f8c4 00b0 	str.w	r0, [r4, #176]	@ 0xb0
      if (pConfig->SingleDiff == ADC_DIFFERENTIAL_ENDED)
 8002ba6:	48a9      	ldr	r0, [pc, #676]	@ (8002e4c <HAL_ADC_ConfigChannel+0x334>)
 8002ba8:	4286      	cmp	r6, r0
 8002baa:	f000 80a0 	beq.w	8002cee <HAL_ADC_ConfigChannel+0x1d6>
    if (__LL_ADC_IS_CHANNEL_INTERNAL(pConfig->Channel))
 8002bae:	49a8      	ldr	r1, [pc, #672]	@ (8002e50 <HAL_ADC_ConfigChannel+0x338>)
 8002bb0:	420a      	tst	r2, r1
 8002bb2:	d019      	beq.n	8002be8 <HAL_ADC_ConfigChannel+0xd0>
  return (uint32_t)(READ_BIT(ADCxy_COMMON->CCR, ADC_CCR_VREFEN | ADC_CCR_TSEN | ADC_CCR_VBATEN));
 8002bb4:	48a7      	ldr	r0, [pc, #668]	@ (8002e54 <HAL_ADC_ConfigChannel+0x33c>)
      if ((pConfig->Channel == ADC_CHANNEL_TEMPSENSOR)
 8002bb6:	4da8      	ldr	r5, [pc, #672]	@ (8002e58 <HAL_ADC_ConfigChannel+0x340>)
 8002bb8:	6881      	ldr	r1, [r0, #8]
 8002bba:	42aa      	cmp	r2, r5
 8002bbc:	f001 76e0 	and.w	r6, r1, #29360128	@ 0x1c00000
 8002bc0:	d06e      	beq.n	8002ca0 <HAL_ADC_ConfigChannel+0x188>
      else if ((pConfig->Channel == ADC_CHANNEL_VBAT)
 8002bc2:	4da6      	ldr	r5, [pc, #664]	@ (8002e5c <HAL_ADC_ConfigChannel+0x344>)
 8002bc4:	42aa      	cmp	r2, r5
 8002bc6:	f000 80e6 	beq.w	8002d96 <HAL_ADC_ConfigChannel+0x27e>
      else if ((pConfig->Channel == ADC_CHANNEL_VREFINT)
 8002bca:	4da5      	ldr	r5, [pc, #660]	@ (8002e60 <HAL_ADC_ConfigChannel+0x348>)
 8002bcc:	42aa      	cmp	r2, r5
 8002bce:	d10b      	bne.n	8002be8 <HAL_ADC_ConfigChannel+0xd0>
               && ((tmp_config_internal_channel & LL_ADC_PATH_INTERNAL_VREFINT) == 0UL))
 8002bd0:	024a      	lsls	r2, r1, #9
 8002bd2:	d409      	bmi.n	8002be8 <HAL_ADC_ConfigChannel+0xd0>
        if (ADC_VREFINT_INSTANCE(hadc))
 8002bd4:	4aa3      	ldr	r2, [pc, #652]	@ (8002e64 <HAL_ADC_ConfigChannel+0x34c>)
 8002bd6:	4294      	cmp	r4, r2
 8002bd8:	d106      	bne.n	8002be8 <HAL_ADC_ConfigChannel+0xd0>
  MODIFY_REG(ADCxy_COMMON->CCR, ADC_CCR_VREFEN | ADC_CCR_TSEN | ADC_CCR_VBATEN, PathInternal);
 8002bda:	6882      	ldr	r2, [r0, #8]
 8002bdc:	f022 72e0 	bic.w	r2, r2, #29360128	@ 0x1c00000
 8002be0:	4332      	orrs	r2, r6
 8002be2:	f442 0280 	orr.w	r2, r2, #4194304	@ 0x400000
 8002be6:	6082      	str	r2, [r0, #8]
  HAL_StatusTypeDef tmp_hal_status = HAL_OK;
 8002be8:	2000      	movs	r0, #0
 8002bea:	e003      	b.n	8002bf4 <HAL_ADC_ConfigChannel+0xdc>
    SET_BIT(hadc->State, HAL_ADC_STATE_ERROR_CONFIG);
 8002bec:	6d9a      	ldr	r2, [r3, #88]	@ 0x58
 8002bee:	f042 0220 	orr.w	r2, r2, #32
 8002bf2:	659a      	str	r2, [r3, #88]	@ 0x58
  __HAL_UNLOCK(hadc);
 8002bf4:	2200      	movs	r2, #0
 8002bf6:	f883 2054 	strb.w	r2, [r3, #84]	@ 0x54
}
 8002bfa:	b002      	add	sp, #8
 8002bfc:	e8bd 81f0 	ldmia.w	sp!, {r4, r5, r6, r7, r8, pc}
  return ((READ_BIT(ADCx->CR, ADC_CR_JADSTART) == (ADC_CR_JADSTART)) ? 1UL : 0UL);
 8002c00:	68a0      	ldr	r0, [r4, #8]
        LL_ADC_SetChannelSamplingTime(hadc->Instance, pConfig->Channel, LL_ADC_SAMPLINGTIME_2CYCLES_5);
 8002c02:	680a      	ldr	r2, [r1, #0]
 8002c04:	0706      	lsls	r6, r0, #28
 8002c06:	d4bc      	bmi.n	8002b82 <HAL_ADC_ConfigChannel+0x6a>
      if (pConfig->SamplingTime == ADC_SAMPLETIME_3CYCLES_5)
 8002c08:	688d      	ldr	r5, [r1, #8]
  MODIFY_REG(*preg,
 8002c0a:	f3c2 5604 	ubfx	r6, r2, #20, #5
 8002c0e:	2007      	movs	r0, #7
  __IO uint32_t *preg = __ADC_PTR_REG_OFFSET(ADCx->SMPR1,
 8002c10:	0dd2      	lsrs	r2, r2, #23
  MODIFY_REG(*preg,
 8002c12:	40b0      	lsls	r0, r6
 8002c14:	f1b5 4f00 	cmp.w	r5, #2147483648	@ 0x80000000
  __IO uint32_t *preg = __ADC_PTR_REG_OFFSET(ADCx->SMPR1,
 8002c18:	f002 0204 	and.w	r2, r2, #4
  MODIFY_REG(*preg,
 8002c1c:	ea6f 0000 	mvn.w	r0, r0
  __IO uint32_t *preg = __ADC_PTR_REG_OFFSET(ADCx->SMPR1,
 8002c20:	f104 0714 	add.w	r7, r4, #20
 8002c24:	f000 8107 	beq.w	8002e36 <HAL_ADC_ConfigChannel+0x31e>
  MODIFY_REG(*preg,
 8002c28:	40b5      	lsls	r5, r6
 8002c2a:	58be      	ldr	r6, [r7, r2]
 8002c2c:	4030      	ands	r0, r6
 8002c2e:	4328      	orrs	r0, r5
 8002c30:	50b8      	str	r0, [r7, r2]
  MODIFY_REG(ADCx->SMPR1, ADC_SMPR1_SMPPLUS, SamplingTimeCommonConfig);
 8002c32:	6962      	ldr	r2, [r4, #20]
 8002c34:	f022 4200 	bic.w	r2, r2, #2147483648	@ 0x80000000
 8002c38:	6162      	str	r2, [r4, #20]
      tmpOffsetShifted = ADC_OFFSET_SHIFT_RESOLUTION(hadc, (uint32_t)pConfig->Offset);
 8002c3a:	e9d1 7004 	ldrd	r7, r0, [r1, #16]
        LL_ADC_SetOffset(hadc->Instance, pConfig->OffsetNumber, pConfig->Channel, tmpOffsetShifted);
 8002c3e:	680a      	ldr	r2, [r1, #0]
      tmpOffsetShifted = ADC_OFFSET_SHIFT_RESOLUTION(hadc, (uint32_t)pConfig->Offset);
 8002c40:	68e5      	ldr	r5, [r4, #12]
      if (pConfig->OffsetNumber != ADC_OFFSET_NONE)
 8002c42:	2f04      	cmp	r7, #4
  __IO uint32_t *preg = __ADC_PTR_REG_OFFSET(ADCx->OFR1, Offsety);
 8002c44:	f104 0660 	add.w	r6, r4, #96	@ 0x60
        LL_ADC_SetOffset(hadc->Instance, pConfig->OffsetNumber, pConfig->Channel, tmpOffsetShifted);
 8002c48:	4694      	mov	ip, r2
      if (pConfig->OffsetNumber != ADC_OFFSET_NONE)
 8002c4a:	f000 80cc 	beq.w	8002de6 <HAL_ADC_ConfigChannel+0x2ce>
      tmpOffsetShifted = ADC_OFFSET_SHIFT_RESOLUTION(hadc, (uint32_t)pConfig->Offset);
 8002c4e:	f3c5 05c1 	ubfx	r5, r5, #3, #2
 8002c52:	006d      	lsls	r5, r5, #1
  MODIFY_REG(*preg,
 8002c54:	f856 c027 	ldr.w	ip, [r6, r7, lsl #2]
 8002c58:	40a8      	lsls	r0, r5
 8002c5a:	4d83      	ldr	r5, [pc, #524]	@ (8002e68 <HAL_ADC_ConfigChannel+0x350>)
 8002c5c:	f002 42f8 	and.w	r2, r2, #2080374784	@ 0x7c000000
 8002c60:	ea0c 0505 	and.w	r5, ip, r5
 8002c64:	4315      	orrs	r5, r2
 8002c66:	4328      	orrs	r0, r5
 8002c68:	f040 4000 	orr.w	r0, r0, #2147483648	@ 0x80000000
 8002c6c:	f846 0027 	str.w	r0, [r6, r7, lsl #2]
      LL_ADC_SetChannelSingleDiff(hadc->Instance, pConfig->Channel, pConfig->SingleDiff);
 8002c70:	680a      	ldr	r2, [r1, #0]
}
 8002c72:	e786      	b.n	8002b82 <HAL_ADC_ConfigChannel+0x6a>
      switch (pConfig->Rank)
 8002c74:	3802      	subs	r0, #2
 8002c76:	2803      	cmp	r0, #3
 8002c78:	d903      	bls.n	8002c82 <HAL_ADC_ConfigChannel+0x16a>
    if (pConfig->Rank <= 5U)
 8002c7a:	f46f 6ef8 	mvn.w	lr, #1984	@ 0x7c0
 8002c7e:	2506      	movs	r5, #6
 8002c80:	e76d      	b.n	8002b5e <HAL_ADC_ConfigChannel+0x46>
 8002c82:	4a7a      	ldr	r2, [pc, #488]	@ (8002e6c <HAL_ADC_ConfigChannel+0x354>)
 8002c84:	f852 5020 	ldr.w	r5, [r2, r0, lsl #2]
  MODIFY_REG(*preg,
 8002c88:	f04f 0e1f 	mov.w	lr, #31
  __IO uint32_t *preg = __ADC_PTR_REG_OFFSET(ADCx->SQR1,
 8002c8c:	09aa      	lsrs	r2, r5, #6
  MODIFY_REG(*preg,
 8002c8e:	f005 051f 	and.w	r5, r5, #31
 8002c92:	fa0e fe05 	lsl.w	lr, lr, r5
  __IO uint32_t *preg = __ADC_PTR_REG_OFFSET(ADCx->SQR1,
 8002c96:	f002 0c0c 	and.w	ip, r2, #12
  MODIFY_REG(*preg,
 8002c9a:	ea6f 0e0e 	mvn.w	lr, lr
 8002c9e:	e75e      	b.n	8002b5e <HAL_ADC_ConfigChannel+0x46>
          && ((tmp_config_internal_channel & LL_ADC_PATH_INTERNAL_TEMPSENSOR) == 0UL))
 8002ca0:	0208      	lsls	r0, r1, #8
 8002ca2:	d4a1      	bmi.n	8002be8 <HAL_ADC_ConfigChannel+0xd0>
        if (ADC_TEMPERATURE_SENSOR_INSTANCE(hadc))
 8002ca4:	4a6f      	ldr	r2, [pc, #444]	@ (8002e64 <HAL_ADC_ConfigChannel+0x34c>)
 8002ca6:	4294      	cmp	r4, r2
 8002ca8:	d003      	beq.n	8002cb2 <HAL_ADC_ConfigChannel+0x19a>
 8002caa:	f502 7200 	add.w	r2, r2, #512	@ 0x200
 8002cae:	4294      	cmp	r4, r2
 8002cb0:	d19a      	bne.n	8002be8 <HAL_ADC_ConfigChannel+0xd0>
  MODIFY_REG(ADCxy_COMMON->CCR, ADC_CCR_VREFEN | ADC_CCR_TSEN | ADC_CCR_VBATEN, PathInternal);
 8002cb2:	4968      	ldr	r1, [pc, #416]	@ (8002e54 <HAL_ADC_ConfigChannel+0x33c>)
          wait_loop_index = ((LL_ADC_DELAY_TEMPSENSOR_STAB_US / 10UL) * ((SystemCoreClock / (100000UL * 2UL)) + 1UL));
 8002cb4:	486e      	ldr	r0, [pc, #440]	@ (8002e70 <HAL_ADC_ConfigChannel+0x358>)
 8002cb6:	688a      	ldr	r2, [r1, #8]
 8002cb8:	f022 72e0 	bic.w	r2, r2, #29360128	@ 0x1c00000
 8002cbc:	4332      	orrs	r2, r6
 8002cbe:	f442 0200 	orr.w	r2, r2, #8388608	@ 0x800000
 8002cc2:	608a      	str	r2, [r1, #8]
 8002cc4:	6802      	ldr	r2, [r0, #0]
 8002cc6:	496b      	ldr	r1, [pc, #428]	@ (8002e74 <HAL_ADC_ConfigChannel+0x35c>)
 8002cc8:	0992      	lsrs	r2, r2, #6
 8002cca:	fba1 1202 	umull	r1, r2, r1, r2
 8002cce:	0992      	lsrs	r2, r2, #6
 8002cd0:	3201      	adds	r2, #1
 8002cd2:	eb02 0242 	add.w	r2, r2, r2, lsl #1
 8002cd6:	0092      	lsls	r2, r2, #2
 8002cd8:	9201      	str	r2, [sp, #4]
          while (wait_loop_index != 0UL)
 8002cda:	9a01      	ldr	r2, [sp, #4]
 8002cdc:	2a00      	cmp	r2, #0
 8002cde:	d083      	beq.n	8002be8 <HAL_ADC_ConfigChannel+0xd0>
            wait_loop_index--;
 8002ce0:	9a01      	ldr	r2, [sp, #4]
 8002ce2:	3a01      	subs	r2, #1
 8002ce4:	9201      	str	r2, [sp, #4]
          while (wait_loop_index != 0UL)
 8002ce6:	9a01      	ldr	r2, [sp, #4]
 8002ce8:	2a00      	cmp	r2, #0
 8002cea:	d1f9      	bne.n	8002ce0 <HAL_ADC_ConfigChannel+0x1c8>
 8002cec:	e77c      	b.n	8002be8 <HAL_ADC_ConfigChannel+0xd0>
                                      (uint32_t)(__LL_ADC_DECIMAL_NB_TO_CHANNEL(
 8002cee:	2f00      	cmp	r7, #0
 8002cf0:	d065      	beq.n	8002dbe <HAL_ADC_ConfigChannel+0x2a6>
   __ASM volatile ("rbit %0, %1" : "=r" (result) : "r" (value) );
 8002cf2:	fa92 f0a2 	rbit	r0, r2
  if (value == 0U)
 8002cf6:	2800      	cmp	r0, #0
 8002cf8:	f000 80be 	beq.w	8002e78 <HAL_ADC_ConfigChannel+0x360>
  return __builtin_clz(value);
 8002cfc:	fab0 f080 	clz	r0, r0
        LL_ADC_SetChannelSamplingTime(hadc->Instance,
 8002d00:	3001      	adds	r0, #1
 8002d02:	f000 001f 	and.w	r0, r0, #31
 8002d06:	2809      	cmp	r0, #9
 8002d08:	f240 80b6 	bls.w	8002e78 <HAL_ADC_ConfigChannel+0x360>
   __ASM volatile ("rbit %0, %1" : "=r" (result) : "r" (value) );
 8002d0c:	fa92 f0a2 	rbit	r0, r2
  if (value == 0U)
 8002d10:	2800      	cmp	r0, #0
 8002d12:	f000 814d 	beq.w	8002fb0 <HAL_ADC_ConfigChannel+0x498>
  return __builtin_clz(value);
 8002d16:	fab0 f080 	clz	r0, r0
                                      (uint32_t)(__LL_ADC_DECIMAL_NB_TO_CHANNEL(
 8002d1a:	3001      	adds	r0, #1
 8002d1c:	0680      	lsls	r0, r0, #26
 8002d1e:	f000 40f8 	and.w	r0, r0, #2080374784	@ 0x7c000000
   __ASM volatile ("rbit %0, %1" : "=r" (result) : "r" (value) );
 8002d22:	fa92 f5a2 	rbit	r5, r2
  if (value == 0U)
 8002d26:	2d00      	cmp	r5, #0
 8002d28:	f000 8147 	beq.w	8002fba <HAL_ADC_ConfigChannel+0x4a2>
  return __builtin_clz(value);
 8002d2c:	fab5 f585 	clz	r5, r5
 8002d30:	3501      	adds	r5, #1
 8002d32:	f005 051f 	and.w	r5, r5, #31
 8002d36:	2601      	movs	r6, #1
 8002d38:	fa06 f505 	lsl.w	r5, r6, r5
 8002d3c:	4328      	orrs	r0, r5
   __ASM volatile ("rbit %0, %1" : "=r" (result) : "r" (value) );
 8002d3e:	fa92 f2a2 	rbit	r2, r2
  if (value == 0U)
 8002d42:	2a00      	cmp	r2, #0
 8002d44:	f000 8137 	beq.w	8002fb6 <HAL_ADC_ConfigChannel+0x49e>
  return __builtin_clz(value);
 8002d48:	fab2 f282 	clz	r2, r2
 8002d4c:	1c55      	adds	r5, r2, #1
 8002d4e:	f005 051f 	and.w	r5, r5, #31
 8002d52:	2203      	movs	r2, #3
 8002d54:	f06f 061d 	mvn.w	r6, #29
 8002d58:	fb12 6205 	smlabb	r2, r2, r5, r6
 8002d5c:	0512      	lsls	r2, r2, #20
 8002d5e:	f042 7200 	orr.w	r2, r2, #33554432	@ 0x2000000
        LL_ADC_SetChannelSamplingTime(hadc->Instance,
 8002d62:	4302      	orrs	r2, r0
  __IO uint32_t *preg = __ADC_PTR_REG_OFFSET(ADCx->SMPR1,
 8002d64:	0dd6      	lsrs	r6, r2, #23
  MODIFY_REG(*preg,
 8002d66:	6888      	ldr	r0, [r1, #8]
  __IO uint32_t *preg = __ADC_PTR_REG_OFFSET(ADCx->SMPR1,
 8002d68:	f006 0604 	and.w	r6, r6, #4
 8002d6c:	f104 0514 	add.w	r5, r4, #20
  MODIFY_REG(*preg,
 8002d70:	f3c2 5204 	ubfx	r2, r2, #20, #5
 8002d74:	fa00 f702 	lsl.w	r7, r0, r2
 8002d78:	f04f 0c07 	mov.w	ip, #7
 8002d7c:	59a8      	ldr	r0, [r5, r6]
 8002d7e:	fa0c f202 	lsl.w	r2, ip, r2
 8002d82:	ea20 0202 	bic.w	r2, r0, r2
 8002d86:	433a      	orrs	r2, r7
 8002d88:	51aa      	str	r2, [r5, r6]
    if (__LL_ADC_IS_CHANNEL_INTERNAL(pConfig->Channel))
 8002d8a:	680a      	ldr	r2, [r1, #0]
}
 8002d8c:	e70f      	b.n	8002bae <HAL_ADC_ConfigChannel+0x96>
  __HAL_LOCK(hadc);
 8002d8e:	2002      	movs	r0, #2
}
 8002d90:	b002      	add	sp, #8
 8002d92:	e8bd 81f0 	ldmia.w	sp!, {r4, r5, r6, r7, r8, pc}
               && ((tmp_config_internal_channel & LL_ADC_PATH_INTERNAL_VBAT) == 0UL))
 8002d96:	01c9      	lsls	r1, r1, #7
 8002d98:	f53f af26 	bmi.w	8002be8 <HAL_ADC_ConfigChannel+0xd0>
        if (ADC_BATTERY_VOLTAGE_INSTANCE(hadc))
 8002d9c:	4a31      	ldr	r2, [pc, #196]	@ (8002e64 <HAL_ADC_ConfigChannel+0x34c>)
 8002d9e:	4294      	cmp	r4, r2
 8002da0:	d004      	beq.n	8002dac <HAL_ADC_ConfigChannel+0x294>
 8002da2:	f502 7200 	add.w	r2, r2, #512	@ 0x200
 8002da6:	4294      	cmp	r4, r2
 8002da8:	f47f af1e 	bne.w	8002be8 <HAL_ADC_ConfigChannel+0xd0>
  MODIFY_REG(ADCxy_COMMON->CCR, ADC_CCR_VREFEN | ADC_CCR_TSEN | ADC_CCR_VBATEN, PathInternal);
 8002dac:	4929      	ldr	r1, [pc, #164]	@ (8002e54 <HAL_ADC_ConfigChannel+0x33c>)
 8002dae:	688a      	ldr	r2, [r1, #8]
 8002db0:	f022 72e0 	bic.w	r2, r2, #29360128	@ 0x1c00000
 8002db4:	4332      	orrs	r2, r6
 8002db6:	f042 7280 	orr.w	r2, r2, #16777216	@ 0x1000000
 8002dba:	608a      	str	r2, [r1, #8]
}
 8002dbc:	e714      	b.n	8002be8 <HAL_ADC_ConfigChannel+0xd0>
                                      (uint32_t)(__LL_ADC_DECIMAL_NB_TO_CHANNEL(
 8002dbe:	0e92      	lsrs	r2, r2, #26
 8002dc0:	3201      	adds	r2, #1
 8002dc2:	f002 051f 	and.w	r5, r2, #31
 8002dc6:	2001      	movs	r0, #1
 8002dc8:	0692      	lsls	r2, r2, #26
 8002dca:	f002 42f8 	and.w	r2, r2, #2080374784	@ 0x7c000000
 8002dce:	40a8      	lsls	r0, r5
        LL_ADC_SetChannelSamplingTime(hadc->Instance,
 8002dd0:	2d09      	cmp	r5, #9
                                      (uint32_t)(__LL_ADC_DECIMAL_NB_TO_CHANNEL(
 8002dd2:	ea40 0002 	orr.w	r0, r0, r2
 8002dd6:	eb05 0245 	add.w	r2, r5, r5, lsl #1
        LL_ADC_SetChannelSamplingTime(hadc->Instance,
 8002dda:	d971      	bls.n	8002ec0 <HAL_ADC_ConfigChannel+0x3a8>
                                      (uint32_t)(__LL_ADC_DECIMAL_NB_TO_CHANNEL(
 8002ddc:	3a1e      	subs	r2, #30
 8002dde:	0512      	lsls	r2, r2, #20
 8002de0:	f042 7200 	orr.w	r2, r2, #33554432	@ 0x2000000
 8002de4:	e7bd      	b.n	8002d62 <HAL_ADC_ConfigChannel+0x24a>
  return (uint32_t) READ_BIT(*preg, ADC_OFR1_OFFSET1_CH);
 8002de6:	6e20      	ldr	r0, [r4, #96]	@ 0x60
 8002de8:	6e20      	ldr	r0, [r4, #96]	@ 0x60
            == __LL_ADC_CHANNEL_TO_DECIMAL_NB(pConfig->Channel))
 8002dea:	f3c2 0512 	ubfx	r5, r2, #0, #19
        if (__LL_ADC_CHANNEL_TO_DECIMAL_NB(LL_ADC_GetOffsetChannel(hadc->Instance, LL_ADC_OFFSET_1))
 8002dee:	f3c0 6084 	ubfx	r0, r0, #26, #5
            == __LL_ADC_CHANNEL_TO_DECIMAL_NB(pConfig->Channel))
 8002df2:	2d00      	cmp	r5, #0
 8002df4:	d166      	bne.n	8002ec4 <HAL_ADC_ConfigChannel+0x3ac>
 8002df6:	f3c2 6284 	ubfx	r2, r2, #26, #5
        if (__LL_ADC_CHANNEL_TO_DECIMAL_NB(LL_ADC_GetOffsetChannel(hadc->Instance, LL_ADC_OFFSET_1))
 8002dfa:	4290      	cmp	r0, r2
 8002dfc:	f000 80a8 	beq.w	8002f50 <HAL_ADC_ConfigChannel+0x438>
 8002e00:	6e60      	ldr	r0, [r4, #100]	@ 0x64
 8002e02:	6e60      	ldr	r0, [r4, #100]	@ 0x64
        if (__LL_ADC_CHANNEL_TO_DECIMAL_NB(LL_ADC_GetOffsetChannel(hadc->Instance, LL_ADC_OFFSET_2))
 8002e04:	f3c0 6084 	ubfx	r0, r0, #26, #5
 8002e08:	4290      	cmp	r0, r2
 8002e0a:	f000 808c 	beq.w	8002f26 <HAL_ADC_ConfigChannel+0x40e>
 8002e0e:	68b0      	ldr	r0, [r6, #8]
 8002e10:	68b0      	ldr	r0, [r6, #8]
  const __IO uint32_t *preg = __ADC_PTR_REG_OFFSET(ADCx->OFR1, Offsety);
 8002e12:	f106 0708 	add.w	r7, r6, #8
        if (__LL_ADC_CHANNEL_TO_DECIMAL_NB(LL_ADC_GetOffsetChannel(hadc->Instance, LL_ADC_OFFSET_3))
 8002e16:	f3c0 6084 	ubfx	r0, r0, #26, #5
 8002e1a:	4290      	cmp	r0, r2
 8002e1c:	f000 80aa 	beq.w	8002f74 <HAL_ADC_ConfigChannel+0x45c>
  return (uint32_t) READ_BIT(*preg, ADC_OFR1_OFFSET1_CH);
 8002e20:	68f0      	ldr	r0, [r6, #12]
 8002e22:	68f0      	ldr	r0, [r6, #12]
  const __IO uint32_t *preg = __ADC_PTR_REG_OFFSET(ADCx->OFR1, Offsety);
 8002e24:	f106 050c 	add.w	r5, r6, #12
        if (__LL_ADC_CHANNEL_TO_DECIMAL_NB(LL_ADC_GetOffsetChannel(hadc->Instance, LL_ADC_OFFSET_4))
 8002e28:	f3c0 6084 	ubfx	r0, r0, #26, #5
 8002e2c:	4282      	cmp	r2, r0
 8002e2e:	f000 80b6 	beq.w	8002f9e <HAL_ADC_ConfigChannel+0x486>
      LL_ADC_SetChannelSingleDiff(hadc->Instance, pConfig->Channel, pConfig->SingleDiff);
 8002e32:	4662      	mov	r2, ip
 8002e34:	e6a5      	b.n	8002b82 <HAL_ADC_ConfigChannel+0x6a>
  MODIFY_REG(*preg,
 8002e36:	58bd      	ldr	r5, [r7, r2]
 8002e38:	4028      	ands	r0, r5
 8002e3a:	50b8      	str	r0, [r7, r2]
  MODIFY_REG(ADCx->SMPR1, ADC_SMPR1_SMPPLUS, SamplingTimeCommonConfig);
 8002e3c:	6962      	ldr	r2, [r4, #20]
 8002e3e:	f042 4200 	orr.w	r2, r2, #2147483648	@ 0x80000000
 8002e42:	6162      	str	r2, [r4, #20]
}
 8002e44:	e6f9      	b.n	8002c3a <HAL_ADC_ConfigChannel+0x122>
 8002e46:	bf00      	nop
 8002e48:	0007ffff 	.word	0x0007ffff
 8002e4c:	407f0000 	.word	0x407f0000
 8002e50:	80080000 	.word	0x80080000
 8002e54:	50040300 	.word	0x50040300
 8002e58:	c7520000 	.word	0xc7520000
 8002e5c:	cb840000 	.word	0xcb840000
 8002e60:	80000001 	.word	0x80000001
 8002e64:	50040000 	.word	0x50040000
 8002e68:	03fff000 	.word	0x03fff000
 8002e6c:	08009844 	.word	0x08009844
 8002e70:	20000400 	.word	0x20000400
 8002e74:	053e2d63 	.word	0x053e2d63
   __ASM volatile ("rbit %0, %1" : "=r" (result) : "r" (value) );
 8002e78:	fa92 f0a2 	rbit	r0, r2
  if (value == 0U)
 8002e7c:	2800      	cmp	r0, #0
 8002e7e:	f000 80a0 	beq.w	8002fc2 <HAL_ADC_ConfigChannel+0x4aa>
  return __builtin_clz(value);
 8002e82:	fab0 f080 	clz	r0, r0
                                      (uint32_t)(__LL_ADC_DECIMAL_NB_TO_CHANNEL(
 8002e86:	3001      	adds	r0, #1
 8002e88:	0680      	lsls	r0, r0, #26
 8002e8a:	f000 40f8 	and.w	r0, r0, #2080374784	@ 0x7c000000
   __ASM volatile ("rbit %0, %1" : "=r" (result) : "r" (value) );
 8002e8e:	fa92 f5a2 	rbit	r5, r2
  if (value == 0U)
 8002e92:	2d00      	cmp	r5, #0
 8002e94:	f000 8093 	beq.w	8002fbe <HAL_ADC_ConfigChannel+0x4a6>
  return __builtin_clz(value);
 8002e98:	fab5 f585 	clz	r5, r5
 8002e9c:	3501      	adds	r5, #1
 8002e9e:	f005 051f 	and.w	r5, r5, #31
 8002ea2:	2601      	movs	r6, #1
 8002ea4:	fa06 f505 	lsl.w	r5, r6, r5
 8002ea8:	4328      	orrs	r0, r5
   __ASM volatile ("rbit %0, %1" : "=r" (result) : "r" (value) );
 8002eaa:	fa92 f2a2 	rbit	r2, r2
  if (value == 0U)
 8002eae:	2a00      	cmp	r2, #0
 8002eb0:	d07b      	beq.n	8002faa <HAL_ADC_ConfigChannel+0x492>
  return __builtin_clz(value);
 8002eb2:	fab2 f282 	clz	r2, r2
 8002eb6:	3201      	adds	r2, #1
 8002eb8:	f002 021f 	and.w	r2, r2, #31
 8002ebc:	eb02 0242 	add.w	r2, r2, r2, lsl #1
 8002ec0:	0512      	lsls	r2, r2, #20
 8002ec2:	e74e      	b.n	8002d62 <HAL_ADC_ConfigChannel+0x24a>
   __ASM volatile ("rbit %0, %1" : "=r" (result) : "r" (value) );
 8002ec4:	fa92 f5a2 	rbit	r5, r2
  if (value == 0U)
 8002ec8:	b11d      	cbz	r5, 8002ed2 <HAL_ADC_ConfigChannel+0x3ba>
  return __builtin_clz(value);
 8002eca:	fab5 f585 	clz	r5, r5
        if (__LL_ADC_CHANNEL_TO_DECIMAL_NB(LL_ADC_GetOffsetChannel(hadc->Instance, LL_ADC_OFFSET_1))
 8002ece:	42a8      	cmp	r0, r5
 8002ed0:	d03e      	beq.n	8002f50 <HAL_ADC_ConfigChannel+0x438>
  return (uint32_t) READ_BIT(*preg, ADC_OFR1_OFFSET1_CH);
 8002ed2:	6e60      	ldr	r0, [r4, #100]	@ 0x64
 8002ed4:	6e60      	ldr	r0, [r4, #100]	@ 0x64
        if (__LL_ADC_CHANNEL_TO_DECIMAL_NB(LL_ADC_GetOffsetChannel(hadc->Instance, LL_ADC_OFFSET_2))
 8002ed6:	f3c0 6084 	ubfx	r0, r0, #26, #5
   __ASM volatile ("rbit %0, %1" : "=r" (result) : "r" (value) );
 8002eda:	fa9c f5ac 	rbit	r5, ip
  const __IO uint32_t *preg = __ADC_PTR_REG_OFFSET(ADCx->OFR1, Offsety);
 8002ede:	f106 0708 	add.w	r7, r6, #8
 8002ee2:	46be      	mov	lr, r7
  if (value == 0U)
 8002ee4:	b11d      	cbz	r5, 8002eee <HAL_ADC_ConfigChannel+0x3d6>
  return __builtin_clz(value);
 8002ee6:	fab5 f585 	clz	r5, r5
 8002eea:	4285      	cmp	r5, r0
 8002eec:	d01d      	beq.n	8002f2a <HAL_ADC_ConfigChannel+0x412>
  return (uint32_t) READ_BIT(*preg, ADC_OFR1_OFFSET1_CH);
 8002eee:	68b0      	ldr	r0, [r6, #8]
 8002ef0:	68b0      	ldr	r0, [r6, #8]
        if (__LL_ADC_CHANNEL_TO_DECIMAL_NB(LL_ADC_GetOffsetChannel(hadc->Instance, LL_ADC_OFFSET_3))
 8002ef2:	f3c0 6084 	ubfx	r0, r0, #26, #5
   __ASM volatile ("rbit %0, %1" : "=r" (result) : "r" (value) );
 8002ef6:	fa9c feac 	rbit	lr, ip
  const __IO uint32_t *preg = __ADC_PTR_REG_OFFSET(ADCx->OFR1, Offsety);
 8002efa:	f106 050c 	add.w	r5, r6, #12
 8002efe:	46a8      	mov	r8, r5
  if (value == 0U)
 8002f00:	f1be 0f00 	cmp.w	lr, #0
 8002f04:	d003      	beq.n	8002f0e <HAL_ADC_ConfigChannel+0x3f6>
  return __builtin_clz(value);
 8002f06:	fabe fe8e 	clz	lr, lr
 8002f0a:	4586      	cmp	lr, r0
 8002f0c:	d034      	beq.n	8002f78 <HAL_ADC_ConfigChannel+0x460>
  return (uint32_t) READ_BIT(*preg, ADC_OFR1_OFFSET1_CH);
 8002f0e:	68f0      	ldr	r0, [r6, #12]
 8002f10:	68f0      	ldr	r0, [r6, #12]
        if (__LL_ADC_CHANNEL_TO_DECIMAL_NB(LL_ADC_GetOffsetChannel(hadc->Instance, LL_ADC_OFFSET_4))
 8002f12:	f3c0 6084 	ubfx	r0, r0, #26, #5
   __ASM volatile ("rbit %0, %1" : "=r" (result) : "r" (value) );
 8002f16:	fa9c f6ac 	rbit	r6, ip
  if (value == 0U)
 8002f1a:	2e00      	cmp	r6, #0
 8002f1c:	f43f ae31 	beq.w	8002b82 <HAL_ADC_ConfigChannel+0x6a>
  return __builtin_clz(value);
 8002f20:	fab6 f286 	clz	r2, r6
 8002f24:	e782      	b.n	8002e2c <HAL_ADC_ConfigChannel+0x314>
 8002f26:	f106 0e08 	add.w	lr, r6, #8
  MODIFY_REG(*preg,
 8002f2a:	6e62      	ldr	r2, [r4, #100]	@ 0x64
 8002f2c:	f022 4200 	bic.w	r2, r2, #2147483648	@ 0x80000000
 8002f30:	6662      	str	r2, [r4, #100]	@ 0x64
            == __LL_ADC_CHANNEL_TO_DECIMAL_NB(pConfig->Channel))
 8002f32:	f8d1 c000 	ldr.w	ip, [r1]
  return (uint32_t) READ_BIT(*preg, ADC_OFR1_OFFSET1_CH);
 8002f36:	68b2      	ldr	r2, [r6, #8]
 8002f38:	68b0      	ldr	r0, [r6, #8]
 8002f3a:	f3cc 0512 	ubfx	r5, ip, #0, #19
  const __IO uint32_t *preg = __ADC_PTR_REG_OFFSET(ADCx->OFR1, Offsety);
 8002f3e:	4677      	mov	r7, lr
        if (__LL_ADC_CHANNEL_TO_DECIMAL_NB(LL_ADC_GetOffsetChannel(hadc->Instance, LL_ADC_OFFSET_3))
 8002f40:	f3c0 6084 	ubfx	r0, r0, #26, #5
            == __LL_ADC_CHANNEL_TO_DECIMAL_NB(pConfig->Channel))
 8002f44:	4662      	mov	r2, ip
 8002f46:	2d00      	cmp	r5, #0
 8002f48:	d1d5      	bne.n	8002ef6 <HAL_ADC_ConfigChannel+0x3de>
 8002f4a:	f3cc 6284 	ubfx	r2, ip, #26, #5
 8002f4e:	e764      	b.n	8002e1a <HAL_ADC_ConfigChannel+0x302>
  MODIFY_REG(*preg,
 8002f50:	6e22      	ldr	r2, [r4, #96]	@ 0x60
 8002f52:	f022 4200 	bic.w	r2, r2, #2147483648	@ 0x80000000
 8002f56:	6622      	str	r2, [r4, #96]	@ 0x60
            == __LL_ADC_CHANNEL_TO_DECIMAL_NB(pConfig->Channel))
 8002f58:	f8d1 c000 	ldr.w	ip, [r1]
  return (uint32_t) READ_BIT(*preg, ADC_OFR1_OFFSET1_CH);
 8002f5c:	6e62      	ldr	r2, [r4, #100]	@ 0x64
 8002f5e:	6e60      	ldr	r0, [r4, #100]	@ 0x64
 8002f60:	f3cc 0512 	ubfx	r5, ip, #0, #19
        if (__LL_ADC_CHANNEL_TO_DECIMAL_NB(LL_ADC_GetOffsetChannel(hadc->Instance, LL_ADC_OFFSET_2))
 8002f64:	f3c0 6084 	ubfx	r0, r0, #26, #5
            == __LL_ADC_CHANNEL_TO_DECIMAL_NB(pConfig->Channel))
 8002f68:	4662      	mov	r2, ip
 8002f6a:	2d00      	cmp	r5, #0
 8002f6c:	d1b5      	bne.n	8002eda <HAL_ADC_ConfigChannel+0x3c2>
 8002f6e:	f3cc 6284 	ubfx	r2, ip, #26, #5
 8002f72:	e749      	b.n	8002e08 <HAL_ADC_ConfigChannel+0x2f0>
 8002f74:	f106 080c 	add.w	r8, r6, #12
  MODIFY_REG(*preg,
 8002f78:	683a      	ldr	r2, [r7, #0]
 8002f7a:	f022 4200 	bic.w	r2, r2, #2147483648	@ 0x80000000
 8002f7e:	603a      	str	r2, [r7, #0]
            == __LL_ADC_CHANNEL_TO_DECIMAL_NB(pConfig->Channel))
 8002f80:	f8d1 c000 	ldr.w	ip, [r1]
  return (uint32_t) READ_BIT(*preg, ADC_OFR1_OFFSET1_CH);
 8002f84:	68f2      	ldr	r2, [r6, #12]
 8002f86:	68f0      	ldr	r0, [r6, #12]
 8002f88:	f3cc 0612 	ubfx	r6, ip, #0, #19
  const __IO uint32_t *preg = __ADC_PTR_REG_OFFSET(ADCx->OFR1, Offsety);
 8002f8c:	4645      	mov	r5, r8
        if (__LL_ADC_CHANNEL_TO_DECIMAL_NB(LL_ADC_GetOffsetChannel(hadc->Instance, LL_ADC_OFFSET_4))
 8002f8e:	f3c0 6084 	ubfx	r0, r0, #26, #5
            == __LL_ADC_CHANNEL_TO_DECIMAL_NB(pConfig->Channel))
 8002f92:	4662      	mov	r2, ip
 8002f94:	2e00      	cmp	r6, #0
 8002f96:	d1be      	bne.n	8002f16 <HAL_ADC_ConfigChannel+0x3fe>
 8002f98:	f3cc 6284 	ubfx	r2, ip, #26, #5
 8002f9c:	e746      	b.n	8002e2c <HAL_ADC_ConfigChannel+0x314>
  MODIFY_REG(*preg,
 8002f9e:	682a      	ldr	r2, [r5, #0]
 8002fa0:	f022 4200 	bic.w	r2, r2, #2147483648	@ 0x80000000
 8002fa4:	602a      	str	r2, [r5, #0]
      LL_ADC_SetChannelSingleDiff(hadc->Instance, pConfig->Channel, pConfig->SingleDiff);
 8002fa6:	680a      	ldr	r2, [r1, #0]
}
 8002fa8:	e5eb      	b.n	8002b82 <HAL_ADC_ConfigChannel+0x6a>
 8002faa:	f44f 1240 	mov.w	r2, #3145728	@ 0x300000
 8002fae:	e6d8      	b.n	8002d62 <HAL_ADC_ConfigChannel+0x24a>
 8002fb0:	f04f 6080 	mov.w	r0, #67108864	@ 0x4000000
 8002fb4:	e6b5      	b.n	8002d22 <HAL_ADC_ConfigChannel+0x20a>
 8002fb6:	4a04      	ldr	r2, [pc, #16]	@ (8002fc8 <HAL_ADC_ConfigChannel+0x4b0>)
 8002fb8:	e6d3      	b.n	8002d62 <HAL_ADC_ConfigChannel+0x24a>
 8002fba:	2502      	movs	r5, #2
 8002fbc:	e6be      	b.n	8002d3c <HAL_ADC_ConfigChannel+0x224>
 8002fbe:	2502      	movs	r5, #2
 8002fc0:	e772      	b.n	8002ea8 <HAL_ADC_ConfigChannel+0x390>
 8002fc2:	f04f 6080 	mov.w	r0, #67108864	@ 0x4000000
 8002fc6:	e762      	b.n	8002e8e <HAL_ADC_ConfigChannel+0x376>
 8002fc8:	fe500000 	.word	0xfe500000

08002fcc <ADC_ConversionStop>:
  tmp_adc_is_conversion_on_going_regular = LL_ADC_REG_IsConversionOngoing(hadc->Instance);
 8002fcc:	6803      	ldr	r3, [r0, #0]
  return ((READ_BIT(ADCx->CR, ADC_CR_ADSTART) == (ADC_CR_ADSTART)) ? 1UL : 0UL);
 8002fce:	689a      	ldr	r2, [r3, #8]
 8002fd0:	f012 0f04 	tst.w	r2, #4
{
 8002fd4:	b570      	push	{r4, r5, r6, lr}
  return ((READ_BIT(ADCx->CR, ADC_CR_JADSTART) == (ADC_CR_JADSTART)) ? 1UL : 0UL);
 8002fd6:	689a      	ldr	r2, [r3, #8]
 8002fd8:	4604      	mov	r4, r0
  return ((READ_BIT(ADCx->CR, ADC_CR_ADSTART) == (ADC_CR_ADSTART)) ? 1UL : 0UL);
 8002fda:	d101      	bne.n	8002fe0 <ADC_ConversionStop+0x14>
  return ((READ_BIT(ADCx->CR, ADC_CR_JADSTART) == (ADC_CR_JADSTART)) ? 1UL : 0UL);
 8002fdc:	0716      	lsls	r6, r2, #28
 8002fde:	d53c      	bpl.n	800305a <ADC_ConversionStop+0x8e>
    if (((hadc->Instance->CFGR & ADC_CFGR_JAUTO) != 0UL)
 8002fe0:	68da      	ldr	r2, [r3, #12]
 8002fe2:	0195      	lsls	r5, r2, #6
 8002fe4:	d504      	bpl.n	8002ff0 <ADC_ConversionStop+0x24>
        && (hadc->Init.LowPowerAutoWait == ENABLE)
 8002fe6:	8b20      	ldrh	r0, [r4, #24]
 8002fe8:	f240 1201 	movw	r2, #257	@ 0x101
 8002fec:	4290      	cmp	r0, r2
 8002fee:	d045      	beq.n	800307c <ADC_ConversionStop+0xb0>
    if (conversion_group_reassigned != ADC_INJECTED_GROUP)
 8002ff0:	2902      	cmp	r1, #2
  return ((READ_BIT(ADCx->CR, ADC_CR_ADSTART) == (ADC_CR_ADSTART)) ? 1UL : 0UL);
 8002ff2:	689a      	ldr	r2, [r3, #8]
 8002ff4:	d033      	beq.n	800305e <ADC_ConversionStop+0x92>
 8002ff6:	0750      	lsls	r0, r2, #29
 8002ff8:	d502      	bpl.n	8003000 <ADC_ConversionStop+0x34>
  return ((READ_BIT(ADCx->CR, ADC_CR_ADDIS) == (ADC_CR_ADDIS)) ? 1UL : 0UL);
 8002ffa:	689a      	ldr	r2, [r3, #8]
 8002ffc:	0792      	lsls	r2, r2, #30
 8002ffe:	d559      	bpl.n	80030b4 <ADC_ConversionStop+0xe8>
    if (conversion_group_reassigned != ADC_REGULAR_GROUP)
 8003000:	2901      	cmp	r1, #1
 8003002:	d055      	beq.n	80030b0 <ADC_ConversionStop+0xe4>
  return ((READ_BIT(ADCx->CR, ADC_CR_JADSTART) == (ADC_CR_JADSTART)) ? 1UL : 0UL);
 8003004:	689a      	ldr	r2, [r3, #8]
 8003006:	0710      	lsls	r0, r2, #28
 8003008:	d50a      	bpl.n	8003020 <ADC_ConversionStop+0x54>
  return ((READ_BIT(ADCx->CR, ADC_CR_ADDIS) == (ADC_CR_ADDIS)) ? 1UL : 0UL);
 800300a:	689a      	ldr	r2, [r3, #8]
 800300c:	0792      	lsls	r2, r2, #30
 800300e:	d407      	bmi.n	8003020 <ADC_ConversionStop+0x54>
  MODIFY_REG(ADCx->CR,
 8003010:	689a      	ldr	r2, [r3, #8]
 8003012:	f022 4200 	bic.w	r2, r2, #2147483648	@ 0x80000000
 8003016:	f022 023f 	bic.w	r2, r2, #63	@ 0x3f
 800301a:	f042 0220 	orr.w	r2, r2, #32
 800301e:	609a      	str	r2, [r3, #8]
    switch (conversion_group_reassigned)
 8003020:	2903      	cmp	r1, #3
 8003022:	d145      	bne.n	80030b0 <ADC_ConversionStop+0xe4>
 8003024:	250c      	movs	r5, #12
    tickstart = HAL_GetTick();
 8003026:	f7ff fc35 	bl	8002894 <HAL_GetTick>
    while ((hadc->Instance->CR & tmp_ADC_CR_ADSTART_JADSTART) != 0UL)
 800302a:	6823      	ldr	r3, [r4, #0]
    tickstart = HAL_GetTick();
 800302c:	4606      	mov	r6, r0
    while ((hadc->Instance->CR & tmp_ADC_CR_ADSTART_JADSTART) != 0UL)
 800302e:	689b      	ldr	r3, [r3, #8]
 8003030:	421d      	tst	r5, r3
 8003032:	d012      	beq.n	800305a <ADC_ConversionStop+0x8e>
      if ((HAL_GetTick() - tickstart) > ADC_STOP_CONVERSION_TIMEOUT)
 8003034:	f7ff fc2e 	bl	8002894 <HAL_GetTick>
 8003038:	1b80      	subs	r0, r0, r6
 800303a:	2805      	cmp	r0, #5
        if ((hadc->Instance->CR & tmp_ADC_CR_ADSTART_JADSTART) != 0UL)
 800303c:	6823      	ldr	r3, [r4, #0]
      if ((HAL_GetTick() - tickstart) > ADC_STOP_CONVERSION_TIMEOUT)
 800303e:	d9f6      	bls.n	800302e <ADC_ConversionStop+0x62>
        if ((hadc->Instance->CR & tmp_ADC_CR_ADSTART_JADSTART) != 0UL)
 8003040:	689a      	ldr	r2, [r3, #8]
 8003042:	422a      	tst	r2, r5
 8003044:	d0f3      	beq.n	800302e <ADC_ConversionStop+0x62>
          SET_BIT(hadc->State, HAL_ADC_STATE_ERROR_INTERNAL);
 8003046:	6da3      	ldr	r3, [r4, #88]	@ 0x58
 8003048:	f043 0310 	orr.w	r3, r3, #16
 800304c:	65a3      	str	r3, [r4, #88]	@ 0x58
          SET_BIT(hadc->ErrorCode, HAL_ADC_ERROR_INTERNAL);
 800304e:	6de3      	ldr	r3, [r4, #92]	@ 0x5c
 8003050:	f043 0301 	orr.w	r3, r3, #1
 8003054:	65e3      	str	r3, [r4, #92]	@ 0x5c
          return HAL_ERROR;
 8003056:	2001      	movs	r0, #1
}
 8003058:	bd70      	pop	{r4, r5, r6, pc}
  return HAL_OK;
 800305a:	2000      	movs	r0, #0
}
 800305c:	bd70      	pop	{r4, r5, r6, pc}
  return ((READ_BIT(ADCx->CR, ADC_CR_JADSTART) == (ADC_CR_JADSTART)) ? 1UL : 0UL);
 800305e:	0716      	lsls	r6, r2, #28
 8003060:	d50a      	bpl.n	8003078 <ADC_ConversionStop+0xac>
  return ((READ_BIT(ADCx->CR, ADC_CR_ADDIS) == (ADC_CR_ADDIS)) ? 1UL : 0UL);
 8003062:	689a      	ldr	r2, [r3, #8]
 8003064:	0795      	lsls	r5, r2, #30
 8003066:	d407      	bmi.n	8003078 <ADC_ConversionStop+0xac>
  MODIFY_REG(ADCx->CR,
 8003068:	689a      	ldr	r2, [r3, #8]
 800306a:	f022 4200 	bic.w	r2, r2, #2147483648	@ 0x80000000
 800306e:	f022 023f 	bic.w	r2, r2, #63	@ 0x3f
 8003072:	f042 0220 	orr.w	r2, r2, #32
 8003076:	609a      	str	r2, [r3, #8]
        tmp_ADC_CR_ADSTART_JADSTART = ADC_CR_JADSTART;
 8003078:	2508      	movs	r5, #8
 800307a:	e7d4      	b.n	8003026 <ADC_ConversionStop+0x5a>
      while (__HAL_ADC_GET_FLAG(hadc, ADC_FLAG_JEOS) == 0UL)
 800307c:	681a      	ldr	r2, [r3, #0]
 800307e:	0650      	lsls	r0, r2, #25
 8003080:	d406      	bmi.n	8003090 <ADC_ConversionStop+0xc4>
 8003082:	4a11      	ldr	r2, [pc, #68]	@ (80030c8 <ADC_ConversionStop+0xfc>)
 8003084:	e001      	b.n	800308a <ADC_ConversionStop+0xbe>
        if (Conversion_Timeout_CPU_cycles >= (ADC_CONVERSION_TIME_MAX_CPU_CYCLES * 4UL))
 8003086:	3a01      	subs	r2, #1
 8003088:	d0dd      	beq.n	8003046 <ADC_ConversionStop+0x7a>
      while (__HAL_ADC_GET_FLAG(hadc, ADC_FLAG_JEOS) == 0UL)
 800308a:	6819      	ldr	r1, [r3, #0]
 800308c:	0649      	lsls	r1, r1, #25
 800308e:	d5fa      	bpl.n	8003086 <ADC_ConversionStop+0xba>
      __HAL_ADC_CLEAR_FLAG(hadc, ADC_FLAG_JEOS);
 8003090:	2240      	movs	r2, #64	@ 0x40
 8003092:	601a      	str	r2, [r3, #0]
  return ((READ_BIT(ADCx->CR, ADC_CR_ADSTART) == (ADC_CR_ADSTART)) ? 1UL : 0UL);
 8003094:	689a      	ldr	r2, [r3, #8]
 8003096:	0756      	lsls	r6, r2, #29
 8003098:	d50a      	bpl.n	80030b0 <ADC_ConversionStop+0xe4>
  return ((READ_BIT(ADCx->CR, ADC_CR_ADDIS) == (ADC_CR_ADDIS)) ? 1UL : 0UL);
 800309a:	689a      	ldr	r2, [r3, #8]
 800309c:	0795      	lsls	r5, r2, #30
 800309e:	d407      	bmi.n	80030b0 <ADC_ConversionStop+0xe4>
  MODIFY_REG(ADCx->CR,
 80030a0:	689a      	ldr	r2, [r3, #8]
 80030a2:	f022 4200 	bic.w	r2, r2, #2147483648	@ 0x80000000
 80030a6:	f022 023f 	bic.w	r2, r2, #63	@ 0x3f
 80030aa:	f042 0210 	orr.w	r2, r2, #16
 80030ae:	609a      	str	r2, [r3, #8]
        tmp_ADC_CR_ADSTART_JADSTART = ADC_CR_ADSTART;
 80030b0:	2504      	movs	r5, #4
 80030b2:	e7b8      	b.n	8003026 <ADC_ConversionStop+0x5a>
 80030b4:	689a      	ldr	r2, [r3, #8]
 80030b6:	f022 4200 	bic.w	r2, r2, #2147483648	@ 0x80000000
 80030ba:	f022 023f 	bic.w	r2, r2, #63	@ 0x3f
 80030be:	f042 0210 	orr.w	r2, r2, #16
 80030c2:	609a      	str	r2, [r3, #8]
}
 80030c4:	e79c      	b.n	8003000 <ADC_ConversionStop+0x34>
 80030c6:	bf00      	nop
 80030c8:	a3400000 	.word	0xa3400000

080030cc <ADC_Enable>:
{
 80030cc:	b570      	push	{r4, r5, r6, lr}
 80030ce:	b082      	sub	sp, #8
  __IO uint32_t wait_loop_index = 0UL;
 80030d0:	2200      	movs	r2, #0
  if (LL_ADC_IsEnabled(hadc->Instance) == 0UL)
 80030d2:	6803      	ldr	r3, [r0, #0]
  __IO uint32_t wait_loop_index = 0UL;
 80030d4:	9201      	str	r2, [sp, #4]
  return ((READ_BIT(ADCx->CR, ADC_CR_ADEN) == (ADC_CR_ADEN)) ? 1UL : 0UL);
 80030d6:	689a      	ldr	r2, [r3, #8]
 80030d8:	07d2      	lsls	r2, r2, #31
 80030da:	d42c      	bmi.n	8003136 <ADC_Enable+0x6a>
    if ((hadc->Instance->CR & (ADC_CR_ADCAL | ADC_CR_JADSTP | ADC_CR_ADSTP | ADC_CR_JADSTART | ADC_CR_ADSTART
 80030dc:	6899      	ldr	r1, [r3, #8]
 80030de:	4a28      	ldr	r2, [pc, #160]	@ (8003180 <ADC_Enable+0xb4>)
 80030e0:	4211      	tst	r1, r2
 80030e2:	4604      	mov	r4, r0
 80030e4:	d12a      	bne.n	800313c <ADC_Enable+0x70>
  MODIFY_REG(ADCx->CR,
 80030e6:	689a      	ldr	r2, [r3, #8]
  return (uint32_t)(READ_BIT(ADCxy_COMMON->CCR, ADC_CCR_VREFEN | ADC_CCR_TSEN | ADC_CCR_VBATEN));
 80030e8:	4926      	ldr	r1, [pc, #152]	@ (8003184 <ADC_Enable+0xb8>)
  MODIFY_REG(ADCx->CR,
 80030ea:	f022 4200 	bic.w	r2, r2, #2147483648	@ 0x80000000
 80030ee:	f022 023f 	bic.w	r2, r2, #63	@ 0x3f
 80030f2:	f042 0201 	orr.w	r2, r2, #1
 80030f6:	609a      	str	r2, [r3, #8]
  return (uint32_t)(READ_BIT(ADCxy_COMMON->CCR, ADC_CCR_VREFEN | ADC_CCR_TSEN | ADC_CCR_VBATEN));
 80030f8:	688b      	ldr	r3, [r1, #8]
    if ((LL_ADC_GetCommonPathInternalCh(__LL_ADC_COMMON_INSTANCE(hadc->Instance))
 80030fa:	021b      	lsls	r3, r3, #8
 80030fc:	d429      	bmi.n	8003152 <ADC_Enable+0x86>
    tickstart = HAL_GetTick();
 80030fe:	f7ff fbc9 	bl	8002894 <HAL_GetTick>
    while (__HAL_ADC_GET_FLAG(hadc, ADC_FLAG_RDY) == 0UL)
 8003102:	6823      	ldr	r3, [r4, #0]
 8003104:	681a      	ldr	r2, [r3, #0]
 8003106:	07d6      	lsls	r6, r2, #31
    tickstart = HAL_GetTick();
 8003108:	4605      	mov	r5, r0
    while (__HAL_ADC_GET_FLAG(hadc, ADC_FLAG_RDY) == 0UL)
 800310a:	d414      	bmi.n	8003136 <ADC_Enable+0x6a>
  MODIFY_REG(ADCx->CR,
 800310c:	4e1e      	ldr	r6, [pc, #120]	@ (8003188 <ADC_Enable+0xbc>)
  return ((READ_BIT(ADCx->CR, ADC_CR_ADEN) == (ADC_CR_ADEN)) ? 1UL : 0UL);
 800310e:	689a      	ldr	r2, [r3, #8]
 8003110:	07d0      	lsls	r0, r2, #31
 8003112:	d404      	bmi.n	800311e <ADC_Enable+0x52>
  MODIFY_REG(ADCx->CR,
 8003114:	689a      	ldr	r2, [r3, #8]
 8003116:	4032      	ands	r2, r6
 8003118:	f042 0201 	orr.w	r2, r2, #1
 800311c:	609a      	str	r2, [r3, #8]
      if ((HAL_GetTick() - tickstart) > ADC_ENABLE_TIMEOUT)
 800311e:	f7ff fbb9 	bl	8002894 <HAL_GetTick>
 8003122:	1b43      	subs	r3, r0, r5
 8003124:	2b02      	cmp	r3, #2
        if (__HAL_ADC_GET_FLAG(hadc, ADC_FLAG_RDY) == 0UL)
 8003126:	6823      	ldr	r3, [r4, #0]
      if ((HAL_GetTick() - tickstart) > ADC_ENABLE_TIMEOUT)
 8003128:	d902      	bls.n	8003130 <ADC_Enable+0x64>
        if (__HAL_ADC_GET_FLAG(hadc, ADC_FLAG_RDY) == 0UL)
 800312a:	681a      	ldr	r2, [r3, #0]
 800312c:	07d1      	lsls	r1, r2, #31
 800312e:	d505      	bpl.n	800313c <ADC_Enable+0x70>
    while (__HAL_ADC_GET_FLAG(hadc, ADC_FLAG_RDY) == 0UL)
 8003130:	681a      	ldr	r2, [r3, #0]
 8003132:	07d2      	lsls	r2, r2, #31
 8003134:	d5eb      	bpl.n	800310e <ADC_Enable+0x42>
  return HAL_OK;
 8003136:	2000      	movs	r0, #0
}
 8003138:	b002      	add	sp, #8
 800313a:	bd70      	pop	{r4, r5, r6, pc}
          SET_BIT(hadc->State, HAL_ADC_STATE_ERROR_INTERNAL);
 800313c:	6da3      	ldr	r3, [r4, #88]	@ 0x58
 800313e:	f043 0310 	orr.w	r3, r3, #16
 8003142:	65a3      	str	r3, [r4, #88]	@ 0x58
          SET_BIT(hadc->ErrorCode, HAL_ADC_ERROR_INTERNAL);
 8003144:	6de3      	ldr	r3, [r4, #92]	@ 0x5c
      return HAL_ERROR;
 8003146:	2001      	movs	r0, #1
          SET_BIT(hadc->ErrorCode, HAL_ADC_ERROR_INTERNAL);
 8003148:	f043 0301 	orr.w	r3, r3, #1
 800314c:	65e3      	str	r3, [r4, #92]	@ 0x5c
}
 800314e:	b002      	add	sp, #8
 8003150:	bd70      	pop	{r4, r5, r6, pc}
      wait_loop_index = ((LL_ADC_DELAY_TEMPSENSOR_STAB_US / 10UL) * ((SystemCoreClock / (100000UL * 2UL)) + 1UL));
 8003152:	4b0e      	ldr	r3, [pc, #56]	@ (800318c <ADC_Enable+0xc0>)
 8003154:	4a0e      	ldr	r2, [pc, #56]	@ (8003190 <ADC_Enable+0xc4>)
 8003156:	681b      	ldr	r3, [r3, #0]
 8003158:	099b      	lsrs	r3, r3, #6
 800315a:	fba2 2303 	umull	r2, r3, r2, r3
 800315e:	099b      	lsrs	r3, r3, #6
 8003160:	3301      	adds	r3, #1
 8003162:	eb03 0343 	add.w	r3, r3, r3, lsl #1
 8003166:	009b      	lsls	r3, r3, #2
 8003168:	9301      	str	r3, [sp, #4]
      while (wait_loop_index != 0UL)
 800316a:	9b01      	ldr	r3, [sp, #4]
 800316c:	2b00      	cmp	r3, #0
 800316e:	d0c6      	beq.n	80030fe <ADC_Enable+0x32>
        wait_loop_index--;
 8003170:	9b01      	ldr	r3, [sp, #4]
 8003172:	3b01      	subs	r3, #1
 8003174:	9301      	str	r3, [sp, #4]
      while (wait_loop_index != 0UL)
 8003176:	9b01      	ldr	r3, [sp, #4]
 8003178:	2b00      	cmp	r3, #0
 800317a:	d1f9      	bne.n	8003170 <ADC_Enable+0xa4>
 800317c:	e7bf      	b.n	80030fe <ADC_Enable+0x32>
 800317e:	bf00      	nop
 8003180:	8000003f 	.word	0x8000003f
 8003184:	50040300 	.word	0x50040300
 8003188:	7fffffc0 	.word	0x7fffffc0
 800318c:	20000400 	.word	0x20000400
 8003190:	053e2d63 	.word	0x053e2d63

08003194 <HAL_ADC_Start_DMA>:
{
 8003194:	e92d 41f0 	stmdb	sp!, {r4, r5, r6, r7, r8, lr}
  return (uint32_t)(READ_BIT(ADCxy_COMMON->CCR, ADC_CCR_DUAL));
 8003198:	4b36      	ldr	r3, [pc, #216]	@ (8003274 <HAL_ADC_Start_DMA+0xe0>)
  if (LL_ADC_REG_IsConversionOngoing(hadc->Instance) == 0UL)
 800319a:	6806      	ldr	r6, [r0, #0]
 800319c:	689b      	ldr	r3, [r3, #8]
{
 800319e:	460d      	mov	r5, r1
  return ((READ_BIT(ADCx->CR, ADC_CR_ADSTART) == (ADC_CR_ADSTART)) ? 1UL : 0UL);
 80031a0:	68b1      	ldr	r1, [r6, #8]
 80031a2:	0749      	lsls	r1, r1, #29
 80031a4:	d417      	bmi.n	80031d6 <HAL_ADC_Start_DMA+0x42>
 80031a6:	4617      	mov	r7, r2
    __HAL_LOCK(hadc);
 80031a8:	f890 2054 	ldrb.w	r2, [r0, #84]	@ 0x54
 80031ac:	2a01      	cmp	r2, #1
 80031ae:	4604      	mov	r4, r0
 80031b0:	d011      	beq.n	80031d6 <HAL_ADC_Start_DMA+0x42>
  return (uint32_t)(READ_BIT(ADCxy_COMMON->CCR, ADC_CCR_DUAL));
 80031b2:	f003 081f 	and.w	r8, r3, #31
    if ((ADC_IS_INDEPENDENT(hadc) != RESET)
 80031b6:	4b30      	ldr	r3, [pc, #192]	@ (8003278 <HAL_ADC_Start_DMA+0xe4>)
    __HAL_LOCK(hadc);
 80031b8:	2001      	movs	r0, #1
    if ((ADC_IS_INDEPENDENT(hadc) != RESET)
 80031ba:	429e      	cmp	r6, r3
    __HAL_LOCK(hadc);
 80031bc:	f884 0054 	strb.w	r0, [r4, #84]	@ 0x54
    if ((ADC_IS_INDEPENDENT(hadc) != RESET)
 80031c0:	d00c      	beq.n	80031dc <HAL_ADC_Start_DMA+0x48>
 80031c2:	f240 2121 	movw	r1, #545	@ 0x221
 80031c6:	fa21 f108 	lsr.w	r1, r1, r8
 80031ca:	4001      	ands	r1, r0
 80031cc:	d106      	bne.n	80031dc <HAL_ADC_Start_DMA+0x48>
      __HAL_UNLOCK(hadc);
 80031ce:	f884 1054 	strb.w	r1, [r4, #84]	@ 0x54
}
 80031d2:	e8bd 81f0 	ldmia.w	sp!, {r4, r5, r6, r7, r8, pc}
    __HAL_LOCK(hadc);
 80031d6:	2002      	movs	r0, #2
}
 80031d8:	e8bd 81f0 	ldmia.w	sp!, {r4, r5, r6, r7, r8, pc}
      tmp_hal_status = ADC_Enable(hadc);
 80031dc:	4620      	mov	r0, r4
 80031de:	f7ff ff75 	bl	80030cc <ADC_Enable>
      if (tmp_hal_status == HAL_OK)
 80031e2:	2800      	cmp	r0, #0
 80031e4:	d13c      	bne.n	8003260 <HAL_ADC_Start_DMA+0xcc>
        ADC_STATE_CLR_SET(hadc->State,
 80031e6:	6da3      	ldr	r3, [r4, #88]	@ 0x58
        if ((__LL_ADC_MULTI_INSTANCE_MASTER(hadc->Instance) == hadc->Instance)
 80031e8:	6821      	ldr	r1, [r4, #0]
        ADC_STATE_CLR_SET(hadc->State,
 80031ea:	f423 6370 	bic.w	r3, r3, #3840	@ 0xf00
 80031ee:	f023 0301 	bic.w	r3, r3, #1
 80031f2:	f443 7380 	orr.w	r3, r3, #256	@ 0x100
 80031f6:	65a3      	str	r3, [r4, #88]	@ 0x58
        if ((__LL_ADC_MULTI_INSTANCE_MASTER(hadc->Instance) == hadc->Instance)
 80031f8:	4b20      	ldr	r3, [pc, #128]	@ (800327c <HAL_ADC_Start_DMA+0xe8>)
 80031fa:	4299      	cmp	r1, r3
 80031fc:	d035      	beq.n	800326a <HAL_ADC_Start_DMA+0xd6>
          CLEAR_BIT(hadc->State, HAL_ADC_STATE_MULTIMODE_SLAVE);
 80031fe:	6da3      	ldr	r3, [r4, #88]	@ 0x58
 8003200:	f423 1380 	bic.w	r3, r3, #1048576	@ 0x100000
 8003204:	65a3      	str	r3, [r4, #88]	@ 0x58
        if ((hadc->State & HAL_ADC_STATE_INJ_BUSY) != 0UL)
 8003206:	6da3      	ldr	r3, [r4, #88]	@ 0x58
        hadc->DMA_Handle->XferCpltCallback = ADC_DMAConvCplt;
 8003208:	6d20      	ldr	r0, [r4, #80]	@ 0x50
        if ((hadc->State & HAL_ADC_STATE_INJ_BUSY) != 0UL)
 800320a:	f413 5380 	ands.w	r3, r3, #4096	@ 0x1000
          CLEAR_BIT(hadc->ErrorCode, (HAL_ADC_ERROR_OVR | HAL_ADC_ERROR_DMA));
 800320e:	bf18      	it	ne
 8003210:	6de3      	ldrne	r3, [r4, #92]	@ 0x5c
        tmp_hal_status = HAL_DMA_Start_IT(hadc->DMA_Handle, (uint32_t)&hadc->Instance->DR, (uint32_t)pData, Length);
 8003212:	462a      	mov	r2, r5
          CLEAR_BIT(hadc->ErrorCode, (HAL_ADC_ERROR_OVR | HAL_ADC_ERROR_DMA));
 8003214:	bf18      	it	ne
 8003216:	f023 0306 	bicne.w	r3, r3, #6
        hadc->DMA_Handle->XferCpltCallback = ADC_DMAConvCplt;
 800321a:	4d19      	ldr	r5, [pc, #100]	@ (8003280 <HAL_ADC_Start_DMA+0xec>)
          ADC_CLEAR_ERRORCODE(hadc);
 800321c:	65e3      	str	r3, [r4, #92]	@ 0x5c
        hadc->DMA_Handle->XferCpltCallback = ADC_DMAConvCplt;
 800321e:	62c5      	str	r5, [r0, #44]	@ 0x2c
        hadc->DMA_Handle->XferHalfCpltCallback = ADC_DMAHalfConvCplt;
 8003220:	4d18      	ldr	r5, [pc, #96]	@ (8003284 <HAL_ADC_Start_DMA+0xf0>)
 8003222:	6305      	str	r5, [r0, #48]	@ 0x30
        hadc->DMA_Handle->XferErrorCallback = ADC_DMAError;
 8003224:	4d18      	ldr	r5, [pc, #96]	@ (8003288 <HAL_ADC_Start_DMA+0xf4>)
 8003226:	6345      	str	r5, [r0, #52]	@ 0x34
        __HAL_ADC_CLEAR_FLAG(hadc, (ADC_FLAG_EOC | ADC_FLAG_EOS | ADC_FLAG_OVR));
 8003228:	251c      	movs	r5, #28
 800322a:	600d      	str	r5, [r1, #0]
        __HAL_UNLOCK(hadc);
 800322c:	2500      	movs	r5, #0
 800322e:	f884 5054 	strb.w	r5, [r4, #84]	@ 0x54
        __HAL_ADC_ENABLE_IT(hadc, ADC_IT_OVR);
 8003232:	684d      	ldr	r5, [r1, #4]
 8003234:	f045 0510 	orr.w	r5, r5, #16
 8003238:	604d      	str	r5, [r1, #4]
        SET_BIT(hadc->Instance->CFGR, ADC_CFGR_DMAEN);
 800323a:	68cd      	ldr	r5, [r1, #12]
 800323c:	f045 0501 	orr.w	r5, r5, #1
        tmp_hal_status = HAL_DMA_Start_IT(hadc->DMA_Handle, (uint32_t)&hadc->Instance->DR, (uint32_t)pData, Length);
 8003240:	463b      	mov	r3, r7
        SET_BIT(hadc->Instance->CFGR, ADC_CFGR_DMAEN);
 8003242:	60cd      	str	r5, [r1, #12]
        tmp_hal_status = HAL_DMA_Start_IT(hadc->DMA_Handle, (uint32_t)&hadc->Instance->DR, (uint32_t)pData, Length);
 8003244:	3140      	adds	r1, #64	@ 0x40
 8003246:	f000 ff7b 	bl	8004140 <HAL_DMA_Start_IT>
        LL_ADC_REG_StartConversion(hadc->Instance);
 800324a:	6822      	ldr	r2, [r4, #0]
  MODIFY_REG(ADCx->CR,
 800324c:	6893      	ldr	r3, [r2, #8]
 800324e:	f023 4300 	bic.w	r3, r3, #2147483648	@ 0x80000000
 8003252:	f023 033f 	bic.w	r3, r3, #63	@ 0x3f
 8003256:	f043 0304 	orr.w	r3, r3, #4
 800325a:	6093      	str	r3, [r2, #8]
}
 800325c:	e8bd 81f0 	ldmia.w	sp!, {r4, r5, r6, r7, r8, pc}
        __HAL_UNLOCK(hadc);
 8003260:	2300      	movs	r3, #0
 8003262:	f884 3054 	strb.w	r3, [r4, #84]	@ 0x54
}
 8003266:	e8bd 81f0 	ldmia.w	sp!, {r4, r5, r6, r7, r8, pc}
            || (tmp_multimode_config == LL_ADC_MULTI_INDEPENDENT)
 800326a:	f1b8 0f00 	cmp.w	r8, #0
 800326e:	d1ca      	bne.n	8003206 <HAL_ADC_Start_DMA+0x72>
 8003270:	e7c5      	b.n	80031fe <HAL_ADC_Start_DMA+0x6a>
 8003272:	bf00      	nop
 8003274:	50040300 	.word	0x50040300
 8003278:	50040200 	.word	0x50040200
 800327c:	50040100 	.word	0x50040100
 8003280:	08002a91 	.word	0x08002a91
 8003284:	08002a81 	.word	0x08002a81
 8003288:	08002afd 	.word	0x08002afd

0800328c <ADC_Disable>:
{
 800328c:	b538      	push	{r3, r4, r5, lr}
  const uint32_t tmp_adc_is_disable_on_going = LL_ADC_IsDisableOngoing(hadc->Instance);
 800328e:	6803      	ldr	r3, [r0, #0]
  return ((READ_BIT(ADCx->CR, ADC_CR_ADDIS) == (ADC_CR_ADDIS)) ? 1UL : 0UL);
 8003290:	689a      	ldr	r2, [r3, #8]
 8003292:	0795      	lsls	r5, r2, #30
 8003294:	d502      	bpl.n	800329c <ADC_Disable+0x10>
  return ((READ_BIT(ADCx->CR, ADC_CR_ADEN) == (ADC_CR_ADEN)) ? 1UL : 0UL);
 8003296:	689b      	ldr	r3, [r3, #8]
  return HAL_OK;
 8003298:	2000      	movs	r0, #0
}
 800329a:	bd38      	pop	{r3, r4, r5, pc}
 800329c:	689a      	ldr	r2, [r3, #8]
 800329e:	07d4      	lsls	r4, r2, #31
 80032a0:	d5fa      	bpl.n	8003298 <ADC_Disable+0xc>
    if ((hadc->Instance->CR & (ADC_CR_JADSTART | ADC_CR_ADSTART | ADC_CR_ADEN)) == ADC_CR_ADEN)
 80032a2:	689a      	ldr	r2, [r3, #8]
 80032a4:	f002 020d 	and.w	r2, r2, #13
 80032a8:	2a01      	cmp	r2, #1
 80032aa:	4604      	mov	r4, r0
 80032ac:	d009      	beq.n	80032c2 <ADC_Disable+0x36>
          SET_BIT(hadc->State, HAL_ADC_STATE_ERROR_INTERNAL);
 80032ae:	6da3      	ldr	r3, [r4, #88]	@ 0x58
 80032b0:	f043 0310 	orr.w	r3, r3, #16
 80032b4:	65a3      	str	r3, [r4, #88]	@ 0x58
          SET_BIT(hadc->ErrorCode, HAL_ADC_ERROR_INTERNAL);
 80032b6:	6de3      	ldr	r3, [r4, #92]	@ 0x5c
 80032b8:	f043 0301 	orr.w	r3, r3, #1
 80032bc:	65e3      	str	r3, [r4, #92]	@ 0x5c
      return HAL_ERROR;
 80032be:	2001      	movs	r0, #1
}
 80032c0:	bd38      	pop	{r3, r4, r5, pc}
  MODIFY_REG(ADCx->CR,
 80032c2:	689a      	ldr	r2, [r3, #8]
 80032c4:	f022 4200 	bic.w	r2, r2, #2147483648	@ 0x80000000
 80032c8:	f022 023f 	bic.w	r2, r2, #63	@ 0x3f
      __HAL_ADC_CLEAR_FLAG(hadc, (ADC_FLAG_EOSMP | ADC_FLAG_RDY));
 80032cc:	2103      	movs	r1, #3
 80032ce:	f042 0202 	orr.w	r2, r2, #2
 80032d2:	609a      	str	r2, [r3, #8]
 80032d4:	6019      	str	r1, [r3, #0]
    tickstart = HAL_GetTick();
 80032d6:	f7ff fadd 	bl	8002894 <HAL_GetTick>
    while ((hadc->Instance->CR & ADC_CR_ADEN) != 0UL)
 80032da:	6823      	ldr	r3, [r4, #0]
 80032dc:	689b      	ldr	r3, [r3, #8]
 80032de:	07d9      	lsls	r1, r3, #31
    tickstart = HAL_GetTick();
 80032e0:	4605      	mov	r5, r0
    while ((hadc->Instance->CR & ADC_CR_ADEN) != 0UL)
 80032e2:	d403      	bmi.n	80032ec <ADC_Disable+0x60>
 80032e4:	e7d8      	b.n	8003298 <ADC_Disable+0xc>
 80032e6:	689b      	ldr	r3, [r3, #8]
 80032e8:	07db      	lsls	r3, r3, #31
 80032ea:	d5d5      	bpl.n	8003298 <ADC_Disable+0xc>
      if ((HAL_GetTick() - tickstart) > ADC_DISABLE_TIMEOUT)
 80032ec:	f7ff fad2 	bl	8002894 <HAL_GetTick>
 80032f0:	1b40      	subs	r0, r0, r5
 80032f2:	2802      	cmp	r0, #2
        if ((hadc->Instance->CR & ADC_CR_ADEN) != 0UL)
 80032f4:	6823      	ldr	r3, [r4, #0]
      if ((HAL_GetTick() - tickstart) > ADC_DISABLE_TIMEOUT)
 80032f6:	d9f6      	bls.n	80032e6 <ADC_Disable+0x5a>
        if ((hadc->Instance->CR & ADC_CR_ADEN) != 0UL)
 80032f8:	689a      	ldr	r2, [r3, #8]
 80032fa:	07d2      	lsls	r2, r2, #31
 80032fc:	d5f3      	bpl.n	80032e6 <ADC_Disable+0x5a>
 80032fe:	e7d6      	b.n	80032ae <ADC_Disable+0x22>

08003300 <HAL_ADC_Stop_DMA>:
{
 8003300:	b538      	push	{r3, r4, r5, lr}
  __HAL_LOCK(hadc);
 8003302:	f890 3054 	ldrb.w	r3, [r0, #84]	@ 0x54
 8003306:	2b01      	cmp	r3, #1
 8003308:	d028      	beq.n	800335c <HAL_ADC_Stop_DMA+0x5c>
 800330a:	2301      	movs	r3, #1
 800330c:	f880 3054 	strb.w	r3, [r0, #84]	@ 0x54
  tmp_hal_status = ADC_ConversionStop(hadc, ADC_REGULAR_INJECTED_GROUP);
 8003310:	2103      	movs	r1, #3
 8003312:	4604      	mov	r4, r0
 8003314:	f7ff fe5a 	bl	8002fcc <ADC_ConversionStop>
  if (tmp_hal_status == HAL_OK)
 8003318:	4605      	mov	r5, r0
 800331a:	b9d0      	cbnz	r0, 8003352 <HAL_ADC_Stop_DMA+0x52>
    CLEAR_BIT(hadc->Instance->CFGR, ADC_CFGR_DMAEN);
 800331c:	6823      	ldr	r3, [r4, #0]
    if (hadc->DMA_Handle->State == HAL_DMA_STATE_BUSY)
 800331e:	6d20      	ldr	r0, [r4, #80]	@ 0x50
    CLEAR_BIT(hadc->Instance->CFGR, ADC_CFGR_DMAEN);
 8003320:	68da      	ldr	r2, [r3, #12]
 8003322:	f022 0201 	bic.w	r2, r2, #1
 8003326:	60da      	str	r2, [r3, #12]
    if (hadc->DMA_Handle->State == HAL_DMA_STATE_BUSY)
 8003328:	f890 2025 	ldrb.w	r2, [r0, #37]	@ 0x25
 800332c:	2a02      	cmp	r2, #2
 800332e:	d018      	beq.n	8003362 <HAL_ADC_Stop_DMA+0x62>
    __HAL_ADC_DISABLE_IT(hadc, ADC_IT_OVR);
 8003330:	685a      	ldr	r2, [r3, #4]
 8003332:	f022 0210 	bic.w	r2, r2, #16
 8003336:	605a      	str	r2, [r3, #4]
      tmp_hal_status = ADC_Disable(hadc);
 8003338:	4620      	mov	r0, r4
 800333a:	f7ff ffa7 	bl	800328c <ADC_Disable>
    if (tmp_hal_status == HAL_OK)
 800333e:	4605      	mov	r5, r0
 8003340:	b938      	cbnz	r0, 8003352 <HAL_ADC_Stop_DMA+0x52>
      ADC_STATE_CLR_SET(hadc->State,
 8003342:	6da3      	ldr	r3, [r4, #88]	@ 0x58
 8003344:	f423 5388 	bic.w	r3, r3, #4352	@ 0x1100
 8003348:	f023 0301 	bic.w	r3, r3, #1
 800334c:	f043 0301 	orr.w	r3, r3, #1
 8003350:	65a3      	str	r3, [r4, #88]	@ 0x58
  __HAL_UNLOCK(hadc);
 8003352:	2300      	movs	r3, #0
 8003354:	f884 3054 	strb.w	r3, [r4, #84]	@ 0x54
}
 8003358:	4628      	mov	r0, r5
 800335a:	bd38      	pop	{r3, r4, r5, pc}
  __HAL_LOCK(hadc);
 800335c:	2502      	movs	r5, #2
}
 800335e:	4628      	mov	r0, r5
 8003360:	bd38      	pop	{r3, r4, r5, pc}
      tmp_hal_status = HAL_DMA_Abort(hadc->DMA_Handle);
 8003362:	f000 ff31 	bl	80041c8 <HAL_DMA_Abort>
      if (tmp_hal_status != HAL_OK)
 8003366:	4605      	mov	r5, r0
 8003368:	b160      	cbz	r0, 8003384 <HAL_ADC_Stop_DMA+0x84>
        SET_BIT(hadc->State, HAL_ADC_STATE_ERROR_DMA);
 800336a:	6da3      	ldr	r3, [r4, #88]	@ 0x58
    __HAL_ADC_DISABLE_IT(hadc, ADC_IT_OVR);
 800336c:	6822      	ldr	r2, [r4, #0]
        SET_BIT(hadc->State, HAL_ADC_STATE_ERROR_DMA);
 800336e:	f043 0340 	orr.w	r3, r3, #64	@ 0x40
 8003372:	65a3      	str	r3, [r4, #88]	@ 0x58
    __HAL_ADC_DISABLE_IT(hadc, ADC_IT_OVR);
 8003374:	6853      	ldr	r3, [r2, #4]
 8003376:	f023 0310 	bic.w	r3, r3, #16
      (void)ADC_Disable(hadc);
 800337a:	4620      	mov	r0, r4
    __HAL_ADC_DISABLE_IT(hadc, ADC_IT_OVR);
 800337c:	6053      	str	r3, [r2, #4]
      (void)ADC_Disable(hadc);
 800337e:	f7ff ff85 	bl	800328c <ADC_Disable>
    if (tmp_hal_status == HAL_OK)
 8003382:	e7e6      	b.n	8003352 <HAL_ADC_Stop_DMA+0x52>
    __HAL_ADC_DISABLE_IT(hadc, ADC_IT_OVR);
 8003384:	6822      	ldr	r2, [r4, #0]
 8003386:	6853      	ldr	r3, [r2, #4]
 8003388:	f023 0310 	bic.w	r3, r3, #16
 800338c:	6053      	str	r3, [r2, #4]
    if (tmp_hal_status == HAL_OK)
 800338e:	e7d3      	b.n	8003338 <HAL_ADC_Stop_DMA+0x38>

08003390 <HAL_ADCEx_Calibration_Start>:
  *           @arg @ref ADC_SINGLE_ENDED       Channel in mode input single ended
  *           @arg @ref ADC_DIFFERENTIAL_ENDED Channel in mode input differential ended
  * @retval HAL status
  */
HAL_StatusTypeDef HAL_ADCEx_Calibration_Start(ADC_HandleTypeDef *hadc, uint32_t SingleDiff)
{
 8003390:	b530      	push	{r4, r5, lr}
  /* Check the parameters */
  assert_param(IS_ADC_ALL_INSTANCE(hadc->Instance));
  assert_param(IS_ADC_SINGLE_DIFFERENTIAL(SingleDiff));

  /* Process locked */
  __HAL_LOCK(hadc);
 8003392:	f890 3054 	ldrb.w	r3, [r0, #84]	@ 0x54
{
 8003396:	b083      	sub	sp, #12
  __IO uint32_t wait_loop_index = 0UL;
 8003398:	2200      	movs	r2, #0
  __HAL_LOCK(hadc);
 800339a:	2b01      	cmp	r3, #1
  __IO uint32_t wait_loop_index = 0UL;
 800339c:	9201      	str	r2, [sp, #4]
  __HAL_LOCK(hadc);
 800339e:	d03f      	beq.n	8003420 <HAL_ADCEx_Calibration_Start+0x90>
 80033a0:	2301      	movs	r3, #1
 80033a2:	f880 3054 	strb.w	r3, [r0, #84]	@ 0x54

  /* Calibration prerequisite: ADC must be disabled. */

  /* Disable the ADC (if not already disabled) */
  tmp_hal_status = ADC_Disable(hadc);
 80033a6:	4604      	mov	r4, r0
 80033a8:	460d      	mov	r5, r1
 80033aa:	f7ff ff6f 	bl	800328c <ADC_Disable>

  /* Check if ADC is effectively disabled */
  if (tmp_hal_status == HAL_OK)
  {
    /* Set ADC state */
    ADC_STATE_CLR_SET(hadc->State,
 80033ae:	6da3      	ldr	r3, [r4, #88]	@ 0x58
  if (tmp_hal_status == HAL_OK)
 80033b0:	b9e0      	cbnz	r0, 80033ec <HAL_ADCEx_Calibration_Start+0x5c>
    ADC_STATE_CLR_SET(hadc->State,
 80033b2:	f423 5388 	bic.w	r3, r3, #4352	@ 0x1100
 80033b6:	f023 0302 	bic.w	r3, r3, #2
                      HAL_ADC_STATE_REG_BUSY | HAL_ADC_STATE_INJ_BUSY,
                      HAL_ADC_STATE_BUSY_INTERNAL);

    /* Start ADC calibration in mode single-ended or differential */
    LL_ADC_StartCalibration(hadc->Instance, SingleDiff);
 80033ba:	6822      	ldr	r2, [r4, #0]
    ADC_STATE_CLR_SET(hadc->State,
 80033bc:	f043 0302 	orr.w	r3, r3, #2
 80033c0:	65a3      	str	r3, [r4, #88]	@ 0x58
  MODIFY_REG(ADCx->CR,
 80033c2:	6893      	ldr	r3, [r2, #8]
 80033c4:	f023 4340 	bic.w	r3, r3, #3221225472	@ 0xc0000000
 80033c8:	f005 4180 	and.w	r1, r5, #1073741824	@ 0x40000000
 80033cc:	f023 033f 	bic.w	r3, r3, #63	@ 0x3f
 80033d0:	430b      	orrs	r3, r1
 80033d2:	f043 4300 	orr.w	r3, r3, #2147483648	@ 0x80000000
 80033d6:	6093      	str	r3, [r2, #8]
  return ((READ_BIT(ADCx->CR, ADC_CR_ADCAL) == (ADC_CR_ADCAL)) ? 1UL : 0UL);
 80033d8:	6893      	ldr	r3, [r2, #8]
 80033da:	2b00      	cmp	r3, #0
 80033dc:	db0e      	blt.n	80033fc <HAL_ADCEx_Calibration_Start+0x6c>
        return HAL_ERROR;
      }
    }

    /* Set ADC state */
    ADC_STATE_CLR_SET(hadc->State,
 80033de:	6da3      	ldr	r3, [r4, #88]	@ 0x58
 80033e0:	f023 0303 	bic.w	r3, r3, #3
 80033e4:	f043 0301 	orr.w	r3, r3, #1
 80033e8:	65a3      	str	r3, [r4, #88]	@ 0x58
 80033ea:	e002      	b.n	80033f2 <HAL_ADCEx_Calibration_Start+0x62>
                      HAL_ADC_STATE_BUSY_INTERNAL,
                      HAL_ADC_STATE_READY);
  }
  else
  {
    SET_BIT(hadc->State, HAL_ADC_STATE_ERROR_INTERNAL);
 80033ec:	f043 0310 	orr.w	r3, r3, #16
 80033f0:	65a3      	str	r3, [r4, #88]	@ 0x58
    /* Note: No need to update variable "tmp_hal_status" here: already set    */
    /*       to state "HAL_ERROR" by function disabling the ADC.              */
  }

  /* Process unlocked */
  __HAL_UNLOCK(hadc);
 80033f2:	2300      	movs	r3, #0
 80033f4:	f884 3054 	strb.w	r3, [r4, #84]	@ 0x54

  /* Return function status */
  return tmp_hal_status;
}
 80033f8:	b003      	add	sp, #12
 80033fa:	bd30      	pop	{r4, r5, pc}
      wait_loop_index++;
 80033fc:	9b01      	ldr	r3, [sp, #4]
 80033fe:	3301      	adds	r3, #1
 8003400:	9301      	str	r3, [sp, #4]
      if (wait_loop_index >= ADC_CALIBRATION_TIMEOUT)
 8003402:	9b01      	ldr	r3, [sp, #4]
 8003404:	f5b3 2f91 	cmp.w	r3, #296960	@ 0x48800
 8003408:	d3e6      	bcc.n	80033d8 <HAL_ADCEx_Calibration_Start+0x48>
        ADC_STATE_CLR_SET(hadc->State,
 800340a:	6da3      	ldr	r3, [r4, #88]	@ 0x58
 800340c:	f023 0312 	bic.w	r3, r3, #18
        __HAL_UNLOCK(hadc);
 8003410:	2200      	movs	r2, #0
        ADC_STATE_CLR_SET(hadc->State,
 8003412:	f043 0310 	orr.w	r3, r3, #16
 8003416:	65a3      	str	r3, [r4, #88]	@ 0x58
        __HAL_UNLOCK(hadc);
 8003418:	f884 2054 	strb.w	r2, [r4, #84]	@ 0x54
        return HAL_ERROR;
 800341c:	2001      	movs	r0, #1
 800341e:	e7eb      	b.n	80033f8 <HAL_ADCEx_Calibration_Start+0x68>
  __HAL_LOCK(hadc);
 8003420:	2002      	movs	r0, #2
}
 8003422:	b003      	add	sp, #12
 8003424:	bd30      	pop	{r4, r5, pc}
 8003426:	bf00      	nop

08003428 <HAL_ADCEx_MultiModeConfigChannel>:
  * @param hadc Master ADC handle
  * @param pMultimode Structure of ADC multimode configuration
  * @retval HAL status
  */
HAL_StatusTypeDef HAL_ADCEx_MultiModeConfigChannel(ADC_HandleTypeDef *hadc, const ADC_MultiModeTypeDef *pMultimode)
{
 8003428:	b4f0      	push	{r4, r5, r6, r7}
    assert_param(IS_ADC_DMA_ACCESS_MULTIMODE(pMultimode->DMAAccessMode));
    assert_param(IS_ADC_SAMPLING_DELAY(pMultimode->TwoSamplingDelay));
  }

  /* Process locked */
  __HAL_LOCK(hadc);
 800342a:	f890 2054 	ldrb.w	r2, [r0, #84]	@ 0x54
  if (pMultimode->Mode != ADC_MODE_INDEPENDENT)
 800342e:	680e      	ldr	r6, [r1, #0]
  __HAL_LOCK(hadc);
 8003430:	2a01      	cmp	r2, #1
{
 8003432:	b09a      	sub	sp, #104	@ 0x68
  __HAL_LOCK(hadc);
 8003434:	d044      	beq.n	80034c0 <HAL_ADCEx_MultiModeConfigChannel+0x98>
 8003436:	4603      	mov	r3, r0

  /* Temporary handle minimum initialization */
  __HAL_ADC_RESET_HANDLE_STATE(&tmp_hadc_slave);
  ADC_CLEAR_ERRORCODE(&tmp_hadc_slave);

  ADC_MULTI_SLAVE(hadc, &tmp_hadc_slave);
 8003438:	4d2e      	ldr	r5, [pc, #184]	@ (80034f4 <HAL_ADCEx_MultiModeConfigChannel+0xcc>)
 800343a:	681c      	ldr	r4, [r3, #0]
  __HAL_ADC_RESET_HANDLE_STATE(&tmp_hadc_slave);
 800343c:	2200      	movs	r2, #0
  __HAL_LOCK(hadc);
 800343e:	2001      	movs	r0, #1
  ADC_MULTI_SLAVE(hadc, &tmp_hadc_slave);
 8003440:	42ac      	cmp	r4, r5
  __HAL_ADC_RESET_HANDLE_STATE(&tmp_hadc_slave);
 8003442:	9216      	str	r2, [sp, #88]	@ 0x58
  __HAL_LOCK(hadc);
 8003444:	f883 0054 	strb.w	r0, [r3, #84]	@ 0x54
  ADC_CLEAR_ERRORCODE(&tmp_hadc_slave);
 8003448:	9217      	str	r2, [sp, #92]	@ 0x5c
  ADC_MULTI_SLAVE(hadc, &tmp_hadc_slave);
 800344a:	d008      	beq.n	800345e <HAL_ADCEx_MultiModeConfigChannel+0x36>

  if (tmp_hadc_slave.Instance == NULL)
  {
    /* Update ADC state machine to error */
    SET_BIT(hadc->State, HAL_ADC_STATE_ERROR_CONFIG);
 800344c:	6d99      	ldr	r1, [r3, #88]	@ 0x58

    /* Process unlocked */
    __HAL_UNLOCK(hadc);
 800344e:	f883 2054 	strb.w	r2, [r3, #84]	@ 0x54
    SET_BIT(hadc->State, HAL_ADC_STATE_ERROR_CONFIG);
 8003452:	f041 0120 	orr.w	r1, r1, #32
 8003456:	6599      	str	r1, [r3, #88]	@ 0x58
  /* Process unlocked */
  __HAL_UNLOCK(hadc);

  /* Return function status */
  return tmp_hal_status;
}
 8003458:	b01a      	add	sp, #104	@ 0x68
 800345a:	bcf0      	pop	{r4, r5, r6, r7}
 800345c:	4770      	bx	lr
  return ((READ_BIT(ADCx->CR, ADC_CR_ADSTART) == (ADC_CR_ADSTART)) ? 1UL : 0UL);
 800345e:	4a26      	ldr	r2, [pc, #152]	@ (80034f8 <HAL_ADCEx_MultiModeConfigChannel+0xd0>)
 8003460:	6890      	ldr	r0, [r2, #8]
 8003462:	0740      	lsls	r0, r0, #29
 8003464:	d50b      	bpl.n	800347e <HAL_ADCEx_MultiModeConfigChannel+0x56>
 8003466:	68a2      	ldr	r2, [r4, #8]
    SET_BIT(hadc->State, HAL_ADC_STATE_ERROR_CONFIG);
 8003468:	6d9a      	ldr	r2, [r3, #88]	@ 0x58
 800346a:	f042 0220 	orr.w	r2, r2, #32
    tmp_hal_status = HAL_ERROR;
 800346e:	2001      	movs	r0, #1
    SET_BIT(hadc->State, HAL_ADC_STATE_ERROR_CONFIG);
 8003470:	659a      	str	r2, [r3, #88]	@ 0x58
  __HAL_UNLOCK(hadc);
 8003472:	2200      	movs	r2, #0
 8003474:	f883 2054 	strb.w	r2, [r3, #84]	@ 0x54
}
 8003478:	b01a      	add	sp, #104	@ 0x68
 800347a:	bcf0      	pop	{r4, r5, r6, r7}
 800347c:	4770      	bx	lr
 800347e:	68a0      	ldr	r0, [r4, #8]
 8003480:	0747      	lsls	r7, r0, #29
 8003482:	d4f1      	bmi.n	8003468 <HAL_ADCEx_MultiModeConfigChannel+0x40>
    if (pMultimode->Mode != ADC_MODE_INDEPENDENT)
 8003484:	b306      	cbz	r6, 80034c8 <HAL_ADCEx_MultiModeConfigChannel+0xa0>
      MODIFY_REG(tmpADC_Common->CCR, ADC_CCR_MDMA | ADC_CCR_DMACFG,
 8003486:	4f1d      	ldr	r7, [pc, #116]	@ (80034fc <HAL_ADCEx_MultiModeConfigChannel+0xd4>)
 8003488:	684d      	ldr	r5, [r1, #4]
 800348a:	68b8      	ldr	r0, [r7, #8]
 800348c:	f420 4060 	bic.w	r0, r0, #57344	@ 0xe000
 8003490:	4328      	orrs	r0, r5
 8003492:	f893 5030 	ldrb.w	r5, [r3, #48]	@ 0x30
 8003496:	ea40 3045 	orr.w	r0, r0, r5, lsl #13
 800349a:	60b8      	str	r0, [r7, #8]
  return ((READ_BIT(ADCx->CR, ADC_CR_ADEN) == (ADC_CR_ADEN)) ? 1UL : 0UL);
 800349c:	68a0      	ldr	r0, [r4, #8]
 800349e:	6892      	ldr	r2, [r2, #8]
 80034a0:	4302      	orrs	r2, r0
 80034a2:	4817      	ldr	r0, [pc, #92]	@ (8003500 <HAL_ADCEx_MultiModeConfigChannel+0xd8>)
 80034a4:	6880      	ldr	r0, [r0, #8]
 80034a6:	4302      	orrs	r2, r0
 80034a8:	07d5      	lsls	r5, r2, #31
 80034aa:	d420      	bmi.n	80034ee <HAL_ADCEx_MultiModeConfigChannel+0xc6>
        MODIFY_REG(tmpADC_Common->CCR,
 80034ac:	68b8      	ldr	r0, [r7, #8]
 80034ae:	688a      	ldr	r2, [r1, #8]
 80034b0:	f420 6171 	bic.w	r1, r0, #3856	@ 0xf10
 80034b4:	4332      	orrs	r2, r6
 80034b6:	f021 010f 	bic.w	r1, r1, #15
 80034ba:	430a      	orrs	r2, r1
 80034bc:	60ba      	str	r2, [r7, #8]
 80034be:	e016      	b.n	80034ee <HAL_ADCEx_MultiModeConfigChannel+0xc6>
  __HAL_LOCK(hadc);
 80034c0:	2002      	movs	r0, #2
}
 80034c2:	b01a      	add	sp, #104	@ 0x68
 80034c4:	bcf0      	pop	{r4, r5, r6, r7}
 80034c6:	4770      	bx	lr
      CLEAR_BIT(tmpADC_Common->CCR, ADC_CCR_MDMA | ADC_CCR_DMACFG);
 80034c8:	480c      	ldr	r0, [pc, #48]	@ (80034fc <HAL_ADCEx_MultiModeConfigChannel+0xd4>)
 80034ca:	6881      	ldr	r1, [r0, #8]
 80034cc:	f421 4160 	bic.w	r1, r1, #57344	@ 0xe000
 80034d0:	6081      	str	r1, [r0, #8]
 80034d2:	490b      	ldr	r1, [pc, #44]	@ (8003500 <HAL_ADCEx_MultiModeConfigChannel+0xd8>)
 80034d4:	68a4      	ldr	r4, [r4, #8]
 80034d6:	6892      	ldr	r2, [r2, #8]
 80034d8:	6889      	ldr	r1, [r1, #8]
 80034da:	4322      	orrs	r2, r4
 80034dc:	430a      	orrs	r2, r1
 80034de:	07d4      	lsls	r4, r2, #31
 80034e0:	d405      	bmi.n	80034ee <HAL_ADCEx_MultiModeConfigChannel+0xc6>
        CLEAR_BIT(tmpADC_Common->CCR, ADC_CCR_DUAL | ADC_CCR_DELAY);
 80034e2:	6882      	ldr	r2, [r0, #8]
 80034e4:	f422 6271 	bic.w	r2, r2, #3856	@ 0xf10
 80034e8:	f022 020f 	bic.w	r2, r2, #15
 80034ec:	6082      	str	r2, [r0, #8]
  HAL_StatusTypeDef tmp_hal_status = HAL_OK;
 80034ee:	2000      	movs	r0, #0
 80034f0:	e7bf      	b.n	8003472 <HAL_ADCEx_MultiModeConfigChannel+0x4a>
 80034f2:	bf00      	nop
 80034f4:	50040000 	.word	0x50040000
 80034f8:	50040100 	.word	0x50040100
 80034fc:	50040300 	.word	0x50040300
 8003500:	50040200 	.word	0x50040200

08003504 <HAL_NVIC_SetPriorityGrouping>:
__STATIC_INLINE void __NVIC_SetPriorityGrouping(uint32_t PriorityGroup)
{
  uint32_t reg_value;
  uint32_t PriorityGroupTmp = (PriorityGroup & (uint32_t)0x07UL);             /* only values 0..7 are used          */

  reg_value  =  SCB->AIRCR;                                                   /* read old register configuration    */
 8003504:	4907      	ldr	r1, [pc, #28]	@ (8003524 <HAL_NVIC_SetPriorityGrouping+0x20>)
 8003506:	68ca      	ldr	r2, [r1, #12]
  reg_value &= ~((uint32_t)(SCB_AIRCR_VECTKEY_Msk | SCB_AIRCR_PRIGROUP_Msk)); /* clear bits to change               */
  reg_value  =  (reg_value                                   |
                ((uint32_t)0x5FAUL << SCB_AIRCR_VECTKEY_Pos) |
                (PriorityGroupTmp << SCB_AIRCR_PRIGROUP_Pos)  );              /* Insert write key and priority group */
 8003508:	0203      	lsls	r3, r0, #8
  reg_value &= ~((uint32_t)(SCB_AIRCR_VECTKEY_Msk | SCB_AIRCR_PRIGROUP_Msk)); /* clear bits to change               */
 800350a:	f64f 00ff 	movw	r0, #63743	@ 0xf8ff
                (PriorityGroupTmp << SCB_AIRCR_PRIGROUP_Pos)  );              /* Insert write key and priority group */
 800350e:	f403 63e0 	and.w	r3, r3, #1792	@ 0x700
  reg_value &= ~((uint32_t)(SCB_AIRCR_VECTKEY_Msk | SCB_AIRCR_PRIGROUP_Msk)); /* clear bits to change               */
 8003512:	4002      	ands	r2, r0
                ((uint32_t)0x5FAUL << SCB_AIRCR_VECTKEY_Pos) |
 8003514:	4313      	orrs	r3, r2
  reg_value  =  (reg_value                                   |
 8003516:	f043 63bf 	orr.w	r3, r3, #100139008	@ 0x5f80000
 800351a:	f443 3300 	orr.w	r3, r3, #131072	@ 0x20000
  SCB->AIRCR =  reg_value;
 800351e:	60cb      	str	r3, [r1, #12]
  /* Check the parameters */
  assert_param(IS_NVIC_PRIORITY_GROUP(PriorityGroup));

  /* Set the PRIGROUP[10:8] bits according to the PriorityGroup parameter value */
  NVIC_SetPriorityGrouping(PriorityGroup);
}
 8003520:	4770      	bx	lr
 8003522:	bf00      	nop
 8003524:	e000ed00 	.word	0xe000ed00

08003528 <HAL_NVIC_SetPriority>:
  \details Reads the priority grouping field from the NVIC Interrupt Controller.
  \return                Priority grouping field (SCB->AIRCR [10:8] PRIGROUP field).
 */
__STATIC_INLINE uint32_t __NVIC_GetPriorityGrouping(void)
{
  return ((uint32_t)((SCB->AIRCR & SCB_AIRCR_PRIGROUP_Msk) >> SCB_AIRCR_PRIGROUP_Pos));
 8003528:	4b1b      	ldr	r3, [pc, #108]	@ (8003598 <HAL_NVIC_SetPriority+0x70>)
 800352a:	68db      	ldr	r3, [r3, #12]
 800352c:	f3c3 2302 	ubfx	r3, r3, #8, #3
  *         This parameter can be a value between 0 and 15
  *         A lower priority value indicates a higher priority.
  * @retval None
  */
void HAL_NVIC_SetPriority(IRQn_Type IRQn, uint32_t PreemptPriority, uint32_t SubPriority)
{
 8003530:	b500      	push	{lr}
{
  uint32_t PriorityGroupTmp = (PriorityGroup & (uint32_t)0x07UL);   /* only values 0..7 are used          */
  uint32_t PreemptPriorityBits;
  uint32_t SubPriorityBits;

  PreemptPriorityBits = ((7UL - PriorityGroupTmp) > (uint32_t)(__NVIC_PRIO_BITS)) ? (uint32_t)(__NVIC_PRIO_BITS) : (uint32_t)(7UL - PriorityGroupTmp);
 8003532:	f1c3 0e07 	rsb	lr, r3, #7
 8003536:	f1be 0f04 	cmp.w	lr, #4
  SubPriorityBits     = ((PriorityGroupTmp + (uint32_t)(__NVIC_PRIO_BITS)) < (uint32_t)7UL) ? (uint32_t)0UL : (uint32_t)((PriorityGroupTmp - 7UL) + (uint32_t)(__NVIC_PRIO_BITS));
 800353a:	f103 0c04 	add.w	ip, r3, #4
  PreemptPriorityBits = ((7UL - PriorityGroupTmp) > (uint32_t)(__NVIC_PRIO_BITS)) ? (uint32_t)(__NVIC_PRIO_BITS) : (uint32_t)(7UL - PriorityGroupTmp);
 800353e:	bf28      	it	cs
 8003540:	f04f 0e04 	movcs.w	lr, #4
  SubPriorityBits     = ((PriorityGroupTmp + (uint32_t)(__NVIC_PRIO_BITS)) < (uint32_t)7UL) ? (uint32_t)0UL : (uint32_t)((PriorityGroupTmp - 7UL) + (uint32_t)(__NVIC_PRIO_BITS));
 8003544:	f1bc 0f06 	cmp.w	ip, #6
 8003548:	d91c      	bls.n	8003584 <HAL_NVIC_SetPriority+0x5c>
 800354a:	f1a3 0c03 	sub.w	ip, r3, #3

  return (
           ((PreemptPriority & (uint32_t)((1UL << (PreemptPriorityBits)) - 1UL)) << SubPriorityBits) |
           ((SubPriority     & (uint32_t)((1UL << (SubPriorityBits    )) - 1UL)))
 800354e:	f04f 33ff 	mov.w	r3, #4294967295
 8003552:	fa03 f30c 	lsl.w	r3, r3, ip
 8003556:	ea22 0203 	bic.w	r2, r2, r3
           ((PreemptPriority & (uint32_t)((1UL << (PreemptPriorityBits)) - 1UL)) << SubPriorityBits) |
 800355a:	f04f 33ff 	mov.w	r3, #4294967295
 800355e:	fa03 f30e 	lsl.w	r3, r3, lr
 8003562:	ea21 0303 	bic.w	r3, r1, r3
 8003566:	fa03 f30c 	lsl.w	r3, r3, ip
 800356a:	4313      	orrs	r3, r2
    NVIC->IP[((uint32_t)IRQn)]               = (uint8_t)((priority << (8U - __NVIC_PRIO_BITS)) & (uint32_t)0xFFUL);
 800356c:	011b      	lsls	r3, r3, #4
  if ((int32_t)(IRQn) >= 0)
 800356e:	2800      	cmp	r0, #0
    NVIC->IP[((uint32_t)IRQn)]               = (uint8_t)((priority << (8U - __NVIC_PRIO_BITS)) & (uint32_t)0xFFUL);
 8003570:	b2db      	uxtb	r3, r3
  if ((int32_t)(IRQn) >= 0)
 8003572:	db0a      	blt.n	800358a <HAL_NVIC_SetPriority+0x62>
    NVIC->IP[((uint32_t)IRQn)]               = (uint8_t)((priority << (8U - __NVIC_PRIO_BITS)) & (uint32_t)0xFFUL);
 8003574:	f100 4060 	add.w	r0, r0, #3758096384	@ 0xe0000000
 8003578:	f500 4061 	add.w	r0, r0, #57600	@ 0xe100
 800357c:	f880 3300 	strb.w	r3, [r0, #768]	@ 0x300
  assert_param(IS_NVIC_PREEMPTION_PRIORITY(PreemptPriority));

  prioritygroup = NVIC_GetPriorityGrouping();

  NVIC_SetPriority(IRQn, NVIC_EncodePriority(prioritygroup, PreemptPriority, SubPriority));
}
 8003580:	f85d fb04 	ldr.w	pc, [sp], #4
 8003584:	2200      	movs	r2, #0
  SubPriorityBits     = ((PriorityGroupTmp + (uint32_t)(__NVIC_PRIO_BITS)) < (uint32_t)7UL) ? (uint32_t)0UL : (uint32_t)((PriorityGroupTmp - 7UL) + (uint32_t)(__NVIC_PRIO_BITS));
 8003586:	4694      	mov	ip, r2
 8003588:	e7e7      	b.n	800355a <HAL_NVIC_SetPriority+0x32>
    SCB->SHP[(((uint32_t)IRQn) & 0xFUL)-4UL] = (uint8_t)((priority << (8U - __NVIC_PRIO_BITS)) & (uint32_t)0xFFUL);
 800358a:	4a04      	ldr	r2, [pc, #16]	@ (800359c <HAL_NVIC_SetPriority+0x74>)
 800358c:	f000 000f 	and.w	r0, r0, #15
 8003590:	4402      	add	r2, r0
 8003592:	7613      	strb	r3, [r2, #24]
 8003594:	f85d fb04 	ldr.w	pc, [sp], #4
 8003598:	e000ed00 	.word	0xe000ed00
 800359c:	e000ecfc 	.word	0xe000ecfc

080035a0 <HAL_NVIC_EnableIRQ>:
  if ((int32_t)(IRQn) >= 0)
 80035a0:	2800      	cmp	r0, #0
 80035a2:	db07      	blt.n	80035b4 <HAL_NVIC_EnableIRQ+0x14>
    NVIC->ISER[(((uint32_t)IRQn) >> 5UL)] = (uint32_t)(1UL << (((uint32_t)IRQn) & 0x1FUL));
 80035a4:	4a04      	ldr	r2, [pc, #16]	@ (80035b8 <HAL_NVIC_EnableIRQ+0x18>)
 80035a6:	0941      	lsrs	r1, r0, #5
 80035a8:	2301      	movs	r3, #1
 80035aa:	f000 001f 	and.w	r0, r0, #31
 80035ae:	4083      	lsls	r3, r0
 80035b0:	f842 3021 	str.w	r3, [r2, r1, lsl #2]
  /* Check the parameters */
  assert_param(IS_NVIC_DEVICE_IRQ(IRQn));
  
  /* Enable interrupt */
  NVIC_EnableIRQ(IRQn);
}
 80035b4:	4770      	bx	lr
 80035b6:	bf00      	nop
 80035b8:	e000e100 	.word	0xe000e100

080035bc <HAL_SYSTICK_Config>:
           function <b>SysTick_Config</b> is not included. In this case, the file <b><i>device</i>.h</b>
           must contain a vendor-specific implementation of this function.
 */
__STATIC_INLINE uint32_t SysTick_Config(uint32_t ticks)
{
  if ((ticks - 1UL) > SysTick_LOAD_RELOAD_Msk)
 80035bc:	3801      	subs	r0, #1
 80035be:	f1b0 7f80 	cmp.w	r0, #16777216	@ 0x1000000
 80035c2:	d301      	bcc.n	80035c8 <HAL_SYSTICK_Config+0xc>
  {
    return (1UL);                                                   /* Reload value impossible */
 80035c4:	2001      	movs	r0, #1
  *                  - 1  Function failed.
  */
uint32_t HAL_SYSTICK_Config(uint32_t TicksNumb)
{
   return SysTick_Config(TicksNumb);
}
 80035c6:	4770      	bx	lr
{
 80035c8:	b410      	push	{r4}
  }

  SysTick->LOAD  = (uint32_t)(ticks - 1UL);                         /* set reload register */
 80035ca:	f04f 23e0 	mov.w	r3, #3758153728	@ 0xe000e000
    SCB->SHP[(((uint32_t)IRQn) & 0xFUL)-4UL] = (uint8_t)((priority << (8U - __NVIC_PRIO_BITS)) & (uint32_t)0xFFUL);
 80035ce:	4c07      	ldr	r4, [pc, #28]	@ (80035ec <HAL_SYSTICK_Config+0x30>)
  SysTick->LOAD  = (uint32_t)(ticks - 1UL);                         /* set reload register */
 80035d0:	6158      	str	r0, [r3, #20]
    SCB->SHP[(((uint32_t)IRQn) & 0xFUL)-4UL] = (uint8_t)((priority << (8U - __NVIC_PRIO_BITS)) & (uint32_t)0xFFUL);
 80035d2:	f04f 0cf0 	mov.w	ip, #240	@ 0xf0
 80035d6:	f884 c023 	strb.w	ip, [r4, #35]	@ 0x23
  NVIC_SetPriority (SysTick_IRQn, (1UL << __NVIC_PRIO_BITS) - 1UL); /* set Priority for Systick Interrupt */
  SysTick->VAL   = 0UL;                                             /* Load the SysTick Counter Value */
 80035da:	2200      	movs	r2, #0
  SysTick->CTRL  = SysTick_CTRL_CLKSOURCE_Msk |
 80035dc:	2107      	movs	r1, #7
                   SysTick_CTRL_TICKINT_Msk   |
                   SysTick_CTRL_ENABLE_Msk;                         /* Enable SysTick IRQ and SysTick Timer */
  return (0UL);                                                     /* Function successful */
 80035de:	4610      	mov	r0, r2
  SysTick->VAL   = 0UL;                                             /* Load the SysTick Counter Value */
 80035e0:	619a      	str	r2, [r3, #24]
}
 80035e2:	f85d 4b04 	ldr.w	r4, [sp], #4
  SysTick->CTRL  = SysTick_CTRL_CLKSOURCE_Msk |
 80035e6:	6119      	str	r1, [r3, #16]
 80035e8:	4770      	bx	lr
 80035ea:	bf00      	nop
 80035ec:	e000ed00 	.word	0xe000ed00

080035f0 <CRYP_SetKey>:
  */
static HAL_StatusTypeDef  CRYP_SetKey(CRYP_HandleTypeDef *hcryp)
{
  uint32_t keyaddr;

  if (hcryp->Init.pKey == NULL)
 80035f0:	6a03      	ldr	r3, [r0, #32]
 80035f2:	b32b      	cbz	r3, 8003640 <CRYP_SetKey+0x50>
{
 80035f4:	b410      	push	{r4}
  }


  keyaddr = (uint32_t)(hcryp->Init.pKey);

  if (hcryp->Init.KeySize == CRYP_KEYSIZE_256B)
 80035f6:	68c4      	ldr	r4, [r0, #12]
  {
    hcryp->Instance->KEYR7 = __REV(*(uint32_t*)(keyaddr));
 80035f8:	6802      	ldr	r2, [r0, #0]
  if (hcryp->Init.KeySize == CRYP_KEYSIZE_256B)
 80035fa:	f5b4 2f80 	cmp.w	r4, #262144	@ 0x40000
  keyaddr = (uint32_t)(hcryp->Init.pKey);
 80035fe:	4619      	mov	r1, r3
  if (hcryp->Init.KeySize == CRYP_KEYSIZE_256B)
 8003600:	d10e      	bne.n	8003620 <CRYP_SetKey+0x30>
  return __builtin_bswap32(value);
 8003602:	6818      	ldr	r0, [r3, #0]
 8003604:	ba00      	rev	r0, r0
    hcryp->Instance->KEYR7 = __REV(*(uint32_t*)(keyaddr));
 8003606:	63d0      	str	r0, [r2, #60]	@ 0x3c
 8003608:	6858      	ldr	r0, [r3, #4]
 800360a:	ba00      	rev	r0, r0
    keyaddr+=4U;
    hcryp->Instance->KEYR6 = __REV(*(uint32_t*)(keyaddr));
 800360c:	6390      	str	r0, [r2, #56]	@ 0x38
 800360e:	6898      	ldr	r0, [r3, #8]
 8003610:	ba00      	rev	r0, r0
    keyaddr+=4U;
    hcryp->Instance->KEYR5 = __REV(*(uint32_t*)(keyaddr));
 8003612:	6350      	str	r0, [r2, #52]	@ 0x34
 8003614:	68d8      	ldr	r0, [r3, #12]
    keyaddr+=4U;
    hcryp->Instance->KEYR4 = __REV(*(uint32_t*)(keyaddr));
    keyaddr+=4U;
 8003616:	f103 0110 	add.w	r1, r3, #16
 800361a:	ba00      	rev	r0, r0
  }

  hcryp->Instance->KEYR3 = __REV(*(uint32_t*)(keyaddr));
 800361c:	460b      	mov	r3, r1
    hcryp->Instance->KEYR4 = __REV(*(uint32_t*)(keyaddr));
 800361e:	6310      	str	r0, [r2, #48]	@ 0x30
 8003620:	681b      	ldr	r3, [r3, #0]
  hcryp->Instance->KEYR1 = __REV(*(uint32_t*)(keyaddr));
  keyaddr+=4U;
  hcryp->Instance->KEYR0 = __REV(*(uint32_t*)(keyaddr));

  return HAL_OK;
}
 8003622:	f85d 4b04 	ldr.w	r4, [sp], #4
 8003626:	ba1b      	rev	r3, r3
  hcryp->Instance->KEYR3 = __REV(*(uint32_t*)(keyaddr));
 8003628:	61d3      	str	r3, [r2, #28]
 800362a:	684b      	ldr	r3, [r1, #4]
 800362c:	ba1b      	rev	r3, r3
  hcryp->Instance->KEYR2 = __REV(*(uint32_t*)(keyaddr));
 800362e:	6193      	str	r3, [r2, #24]
 8003630:	688b      	ldr	r3, [r1, #8]
 8003632:	ba1b      	rev	r3, r3
  hcryp->Instance->KEYR1 = __REV(*(uint32_t*)(keyaddr));
 8003634:	6153      	str	r3, [r2, #20]
 8003636:	68cb      	ldr	r3, [r1, #12]
 8003638:	ba1b      	rev	r3, r3
  return HAL_OK;
 800363a:	2000      	movs	r0, #0
  hcryp->Instance->KEYR0 = __REV(*(uint32_t*)(keyaddr));
 800363c:	6113      	str	r3, [r2, #16]
}
 800363e:	4770      	bx	lr
    return HAL_ERROR;
 8003640:	2001      	movs	r0, #1
}
 8003642:	4770      	bx	lr

08003644 <HAL_CRYP_Init>:
  if(hcryp == NULL)
 8003644:	2800      	cmp	r0, #0
 8003646:	f000 80a3 	beq.w	8003790 <HAL_CRYP_Init+0x14c>
  if (hcryp->Init.OperatingMode != CRYP_ALGOMODE_KEYDERIVATION)
 800364a:	6902      	ldr	r2, [r0, #16]
  if ((hcryp->Init.OperatingMode == CRYP_ALGOMODE_KEYDERIVATION_DECRYPT) &&\
 800364c:	2a18      	cmp	r2, #24
{
 800364e:	b570      	push	{r4, r5, r6, lr}
 8003650:	4604      	mov	r4, r0
  if ((hcryp->Init.OperatingMode == CRYP_ALGOMODE_KEYDERIVATION_DECRYPT) &&\
 8003652:	d04d      	beq.n	80036f0 <HAL_CRYP_Init+0xac>
  if ((hcryp->Init.OperatingMode == CRYP_ALGOMODE_KEYDERIVATION)
 8003654:	2a08      	cmp	r2, #8
 8003656:	d03e      	beq.n	80036d6 <HAL_CRYP_Init+0x92>
  if(hcryp->State == HAL_CRYP_STATE_RESET)
 8003658:	f894 3055 	ldrb.w	r3, [r4, #85]	@ 0x55
 800365c:	f003 01ff 	and.w	r1, r3, #255	@ 0xff
 8003660:	2b00      	cmp	r3, #0
 8003662:	d03e      	beq.n	80036e2 <HAL_CRYP_Init+0x9e>
  __HAL_CRYP_DISABLE(hcryp);
 8003664:	6825      	ldr	r5, [r4, #0]
  MODIFY_REG(hcryp->Instance->CR, AES_CR_KEYSIZE, hcryp->Init.KeySize);
 8003666:	68e1      	ldr	r1, [r4, #12]
  hcryp->State = HAL_CRYP_STATE_BUSY;
 8003668:	2302      	movs	r3, #2
 800366a:	f884 3055 	strb.w	r3, [r4, #85]	@ 0x55
  __HAL_CRYP_DISABLE(hcryp);
 800366e:	682b      	ldr	r3, [r5, #0]
 8003670:	f023 0301 	bic.w	r3, r3, #1
 8003674:	602b      	str	r3, [r5, #0]
  MODIFY_REG(hcryp->Instance->CR, AES_CR_KEYSIZE, hcryp->Init.KeySize);
 8003676:	682b      	ldr	r3, [r5, #0]
 8003678:	f423 2380 	bic.w	r3, r3, #262144	@ 0x40000
 800367c:	430b      	orrs	r3, r1
  if (hcryp->Init.OperatingMode == CRYP_ALGOMODE_KEYDERIVATION)
 800367e:	2a08      	cmp	r2, #8
  hcryp->Phase = HAL_CRYP_PHASE_NOT_USED;
 8003680:	f04f 010a 	mov.w	r1, #10
  MODIFY_REG(hcryp->Instance->CR, AES_CR_KEYSIZE, hcryp->Init.KeySize);
 8003684:	602b      	str	r3, [r5, #0]
  hcryp->Phase = HAL_CRYP_PHASE_NOT_USED;
 8003686:	f884 1048 	strb.w	r1, [r4, #72]	@ 0x48
  if (hcryp->Init.OperatingMode == CRYP_ALGOMODE_KEYDERIVATION)
 800368a:	d065      	beq.n	8003758 <HAL_CRYP_Init+0x114>
    if (hcryp->Init.KeyWriteFlag == CRYP_KEY_WRITE_ENABLE)
 800368c:	e9d4 6005 	ldrd	r6, r0, [r4, #20]
    if (hcryp->Init.ChainingMode == CRYP_CHAINMODE_AES_GCM_GMAC)
 8003690:	2e60      	cmp	r6, #96	@ 0x60
 8003692:	d033      	beq.n	80036fc <HAL_CRYP_Init+0xb8>
      MODIFY_REG(hcryp->Instance->CR, AES_CR_DATATYPE|AES_CR_MODE|AES_CR_CHMOD, hcryp->Init.DataType|hcryp->Init.OperatingMode|hcryp->Init.ChainingMode);
 8003694:	6829      	ldr	r1, [r5, #0]
 8003696:	68a3      	ldr	r3, [r4, #8]
 8003698:	f421 3180 	bic.w	r1, r1, #65536	@ 0x10000
 800369c:	f021 017e 	bic.w	r1, r1, #126	@ 0x7e
 80036a0:	4333      	orrs	r3, r6
 80036a2:	430b      	orrs	r3, r1
 80036a4:	4313      	orrs	r3, r2
    || (hcryp->Init.ChainingMode == CRYP_CHAINMODE_AES_CMAC))
 80036a6:	f5b6 3f80 	cmp.w	r6, #65536	@ 0x10000
      MODIFY_REG(hcryp->Instance->CR, AES_CR_DATATYPE|AES_CR_MODE|AES_CR_CHMOD, hcryp->Init.DataType|hcryp->Init.OperatingMode|hcryp->Init.ChainingMode);
 80036aa:	602b      	str	r3, [r5, #0]
    || (hcryp->Init.ChainingMode == CRYP_CHAINMODE_AES_CMAC))
 80036ac:	d060      	beq.n	8003770 <HAL_CRYP_Init+0x12c>
    if (hcryp->Init.KeyWriteFlag == CRYP_KEY_WRITE_ENABLE)
 80036ae:	2800      	cmp	r0, #0
 80036b0:	d04c      	beq.n	800374c <HAL_CRYP_Init+0x108>
    if (hcryp->Init.ChainingMode != CRYP_CHAINMODE_AES_ECB)
 80036b2:	2e00      	cmp	r6, #0
 80036b4:	d13a      	bne.n	800372c <HAL_CRYP_Init+0xe8>
  hcryp->CrypInCount = 0;
 80036b6:	2200      	movs	r2, #0
 80036b8:	2300      	movs	r3, #0
 80036ba:	e9c4 2310 	strd	r2, r3, [r4, #64]	@ 0x40
  hcryp->ErrorCode = HAL_CRYP_ERROR_NONE;
 80036be:	2000      	movs	r0, #0
  hcryp->State = HAL_CRYP_STATE_READY;
 80036c0:	2301      	movs	r3, #1
  hcryp->ErrorCode = HAL_CRYP_ERROR_NONE;
 80036c2:	65a0      	str	r0, [r4, #88]	@ 0x58
  hcryp->SuspendRequest = HAL_CRYP_SUSPEND_NONE;
 80036c4:	f884 005c 	strb.w	r0, [r4, #92]	@ 0x5c
  hcryp->State = HAL_CRYP_STATE_READY;
 80036c8:	f884 3055 	strb.w	r3, [r4, #85]	@ 0x55
  __HAL_CRYP_ENABLE(hcryp);
 80036cc:	682b      	ldr	r3, [r5, #0]
 80036ce:	f043 0301 	orr.w	r3, r3, #1
 80036d2:	602b      	str	r3, [r5, #0]
}
 80036d4:	bd70      	pop	{r4, r5, r6, pc}
   && (hcryp->Init.ChainingMode == CRYP_CHAINMODE_AES_CMAC))
 80036d6:	6943      	ldr	r3, [r0, #20]
 80036d8:	f5b3 3f80 	cmp.w	r3, #65536	@ 0x10000
 80036dc:	d1bc      	bne.n	8003658 <HAL_CRYP_Init+0x14>
    return HAL_ERROR;
 80036de:	2001      	movs	r0, #1
}
 80036e0:	bd70      	pop	{r4, r5, r6, pc}
    hcryp->Lock = HAL_UNLOCKED;
 80036e2:	f884 1054 	strb.w	r1, [r4, #84]	@ 0x54
    HAL_CRYP_MspInit(hcryp);
 80036e6:	4620      	mov	r0, r4
 80036e8:	f7fd f926 	bl	8000938 <HAL_CRYP_MspInit>
  if (hcryp->Init.OperatingMode == CRYP_ALGOMODE_KEYDERIVATION)
 80036ec:	6922      	ldr	r2, [r4, #16]
 80036ee:	e7b9      	b.n	8003664 <HAL_CRYP_Init+0x20>
         ((hcryp->Init.ChainingMode == CRYP_CHAINMODE_AES_CTR)           \
 80036f0:	6943      	ldr	r3, [r0, #20]
  if ((hcryp->Init.OperatingMode == CRYP_ALGOMODE_KEYDERIVATION_DECRYPT) &&\
 80036f2:	f023 0120 	bic.w	r1, r3, #32
 80036f6:	2940      	cmp	r1, #64	@ 0x40
 80036f8:	d1ee      	bne.n	80036d8 <HAL_CRYP_Init+0x94>
 80036fa:	e7f0      	b.n	80036de <HAL_CRYP_Init+0x9a>
      MODIFY_REG(hcryp->Instance->CR, AES_CR_DATATYPE|AES_CR_MODE|AES_CR_CHMOD, hcryp->Init.OperatingMode|hcryp->Init.ChainingMode);
 80036fc:	682b      	ldr	r3, [r5, #0]
 80036fe:	f423 3380 	bic.w	r3, r3, #65536	@ 0x10000
 8003702:	f023 037e 	bic.w	r3, r3, #126	@ 0x7e
 8003706:	4313      	orrs	r3, r2
 8003708:	f043 0360 	orr.w	r3, r3, #96	@ 0x60
 800370c:	602b      	str	r3, [r5, #0]
      MODIFY_REG(hcryp->Instance->CR, AES_CR_GCMPH, hcryp->Init.GCMCMACPhase);
 800370e:	682b      	ldr	r3, [r5, #0]
 8003710:	69e2      	ldr	r2, [r4, #28]
 8003712:	f423 43c0 	bic.w	r3, r3, #24576	@ 0x6000
 8003716:	4313      	orrs	r3, r2
      hcryp->Phase = HAL_CRYP_PHASE_START;
 8003718:	2203      	movs	r2, #3
      MODIFY_REG(hcryp->Instance->CR, AES_CR_GCMPH, hcryp->Init.GCMCMACPhase);
 800371a:	602b      	str	r3, [r5, #0]
      hcryp->Phase = HAL_CRYP_PHASE_START;
 800371c:	f884 2048 	strb.w	r2, [r4, #72]	@ 0x48
    if (hcryp->Init.KeyWriteFlag == CRYP_KEY_WRITE_ENABLE)
 8003720:	b920      	cbnz	r0, 800372c <HAL_CRYP_Init+0xe8>
      if (CRYP_SetKey(hcryp) != HAL_OK)
 8003722:	4620      	mov	r0, r4
 8003724:	f7ff ff64 	bl	80035f0 <CRYP_SetKey>
 8003728:	2800      	cmp	r0, #0
 800372a:	d1d8      	bne.n	80036de <HAL_CRYP_Init+0x9a>
    hcryp->Instance->IVR0 = 0;
  }
  else
#endif
  {
    if (hcryp->Init.pInitVect == NULL)
 800372c:	6a63      	ldr	r3, [r4, #36]	@ 0x24
 800372e:	2b00      	cmp	r3, #0
 8003730:	d0d5      	beq.n	80036de <HAL_CRYP_Init+0x9a>
 8003732:	681a      	ldr	r2, [r3, #0]
 8003734:	ba12      	rev	r2, r2
      return HAL_ERROR;
    }

    ivaddr = (uint32_t)(hcryp->Init.pInitVect);

    hcryp->Instance->IVR3 = __REV(*(uint32_t*)(ivaddr));
 8003736:	62ea      	str	r2, [r5, #44]	@ 0x2c
 8003738:	685a      	ldr	r2, [r3, #4]
 800373a:	ba12      	rev	r2, r2
    ivaddr+=4U;
    hcryp->Instance->IVR2 = __REV(*(uint32_t*)(ivaddr));
 800373c:	62aa      	str	r2, [r5, #40]	@ 0x28
 800373e:	689a      	ldr	r2, [r3, #8]
 8003740:	ba12      	rev	r2, r2
    ivaddr+=4U;
    hcryp->Instance->IVR1 = __REV(*(uint32_t*)(ivaddr));
 8003742:	626a      	str	r2, [r5, #36]	@ 0x24
 8003744:	68db      	ldr	r3, [r3, #12]
 8003746:	ba1b      	rev	r3, r3
    ivaddr+=4U;
    hcryp->Instance->IVR0 = __REV(*(uint32_t*)(ivaddr));
 8003748:	622b      	str	r3, [r5, #32]
 800374a:	e7b4      	b.n	80036b6 <HAL_CRYP_Init+0x72>
      if (CRYP_SetKey(hcryp) != HAL_OK)
 800374c:	4620      	mov	r0, r4
 800374e:	f7ff ff4f 	bl	80035f0 <CRYP_SetKey>
 8003752:	2800      	cmp	r0, #0
 8003754:	d0ad      	beq.n	80036b2 <HAL_CRYP_Init+0x6e>
 8003756:	e7c2      	b.n	80036de <HAL_CRYP_Init+0x9a>
    MODIFY_REG(hcryp->Instance->CR, AES_CR_MODE, CRYP_ALGOMODE_KEYDERIVATION);
 8003758:	682b      	ldr	r3, [r5, #0]
 800375a:	f023 0318 	bic.w	r3, r3, #24
 800375e:	f043 0308 	orr.w	r3, r3, #8
    if (CRYP_SetKey(hcryp) != HAL_OK)
 8003762:	4620      	mov	r0, r4
    MODIFY_REG(hcryp->Instance->CR, AES_CR_MODE, CRYP_ALGOMODE_KEYDERIVATION);
 8003764:	602b      	str	r3, [r5, #0]
    if (CRYP_SetKey(hcryp) != HAL_OK)
 8003766:	f7ff ff43 	bl	80035f0 <CRYP_SetKey>
 800376a:	2800      	cmp	r0, #0
 800376c:	d0a3      	beq.n	80036b6 <HAL_CRYP_Init+0x72>
 800376e:	e7b6      	b.n	80036de <HAL_CRYP_Init+0x9a>
      MODIFY_REG(hcryp->Instance->CR, AES_CR_GCMPH, hcryp->Init.GCMCMACPhase);
 8003770:	682b      	ldr	r3, [r5, #0]
 8003772:	69e2      	ldr	r2, [r4, #28]
 8003774:	f423 43c0 	bic.w	r3, r3, #24576	@ 0x6000
 8003778:	4313      	orrs	r3, r2
      hcryp->Phase = HAL_CRYP_PHASE_START;
 800377a:	2203      	movs	r2, #3
      MODIFY_REG(hcryp->Instance->CR, AES_CR_GCMPH, hcryp->Init.GCMCMACPhase);
 800377c:	602b      	str	r3, [r5, #0]
      hcryp->Phase = HAL_CRYP_PHASE_START;
 800377e:	f884 2048 	strb.w	r2, [r4, #72]	@ 0x48
    if (hcryp->Init.KeyWriteFlag == CRYP_KEY_WRITE_ENABLE)
 8003782:	b138      	cbz	r0, 8003794 <HAL_CRYP_Init+0x150>
    hcryp->Instance->IVR3 = 0;
 8003784:	2300      	movs	r3, #0
 8003786:	62eb      	str	r3, [r5, #44]	@ 0x2c
    hcryp->Instance->IVR2 = 0;
 8003788:	62ab      	str	r3, [r5, #40]	@ 0x28
    hcryp->Instance->IVR1 = 0;
 800378a:	626b      	str	r3, [r5, #36]	@ 0x24
    hcryp->Instance->IVR0 = 0;
 800378c:	622b      	str	r3, [r5, #32]
 800378e:	e792      	b.n	80036b6 <HAL_CRYP_Init+0x72>
    return HAL_ERROR;
 8003790:	2001      	movs	r0, #1
}
 8003792:	4770      	bx	lr
      if (CRYP_SetKey(hcryp) != HAL_OK)
 8003794:	4620      	mov	r0, r4
 8003796:	f7ff ff2b 	bl	80035f0 <CRYP_SetKey>
 800379a:	2800      	cmp	r0, #0
 800379c:	d19f      	bne.n	80036de <HAL_CRYP_Init+0x9a>
 800379e:	e7f1      	b.n	8003784 <HAL_CRYP_Init+0x140>

080037a0 <HAL_CRYP_ErrorCallback>:
__weak void HAL_CRYP_ErrorCallback(CRYP_HandleTypeDef *hcryp)
 80037a0:	4770      	bx	lr
 80037a2:	bf00      	nop
 80037a4:	0000      	movs	r0, r0
	...

080037a8 <CRYP_Padding>:
  * @param  polling specifies whether or not polling on CCF must be done after having
  *                  entered a complete block.
  * @retval None
  */
static void CRYP_Padding(CRYP_HandleTypeDef *hcryp, uint32_t difflength, uint32_t polling)
{
 80037a8:	e92d 4ff0 	stmdb	sp!, {r4, r5, r6, r7, r8, r9, sl, fp, lr}
  uint32_t mask[4][3];
  uint32_t mask_index = hcryp->Init.DataType >> AES_CR_DATATYPE_Pos;

  uint32_t intermediate_data[4] = {0};

  mask[0][0] = 0xFF000000U;  mask[0][1] = 0xFFFF0000U;  mask[0][2] = 0xFFFFFF00U;  /* 32-bit data */
 80037ac:	ed9f 7b90 	vldr	d7, [pc, #576]	@ 80039f0 <CRYP_Padding+0x248>
{
 80037b0:	b093      	sub	sp, #76	@ 0x4c
  mask[0][0] = 0xFF000000U;  mask[0][1] = 0xFFFF0000U;  mask[0][2] = 0xFFFFFF00U;  /* 32-bit data */
 80037b2:	ed8d 7b06 	vstr	d7, [sp, #24]
 80037b6:	ed9f 7b90 	vldr	d7, [pc, #576]	@ 80039f8 <CRYP_Padding+0x250>
 80037ba:	ed8d 7b08 	vstr	d7, [sp, #32]
 80037be:	ed9f 7b90 	vldr	d7, [pc, #576]	@ 8003a00 <CRYP_Padding+0x258>
 80037c2:	ed8d 7b0a 	vstr	d7, [sp, #40]	@ 0x28
 80037c6:	ed9f 7b90 	vldr	d7, [pc, #576]	@ 8003a08 <CRYP_Padding+0x260>
  uint32_t outputaddr     = (uint32_t)hcryp->pCrypOutBuffPtr;
 80037ca:	e9d0 930e 	ldrd	r9, r3, [r0, #56]	@ 0x38
  mask[0][0] = 0xFF000000U;  mask[0][1] = 0xFFFF0000U;  mask[0][2] = 0xFFFFFF00U;  /* 32-bit data */
 80037ce:	ed8d 7b0c 	vstr	d7, [sp, #48]	@ 0x30
  uint32_t mask_index = hcryp->Init.DataType >> AES_CR_DATATYPE_Pos;
 80037d2:	6886      	ldr	r6, [r0, #8]
  uint32_t outputaddr     = (uint32_t)hcryp->pCrypOutBuffPtr;
 80037d4:	9301      	str	r3, [sp, #4]
  mask[0][0] = 0xFF000000U;  mask[0][1] = 0xFFFF0000U;  mask[0][2] = 0xFFFFFF00U;  /* 32-bit data */
 80037d6:	ed9f 7b8e 	vldr	d7, [pc, #568]	@ 8003a10 <CRYP_Padding+0x268>
  uint32_t mask_index = hcryp->Init.DataType >> AES_CR_DATATYPE_Pos;
 80037da:	0873      	lsrs	r3, r6, #1
  mask[0][0] = 0xFF000000U;  mask[0][1] = 0xFFFF0000U;  mask[0][2] = 0xFFFFFF00U;  /* 32-bit data */
 80037dc:	ed8d 7b0e 	vstr	d7, [sp, #56]	@ 0x38
  uint32_t mask_index = hcryp->Init.DataType >> AES_CR_DATATYPE_Pos;
 80037e0:	9300      	str	r3, [sp, #0]
  mask[0][0] = 0xFF000000U;  mask[0][1] = 0xFFFF0000U;  mask[0][2] = 0xFFFFFF00U;  /* 32-bit data */
 80037e2:	ed9f 7b8d 	vldr	d7, [pc, #564]	@ 8003a18 <CRYP_Padding+0x270>
         MODIFY_REG(hcryp->Instance->CR, AES_CR_NPBLB, (16U - difflength) << AES_POSITION_CR_NPBLB);
       }
     }
#else
  /* Software workaround applied to GCM encryption only */
  if ((hcryp->Init.GCMCMACPhase == CRYP_PAYLOAD_PHASE) &&
 80037e6:	69c3      	ldr	r3, [r0, #28]
      (hcryp->Init.OperatingMode == CRYP_ALGOMODE_ENCRYPT))
  {
    /* Change the mode configured in CHMOD bits of CR register to select CTR mode */
    __HAL_CRYP_SET_CHAININGMODE(hcryp, CRYP_CHAINMODE_AES_CTR);
 80037e8:	6805      	ldr	r5, [r0, #0]
{
 80037ea:	4694      	mov	ip, r2
  if ((hcryp->Init.GCMCMACPhase == CRYP_PAYLOAD_PHASE) &&
 80037ec:	f5b3 4f80 	cmp.w	r3, #16384	@ 0x4000
  uint32_t intermediate_data[4] = {0};
 80037f0:	f04f 0200 	mov.w	r2, #0
 80037f4:	e9cd 2202 	strd	r2, r2, [sp, #8]
 80037f8:	e9cd 2204 	strd	r2, r2, [sp, #16]
  mask[0][0] = 0xFF000000U;  mask[0][1] = 0xFFFF0000U;  mask[0][2] = 0xFFFFFF00U;  /* 32-bit data */
 80037fc:	ed8d 7b10 	vstr	d7, [sp, #64]	@ 0x40
{
 8003800:	4682      	mov	sl, r0
  uint32_t difflengthmod4 = difflength%4U;
 8003802:	f001 0803 	and.w	r8, r1, #3
  if ((hcryp->Init.GCMCMACPhase == CRYP_PAYLOAD_PHASE) &&
 8003806:	f000 80c9 	beq.w	800399c <CRYP_Padding+0x1f4>
  if (difflengthmod4 != 0U)
  {
    hcryp->Instance->DINR = ((*(uint32_t*)(inputaddr)) & mask[mask_index][difflengthmod4-1U]);
  }
  /* Pad with zero-words to reach 128-bit long block and wrap-up header feeding to the IP */
  for(index=0U ; index < (4U - ((difflength+3U)/4U)); index ++)
 800380a:	1ccf      	adds	r7, r1, #3
 800380c:	08bf      	lsrs	r7, r7, #2
  for(index=0U ; index < (difflength/4U); index ++)
 800380e:	088c      	lsrs	r4, r1, #2
  for(index=0U ; index < (4U - ((difflength+3U)/4U)); index ++)
 8003810:	f1c7 0604 	rsb	r6, r7, #4
  for(index=0U ; index < (difflength/4U); index ++)
 8003814:	f000 80cf 	beq.w	80039b6 <CRYP_Padding+0x20e>
 8003818:	eb09 0b84 	add.w	fp, r9, r4, lsl #2
 800381c:	4649      	mov	r1, r9
    hcryp->Instance->DINR = *(uint32_t*)(inputaddr);
 800381e:	f851 0b04 	ldr.w	r0, [r1], #4
 8003822:	60a8      	str	r0, [r5, #8]
  for(index=0U ; index < (difflength/4U); index ++)
 8003824:	458b      	cmp	fp, r1
 8003826:	d1fa      	bne.n	800381e <CRYP_Padding+0x76>
  if (difflengthmod4 != 0U)
 8003828:	f1b8 0f00 	cmp.w	r8, #0
 800382c:	d110      	bne.n	8003850 <CRYP_Padding+0xa8>
  for(index=0U ; index < (4U - ((difflength+3U)/4U)); index ++)
 800382e:	2f04      	cmp	r7, #4
 8003830:	d022      	beq.n	8003878 <CRYP_Padding+0xd0>
  for(index=0U ; index < (difflength/4U); index ++)
 8003832:	2100      	movs	r1, #0
  {
    hcryp->Instance->DINR = 0;
 8003834:	4608      	mov	r0, r1
  for(index=0U ; index < (4U - ((difflength+3U)/4U)); index ++)
 8003836:	3101      	adds	r1, #1
 8003838:	42b1      	cmp	r1, r6
    hcryp->Instance->DINR = 0;
 800383a:	60a8      	str	r0, [r5, #8]
  for(index=0U ; index < (4U - ((difflength+3U)/4U)); index ++)
 800383c:	d3fb      	bcc.n	8003836 <CRYP_Padding+0x8e>
  }

  if (polling == (uint32_t)CRYP_POLLING_ON)
 800383e:	f1bc 0f01 	cmp.w	ip, #1
 8003842:	d01e      	beq.n	8003882 <CRYP_Padding+0xda>
    /* Clear CCF Flag */
    __HAL_CRYP_CLEAR_FLAG(hcryp, CRYP_CCF_CLEAR);
  }

  /* if payload */
  if (hcryp->Init.GCMCMACPhase == CRYP_PAYLOAD_PHASE)
 8003844:	f5b3 4f80 	cmp.w	r3, #16384	@ 0x4000
 8003848:	d038      	beq.n	80038bc <CRYP_Padding+0x114>

    } /* if (hcryp->Init.OperatingMode == CRYP_ALGOMODE_ENCRYPT) */
#endif  /* !defined(AES_CR_NPBLB) */
  }   /* if (hcryp->Init.GCMCMACPhase == CRYP_PAYLOAD_PHASE) */

}
 800384a:	b013      	add	sp, #76	@ 0x4c
 800384c:	e8bd 8ff0 	ldmia.w	sp!, {r4, r5, r6, r7, r8, r9, sl, fp, pc}
    inputaddr+=4U;
 8003850:	eb09 0984 	add.w	r9, r9, r4, lsl #2
    hcryp->Instance->DINR = ((*(uint32_t*)(inputaddr)) & mask[mask_index][difflengthmod4-1U]);
 8003854:	9a00      	ldr	r2, [sp, #0]
 8003856:	f8d9 0000 	ldr.w	r0, [r9]
 800385a:	eb02 0142 	add.w	r1, r2, r2, lsl #1
 800385e:	f108 39ff 	add.w	r9, r8, #4294967295
 8003862:	4449      	add	r1, r9
 8003864:	aa12      	add	r2, sp, #72	@ 0x48
 8003866:	eb02 0181 	add.w	r1, r2, r1, lsl #2
  for(index=0U ; index < (4U - ((difflength+3U)/4U)); index ++)
 800386a:	2f04      	cmp	r7, #4
    hcryp->Instance->DINR = ((*(uint32_t*)(inputaddr)) & mask[mask_index][difflengthmod4-1U]);
 800386c:	f851 1c30 	ldr.w	r1, [r1, #-48]
 8003870:	ea01 0100 	and.w	r1, r1, r0
 8003874:	60a9      	str	r1, [r5, #8]
  for(index=0U ; index < (4U - ((difflength+3U)/4U)); index ++)
 8003876:	d1dc      	bne.n	8003832 <CRYP_Padding+0x8a>
  if (polling == (uint32_t)CRYP_POLLING_ON)
 8003878:	f1bc 0f01 	cmp.w	ip, #1
  for(index=0U ; index < (4U - ((difflength+3U)/4U)); index ++)
 800387c:	f04f 0600 	mov.w	r6, #0
  if (polling == (uint32_t)CRYP_POLLING_ON)
 8003880:	d1e0      	bne.n	8003844 <CRYP_Padding+0x9c>
  tickstart = HAL_GetTick();
 8003882:	f7ff f807 	bl	8002894 <HAL_GetTick>
      if((HAL_GetTick() - tickstart ) > Timeout)
 8003886:	f245 5bf0 	movw	fp, #22000	@ 0x55f0
  tickstart = HAL_GetTick();
 800388a:	4681      	mov	r9, r0
  while(HAL_IS_BIT_CLR(hcryp->Instance->SR, AES_SR_CCF))
 800388c:	e006      	b.n	800389c <CRYP_Padding+0xf4>
      if((HAL_GetTick() - tickstart ) > Timeout)
 800388e:	f7ff f801 	bl	8002894 <HAL_GetTick>
 8003892:	eba0 0009 	sub.w	r0, r0, r9
 8003896:	4558      	cmp	r0, fp
 8003898:	f200 8092 	bhi.w	80039c0 <CRYP_Padding+0x218>
  while(HAL_IS_BIT_CLR(hcryp->Instance->SR, AES_SR_CCF))
 800389c:	f8da 1000 	ldr.w	r1, [sl]
 80038a0:	684d      	ldr	r5, [r1, #4]
 80038a2:	f015 0501 	ands.w	r5, r5, #1
 80038a6:	d0f2      	beq.n	800388e <CRYP_Padding+0xe6>
  if (hcryp->Init.GCMCMACPhase == CRYP_PAYLOAD_PHASE)
 80038a8:	f8da 301c 	ldr.w	r3, [sl, #28]
    __HAL_CRYP_CLEAR_FLAG(hcryp, CRYP_CCF_CLEAR);
 80038ac:	460d      	mov	r5, r1
 80038ae:	6809      	ldr	r1, [r1, #0]
  if (hcryp->Init.GCMCMACPhase == CRYP_PAYLOAD_PHASE)
 80038b0:	f5b3 4f80 	cmp.w	r3, #16384	@ 0x4000
    __HAL_CRYP_CLEAR_FLAG(hcryp, CRYP_CCF_CLEAR);
 80038b4:	f041 0180 	orr.w	r1, r1, #128	@ 0x80
 80038b8:	6029      	str	r1, [r5, #0]
  if (hcryp->Init.GCMCMACPhase == CRYP_PAYLOAD_PHASE)
 80038ba:	d1c6      	bne.n	800384a <CRYP_Padding+0xa2>
  uint32_t outputaddr     = (uint32_t)hcryp->pCrypOutBuffPtr;
 80038bc:	f8dd e004 	ldr.w	lr, [sp, #4]
      intermediate_data[index] = hcryp->Instance->DOUTR;
 80038c0:	68e8      	ldr	r0, [r5, #12]
 80038c2:	f8d5 c00c 	ldr.w	ip, [r5, #12]
 80038c6:	68ea      	ldr	r2, [r5, #12]
 80038c8:	68eb      	ldr	r3, [r5, #12]
 80038ca:	9002      	str	r0, [sp, #8]
 80038cc:	f8cd c00c 	str.w	ip, [sp, #12]
 80038d0:	9204      	str	r2, [sp, #16]
 80038d2:	9305      	str	r3, [sp, #20]
  uint32_t outputaddr     = (uint32_t)hcryp->pCrypOutBuffPtr;
 80038d4:	4671      	mov	r1, lr
    for(index=0U ; index < (difflength/4U); index ++)
 80038d6:	b184      	cbz	r4, 80038fa <CRYP_Padding+0x152>
 80038d8:	2c01      	cmp	r4, #1
      *(uint32_t*)(outputaddr) = intermediate_data[index];
 80038da:	f841 0b04 	str.w	r0, [r1], #4
    for(index=0U ; index < (difflength/4U); index ++)
 80038de:	d009      	beq.n	80038f4 <CRYP_Padding+0x14c>
 80038e0:	2c02      	cmp	r4, #2
      *(uint32_t*)(outputaddr) = intermediate_data[index];
 80038e2:	f8ce c004 	str.w	ip, [lr, #4]
    for(index=0U ; index < (difflength/4U); index ++)
 80038e6:	d005      	beq.n	80038f4 <CRYP_Padding+0x14c>
 80038e8:	2c03      	cmp	r4, #3
      *(uint32_t*)(outputaddr) = intermediate_data[index];
 80038ea:	f8ce 2008 	str.w	r2, [lr, #8]
 80038ee:	bf18      	it	ne
 80038f0:	f8ce 300c 	strne.w	r3, [lr, #12]
      outputaddr+=4U;
 80038f4:	1e60      	subs	r0, r4, #1
 80038f6:	eb01 0180 	add.w	r1, r1, r0, lsl #2
    if (difflengthmod4 != 0U)
 80038fa:	f1b8 0f00 	cmp.w	r8, #0
 80038fe:	d012      	beq.n	8003926 <CRYP_Padding+0x17e>
      intermediate_data[difflength/4U] &= mask[mask_index][difflengthmod4-1U];
 8003900:	9b00      	ldr	r3, [sp, #0]
 8003902:	f108 38ff 	add.w	r8, r8, #4294967295
 8003906:	eb03 0043 	add.w	r0, r3, r3, lsl #1
 800390a:	4440      	add	r0, r8
 800390c:	ab12      	add	r3, sp, #72	@ 0x48
 800390e:	eb03 0484 	add.w	r4, r3, r4, lsl #2
 8003912:	eb03 0080 	add.w	r0, r3, r0, lsl #2
 8003916:	f854 3c40 	ldr.w	r3, [r4, #-64]
 800391a:	f850 0c30 	ldr.w	r0, [r0, #-48]
 800391e:	4018      	ands	r0, r3
 8003920:	f844 0c40 	str.w	r0, [r4, #-64]
      *(uint32_t*)(outputaddr) = intermediate_data[difflength/4U];
 8003924:	6008      	str	r0, [r1, #0]
    if (hcryp->Init.OperatingMode == CRYP_ALGOMODE_ENCRYPT)
 8003926:	f8da 1010 	ldr.w	r1, [sl, #16]
 800392a:	2900      	cmp	r1, #0
 800392c:	d18d      	bne.n	800384a <CRYP_Padding+0xa2>
      __HAL_CRYP_SET_CHAININGMODE(hcryp, CRYP_CHAINMODE_AES_GCM_GMAC);
 800392e:	6828      	ldr	r0, [r5, #0]
 8003930:	f420 3080 	bic.w	r0, r0, #65536	@ 0x10000
 8003934:	f020 0060 	bic.w	r0, r0, #96	@ 0x60
 8003938:	f040 0060 	orr.w	r0, r0, #96	@ 0x60
 800393c:	6028      	str	r0, [r5, #0]
      MODIFY_REG(hcryp->Instance->CR, AES_CR_GCMPH, CRYP_FINAL_PHASE);
 800393e:	6828      	ldr	r0, [r5, #0]
 8003940:	f440 40c0 	orr.w	r0, r0, #24576	@ 0x6000
 8003944:	6028      	str	r0, [r5, #0]
      for(index=0U ; index < (4U - ((difflength+3U)/4U)); index ++)
 8003946:	b12e      	cbz	r6, 8003954 <CRYP_Padding+0x1ac>
        intermediate_data[((difflength+3U)/4U)+index] = 0;
 8003948:	ab02      	add	r3, sp, #8
 800394a:	eb03 0087 	add.w	r0, r3, r7, lsl #2
 800394e:	00b2      	lsls	r2, r6, #2
 8003950:	f004 fa7c 	bl	8007e4c <memset>
        hcryp->Instance->DINR = intermediate_data[index];
 8003954:	e9dd 0202 	ldrd	r0, r2, [sp, #8]
 8003958:	9904      	ldr	r1, [sp, #16]
 800395a:	60a8      	str	r0, [r5, #8]
 800395c:	60aa      	str	r2, [r5, #8]
 800395e:	9a05      	ldr	r2, [sp, #20]
 8003960:	60a9      	str	r1, [r5, #8]
 8003962:	60aa      	str	r2, [r5, #8]
  tickstart = HAL_GetTick();
 8003964:	f7fe ff96 	bl	8002894 <HAL_GetTick>
      if((HAL_GetTick() - tickstart ) > Timeout)
 8003968:	f245 56f0 	movw	r6, #22000	@ 0x55f0
  tickstart = HAL_GetTick();
 800396c:	4605      	mov	r5, r0
  while(HAL_IS_BIT_CLR(hcryp->Instance->SR, AES_SR_CCF))
 800396e:	e004      	b.n	800397a <CRYP_Padding+0x1d2>
      if((HAL_GetTick() - tickstart ) > Timeout)
 8003970:	f7fe ff90 	bl	8002894 <HAL_GetTick>
 8003974:	1b40      	subs	r0, r0, r5
 8003976:	42b0      	cmp	r0, r6
 8003978:	d82d      	bhi.n	80039d6 <CRYP_Padding+0x22e>
  while(HAL_IS_BIT_CLR(hcryp->Instance->SR, AES_SR_CCF))
 800397a:	f8da 1000 	ldr.w	r1, [sl]
 800397e:	684c      	ldr	r4, [r1, #4]
 8003980:	f014 0401 	ands.w	r4, r4, #1
 8003984:	d0f4      	beq.n	8003970 <CRYP_Padding+0x1c8>
      __HAL_CRYP_CLEAR_FLAG(hcryp, CRYP_CCF_CLEAR);
 8003986:	680b      	ldr	r3, [r1, #0]
 8003988:	f043 0380 	orr.w	r3, r3, #128	@ 0x80
 800398c:	600b      	str	r3, [r1, #0]
        intermediate_data[index] = hcryp->Instance->DOUTR;
 800398e:	68cb      	ldr	r3, [r1, #12]
 8003990:	68cb      	ldr	r3, [r1, #12]
 8003992:	68cb      	ldr	r3, [r1, #12]
 8003994:	68cb      	ldr	r3, [r1, #12]
}
 8003996:	b013      	add	sp, #76	@ 0x4c
 8003998:	e8bd 8ff0 	ldmia.w	sp!, {r4, r5, r6, r7, r8, r9, sl, fp, pc}
  if ((hcryp->Init.GCMCMACPhase == CRYP_PAYLOAD_PHASE) &&
 800399c:	6902      	ldr	r2, [r0, #16]
 800399e:	2a00      	cmp	r2, #0
 80039a0:	f47f af33 	bne.w	800380a <CRYP_Padding+0x62>
    __HAL_CRYP_SET_CHAININGMODE(hcryp, CRYP_CHAINMODE_AES_CTR);
 80039a4:	682a      	ldr	r2, [r5, #0]
 80039a6:	f422 3280 	bic.w	r2, r2, #65536	@ 0x10000
 80039aa:	f022 0260 	bic.w	r2, r2, #96	@ 0x60
 80039ae:	f042 0240 	orr.w	r2, r2, #64	@ 0x40
 80039b2:	602a      	str	r2, [r5, #0]
 80039b4:	e729      	b.n	800380a <CRYP_Padding+0x62>
  if (difflengthmod4 != 0U)
 80039b6:	f1b8 0f00 	cmp.w	r8, #0
 80039ba:	f47f af4b 	bne.w	8003854 <CRYP_Padding+0xac>
 80039be:	e738      	b.n	8003832 <CRYP_Padding+0x8a>
        hcryp->State = HAL_CRYP_STATE_READY;
 80039c0:	2101      	movs	r1, #1
 80039c2:	f88a 1055 	strb.w	r1, [sl, #85]	@ 0x55
        __HAL_UNLOCK(hcryp);
 80039c6:	f88a 5054 	strb.w	r5, [sl, #84]	@ 0x54
       HAL_CRYP_ErrorCallback(hcryp);
 80039ca:	4650      	mov	r0, sl
 80039cc:	f7ff fee8 	bl	80037a0 <HAL_CRYP_ErrorCallback>
 80039d0:	f8da 1000 	ldr.w	r1, [sl]
 80039d4:	e768      	b.n	80038a8 <CRYP_Padding+0x100>
        hcryp->State = HAL_CRYP_STATE_READY;
 80039d6:	2201      	movs	r2, #1
 80039d8:	f88a 2055 	strb.w	r2, [sl, #85]	@ 0x55
        __HAL_UNLOCK(hcryp);
 80039dc:	f88a 4054 	strb.w	r4, [sl, #84]	@ 0x54
        HAL_CRYP_ErrorCallback(hcryp);
 80039e0:	4650      	mov	r0, sl
 80039e2:	f7ff fedd 	bl	80037a0 <HAL_CRYP_ErrorCallback>
 80039e6:	f8da 1000 	ldr.w	r1, [sl]
 80039ea:	e7cc      	b.n	8003986 <CRYP_Padding+0x1de>
 80039ec:	f3af 8000 	nop.w
 80039f0:	ff000000 	.word	0xff000000
 80039f4:	ffff0000 	.word	0xffff0000
 80039f8:	ffffff00 	.word	0xffffff00
 80039fc:	0000ff00 	.word	0x0000ff00
 8003a00:	0000ffff 	.word	0x0000ffff
 8003a04:	ff00ffff 	.word	0xff00ffff
 8003a08:	000000ff 	.word	0x000000ff
 8003a0c:	0000ffff 	.word	0x0000ffff
 8003a10:	00ffffff 	.word	0x00ffffff
 8003a14:	000000ff 	.word	0x000000ff
 8003a18:	0000ffff 	.word	0x0000ffff
 8003a1c:	00ffffff 	.word	0x00ffffff

08003a20 <HAL_CRYPEx_AES_Auth>:
{
 8003a20:	e92d 4ff0 	stmdb	sp!, {r4, r5, r6, r7, r8, r9, sl, fp, lr}
 8003a24:	469c      	mov	ip, r3
  if (hcryp->State == HAL_CRYP_STATE_READY)
 8003a26:	f890 3055 	ldrb.w	r3, [r0, #85]	@ 0x55
{
 8003a2a:	b087      	sub	sp, #28
  if (hcryp->State == HAL_CRYP_STATE_READY)
 8003a2c:	2b01      	cmp	r3, #1
{
 8003a2e:	9f11      	ldr	r7, [sp, #68]	@ 0x44
  if (hcryp->State == HAL_CRYP_STATE_READY)
 8003a30:	d178      	bne.n	8003b24 <HAL_CRYPEx_AES_Auth+0x104>
    if (hcryp->Init.GCMCMACPhase == CRYP_INIT_PHASE)
 8003a32:	4605      	mov	r5, r0
 8003a34:	b2d8      	uxtb	r0, r3
 8003a36:	69eb      	ldr	r3, [r5, #28]
 8003a38:	b9fb      	cbnz	r3, 8003a7a <HAL_CRYPEx_AES_Auth+0x5a>
    __HAL_LOCK(hcryp);
 8003a3a:	f895 3054 	ldrb.w	r3, [r5, #84]	@ 0x54
 8003a3e:	2b01      	cmp	r3, #1
 8003a40:	d070      	beq.n	8003b24 <HAL_CRYPEx_AES_Auth+0x104>
    hcryp->State = HAL_CRYP_STATE_BUSY;
 8003a42:	2302      	movs	r3, #2
 8003a44:	f885 3055 	strb.w	r3, [r5, #85]	@ 0x55
    __HAL_LOCK(hcryp);
 8003a48:	f885 0054 	strb.w	r0, [r5, #84]	@ 0x54
  tickstart = HAL_GetTick();
 8003a4c:	f7fe ff22 	bl	8002894 <HAL_GetTick>
 8003a50:	4604      	mov	r4, r0
  while(HAL_IS_BIT_CLR(hcryp->Instance->SR, AES_SR_CCF))
 8003a52:	1c78      	adds	r0, r7, #1
 8003a54:	682b      	ldr	r3, [r5, #0]
 8003a56:	d170      	bne.n	8003b3a <HAL_CRYPEx_AES_Auth+0x11a>
 8003a58:	685a      	ldr	r2, [r3, #4]
 8003a5a:	07d1      	lsls	r1, r2, #31
 8003a5c:	d5fc      	bpl.n	8003a58 <HAL_CRYPEx_AES_Auth+0x38>
      __HAL_CRYP_CLEAR_FLAG(hcryp, CRYP_CCF_CLEAR);
 8003a5e:	681a      	ldr	r2, [r3, #0]
      hcryp->Phase = HAL_CRYP_PHASE_INIT_OVER;
 8003a60:	2104      	movs	r1, #4
      __HAL_CRYP_CLEAR_FLAG(hcryp, CRYP_CCF_CLEAR);
 8003a62:	f042 0280 	orr.w	r2, r2, #128	@ 0x80
 8003a66:	601a      	str	r2, [r3, #0]
      hcryp->Phase = HAL_CRYP_PHASE_INIT_OVER;
 8003a68:	f885 1048 	strb.w	r1, [r5, #72]	@ 0x48
    hcryp->State = HAL_CRYP_STATE_READY;
 8003a6c:	2301      	movs	r3, #1
 8003a6e:	f885 3055 	strb.w	r3, [r5, #85]	@ 0x55
          __HAL_UNLOCK(hcryp);
 8003a72:	2000      	movs	r0, #0
 8003a74:	f885 0054 	strb.w	r0, [r5, #84]	@ 0x54
 8003a78:	e055      	b.n	8003b26 <HAL_CRYPEx_AES_Auth+0x106>
    else if (hcryp->Init.GCMCMACPhase == CRYP_HEADER_PHASE)
 8003a7a:	f5b3 5f00 	cmp.w	r3, #8192	@ 0x2000
 8003a7e:	f000 80e5 	beq.w	8003c4c <HAL_CRYPEx_AES_Auth+0x22c>
    else if (hcryp->Init.GCMCMACPhase == CRYP_PAYLOAD_PHASE)
 8003a82:	f5b3 4f80 	cmp.w	r3, #16384	@ 0x4000
 8003a86:	d05c      	beq.n	8003b42 <HAL_CRYPEx_AES_Auth+0x122>
    else if (hcryp->Init.GCMCMACPhase == CRYP_FINAL_PHASE)
 8003a88:	f5b3 4fc0 	cmp.w	r3, #24576	@ 0x6000
 8003a8c:	d14b      	bne.n	8003b26 <HAL_CRYPEx_AES_Auth+0x106>
      if (pOutputData == NULL)
 8003a8e:	9b10      	ldr	r3, [sp, #64]	@ 0x40
 8003a90:	2b00      	cmp	r3, #0
 8003a92:	d048      	beq.n	8003b26 <HAL_CRYPEx_AES_Auth+0x106>
      if ((hcryp->Init.ChainingMode == CRYP_CHAINMODE_AES_CMAC) && (pInputData == NULL))
 8003a94:	696e      	ldr	r6, [r5, #20]
 8003a96:	f5b6 3f80 	cmp.w	r6, #65536	@ 0x10000
 8003a9a:	f000 81b3 	beq.w	8003e04 <HAL_CRYPEx_AES_Auth+0x3e4>
    __HAL_LOCK(hcryp);
 8003a9e:	f895 3054 	ldrb.w	r3, [r5, #84]	@ 0x54
 8003aa2:	2b01      	cmp	r3, #1
 8003aa4:	d03e      	beq.n	8003b24 <HAL_CRYPEx_AES_Auth+0x104>
      MODIFY_REG(hcryp->Instance->CR, AES_CR_GCMPH, CRYP_FINAL_PHASE);
 8003aa6:	682b      	ldr	r3, [r5, #0]
    __HAL_LOCK(hcryp);
 8003aa8:	f885 0054 	strb.w	r0, [r5, #84]	@ 0x54
    hcryp->State = HAL_CRYP_STATE_BUSY;
 8003aac:	2402      	movs	r4, #2
 8003aae:	f885 4055 	strb.w	r4, [r5, #85]	@ 0x55
      MODIFY_REG(hcryp->Instance->CR, AES_CR_GCMPH, CRYP_FINAL_PHASE);
 8003ab2:	681c      	ldr	r4, [r3, #0]
 8003ab4:	f444 44c0 	orr.w	r4, r4, #24576	@ 0x6000
 8003ab8:	601c      	str	r4, [r3, #0]
      if (hcryp->Phase == HAL_CRYP_PHASE_INIT_OVER)
 8003aba:	f895 4048 	ldrb.w	r4, [r5, #72]	@ 0x48
 8003abe:	2c04      	cmp	r4, #4
 8003ac0:	d103      	bne.n	8003aca <HAL_CRYPEx_AES_Auth+0xaa>
        __HAL_CRYP_ENABLE(hcryp);
 8003ac2:	681c      	ldr	r4, [r3, #0]
 8003ac4:	f044 0401 	orr.w	r4, r4, #1
 8003ac8:	601c      	str	r4, [r3, #0]
      if (hcryp->Init.ChainingMode == CRYP_CHAINMODE_AES_GCM_GMAC)
 8003aca:	2e60      	cmp	r6, #96	@ 0x60
 8003acc:	f000 8236 	beq.w	8003f3c <HAL_CRYPEx_AES_Auth+0x51c>
      else if (hcryp->Init.ChainingMode == CRYP_CHAINMODE_AES_CMAC)
 8003ad0:	f5b6 3f80 	cmp.w	r6, #65536	@ 0x10000
 8003ad4:	d127      	bne.n	8003b26 <HAL_CRYPEx_AES_Auth+0x106>
        hcryp->Instance->DINR = *(uint32_t*)(inputaddr);
 8003ad6:	680a      	ldr	r2, [r1, #0]
 8003ad8:	609a      	str	r2, [r3, #8]
        hcryp->Instance->DINR = *(uint32_t*)(inputaddr);
 8003ada:	684a      	ldr	r2, [r1, #4]
 8003adc:	609a      	str	r2, [r3, #8]
        hcryp->Instance->DINR  = *(uint32_t*)(inputaddr);
 8003ade:	688a      	ldr	r2, [r1, #8]
 8003ae0:	609a      	str	r2, [r3, #8]
        hcryp->Instance->DINR = *(uint32_t*)(inputaddr);
 8003ae2:	68ca      	ldr	r2, [r1, #12]
 8003ae4:	609a      	str	r2, [r3, #8]
  tickstart = HAL_GetTick();
 8003ae6:	f7fe fed5 	bl	8002894 <HAL_GetTick>
 8003aea:	4604      	mov	r4, r0
  while(HAL_IS_BIT_CLR(hcryp->Instance->SR, AES_SR_CCF))
 8003aec:	1c78      	adds	r0, r7, #1
 8003aee:	682b      	ldr	r3, [r5, #0]
 8003af0:	f040 8122 	bne.w	8003d38 <HAL_CRYPEx_AES_Auth+0x318>
 8003af4:	685a      	ldr	r2, [r3, #4]
 8003af6:	07d1      	lsls	r1, r2, #31
 8003af8:	d5fc      	bpl.n	8003af4 <HAL_CRYPEx_AES_Auth+0xd4>
      *(uint32_t*)(tagaddr) = hcryp->Instance->DOUTR;
 8003afa:	9910      	ldr	r1, [sp, #64]	@ 0x40
 8003afc:	68da      	ldr	r2, [r3, #12]
 8003afe:	600a      	str	r2, [r1, #0]
      *(uint32_t*)(tagaddr) = hcryp->Instance->DOUTR;
 8003b00:	68da      	ldr	r2, [r3, #12]
 8003b02:	604a      	str	r2, [r1, #4]
      *(uint32_t*)(tagaddr) = hcryp->Instance->DOUTR;
 8003b04:	68da      	ldr	r2, [r3, #12]
 8003b06:	608a      	str	r2, [r1, #8]
      *(uint32_t*)(tagaddr) = hcryp->Instance->DOUTR;
 8003b08:	68da      	ldr	r2, [r3, #12]
 8003b0a:	60ca      	str	r2, [r1, #12]
      __HAL_CRYP_CLEAR_FLAG(hcryp, CRYP_CCF_CLEAR);
 8003b0c:	681a      	ldr	r2, [r3, #0]
      hcryp->Phase = HAL_CRYP_PHASE_FINAL_OVER;
 8003b0e:	2107      	movs	r1, #7
      __HAL_CRYP_CLEAR_FLAG(hcryp, CRYP_CCF_CLEAR);
 8003b10:	f042 0280 	orr.w	r2, r2, #128	@ 0x80
 8003b14:	601a      	str	r2, [r3, #0]
      hcryp->Phase = HAL_CRYP_PHASE_FINAL_OVER;
 8003b16:	f885 1048 	strb.w	r1, [r5, #72]	@ 0x48
      __HAL_CRYP_DISABLE(hcryp);
 8003b1a:	681a      	ldr	r2, [r3, #0]
 8003b1c:	f022 0201 	bic.w	r2, r2, #1
 8003b20:	601a      	str	r2, [r3, #0]
 8003b22:	e7a3      	b.n	8003a6c <HAL_CRYPEx_AES_Auth+0x4c>
    __HAL_LOCK(hcryp);
 8003b24:	2002      	movs	r0, #2
}
 8003b26:	b007      	add	sp, #28
 8003b28:	e8bd 8ff0 	ldmia.w	sp!, {r4, r5, r6, r7, r8, r9, sl, fp, pc}
      if((HAL_GetTick() - tickstart ) > Timeout)
 8003b2c:	f7fe feb2 	bl	8002894 <HAL_GetTick>
 8003b30:	1b03      	subs	r3, r0, r4
 8003b32:	429f      	cmp	r7, r3
 8003b34:	f0c0 8082 	bcc.w	8003c3c <HAL_CRYPEx_AES_Auth+0x21c>
  while(HAL_IS_BIT_CLR(hcryp->Instance->SR, AES_SR_CCF))
 8003b38:	682b      	ldr	r3, [r5, #0]
 8003b3a:	685a      	ldr	r2, [r3, #4]
 8003b3c:	07d2      	lsls	r2, r2, #31
 8003b3e:	d5f5      	bpl.n	8003b2c <HAL_CRYPEx_AES_Auth+0x10c>
 8003b40:	e78d      	b.n	8003a5e <HAL_CRYPEx_AES_Auth+0x3e>
      if (((pInputData == NULL) && (Size != 0U)) || \
 8003b42:	2900      	cmp	r1, #0
 8003b44:	f000 8237 	beq.w	8003fb6 <HAL_CRYPEx_AES_Auth+0x596>
          ((pInputData != NULL) && (Size == 0U)) || \
 8003b48:	ea52 030c 	orrs.w	r3, r2, ip
 8003b4c:	d0eb      	beq.n	8003b26 <HAL_CRYPEx_AES_Auth+0x106>
          ((pInputData != NULL) && (Size != 0U) && (pOutputData == NULL)))
 8003b4e:	9b10      	ldr	r3, [sp, #64]	@ 0x40
 8003b50:	2b00      	cmp	r3, #0
 8003b52:	d0e8      	beq.n	8003b26 <HAL_CRYPEx_AES_Auth+0x106>
    __HAL_LOCK(hcryp);
 8003b54:	f895 3054 	ldrb.w	r3, [r5, #84]	@ 0x54
 8003b58:	2b01      	cmp	r3, #1
 8003b5a:	d0e3      	beq.n	8003b24 <HAL_CRYPEx_AES_Auth+0x104>
      MODIFY_REG(hcryp->Instance->CR, AES_CR_GCMPH, CRYP_PAYLOAD_PHASE);
 8003b5c:	682c      	ldr	r4, [r5, #0]
    __HAL_LOCK(hcryp);
 8003b5e:	f885 0054 	strb.w	r0, [r5, #84]	@ 0x54
    hcryp->State = HAL_CRYP_STATE_BUSY;
 8003b62:	2302      	movs	r3, #2
 8003b64:	f885 3055 	strb.w	r3, [r5, #85]	@ 0x55
      MODIFY_REG(hcryp->Instance->CR, AES_CR_GCMPH, CRYP_PAYLOAD_PHASE);
 8003b68:	6823      	ldr	r3, [r4, #0]
 8003b6a:	f423 43c0 	bic.w	r3, r3, #24576	@ 0x6000
 8003b6e:	f443 4380 	orr.w	r3, r3, #16384	@ 0x4000
 8003b72:	6023      	str	r3, [r4, #0]
      if (hcryp->Phase == HAL_CRYP_PHASE_INIT_OVER)
 8003b74:	f895 3048 	ldrb.w	r3, [r5, #72]	@ 0x48
 8003b78:	2b04      	cmp	r3, #4
 8003b7a:	d103      	bne.n	8003b84 <HAL_CRYPEx_AES_Auth+0x164>
        __HAL_CRYP_ENABLE(hcryp);
 8003b7c:	6823      	ldr	r3, [r4, #0]
 8003b7e:	f043 0301 	orr.w	r3, r3, #1
 8003b82:	6023      	str	r3, [r4, #0]
      if ((Size % 16U) != 0U)
 8003b84:	f012 030f 	ands.w	r3, r2, #15
 8003b88:	f040 8204 	bne.w	8003f94 <HAL_CRYPEx_AES_Auth+0x574>
      for(index=0U ; index < payloadlength; index += 16U)
 8003b8c:	ea52 000c 	orrs.w	r0, r2, ip
 8003b90:	d050      	beq.n	8003c34 <HAL_CRYPEx_AES_Auth+0x214>
  uint32_t addhoc_process = 0;
 8003b92:	9302      	str	r3, [sp, #8]
      for(index=0U ; index < payloadlength; index += 16U)
 8003b94:	9200      	str	r2, [sp, #0]
  uint32_t difflength     = 0;
 8003b96:	9303      	str	r3, [sp, #12]
 8003b98:	9b10      	ldr	r3, [sp, #64]	@ 0x40
      for(index=0U ; index < payloadlength; index += 16U)
 8003b9a:	9201      	str	r2, [sp, #4]
 8003b9c:	f04f 0b00 	mov.w	fp, #0
 8003ba0:	46d9      	mov	r9, fp
 8003ba2:	46da      	mov	sl, fp
 8003ba4:	4620      	mov	r0, r4
 8003ba6:	f101 0810 	add.w	r8, r1, #16
 8003baa:	462c      	mov	r4, r5
 8003bac:	f103 0610 	add.w	r6, r3, #16
 8003bb0:	465d      	mov	r5, fp
 8003bb2:	46e3      	mov	fp, ip
        hcryp->Instance->DINR = *(uint32_t*)(inputaddr);
 8003bb4:	f858 1c10 	ldr.w	r1, [r8, #-16]
 8003bb8:	6081      	str	r1, [r0, #8]
        hcryp->Instance->DINR = *(uint32_t*)(inputaddr);
 8003bba:	f858 1c0c 	ldr.w	r1, [r8, #-12]
 8003bbe:	6081      	str	r1, [r0, #8]
        hcryp->Instance->DINR  = *(uint32_t*)(inputaddr);
 8003bc0:	f858 1c08 	ldr.w	r1, [r8, #-8]
 8003bc4:	6081      	str	r1, [r0, #8]
        hcryp->Instance->DINR = *(uint32_t*)(inputaddr);
 8003bc6:	f858 1c04 	ldr.w	r1, [r8, #-4]
 8003bca:	6081      	str	r1, [r0, #8]
  tickstart = HAL_GetTick();
 8003bcc:	f7fe fe62 	bl	8002894 <HAL_GetTick>
 8003bd0:	1c7b      	adds	r3, r7, #1
 8003bd2:	4684      	mov	ip, r0
  while(HAL_IS_BIT_CLR(hcryp->Instance->SR, AES_SR_CCF))
 8003bd4:	46c6      	mov	lr, r8
 8003bd6:	6820      	ldr	r0, [r4, #0]
 8003bd8:	f040 81ff 	bne.w	8003fda <HAL_CRYPEx_AES_Auth+0x5ba>
 8003bdc:	6843      	ldr	r3, [r0, #4]
 8003bde:	07d9      	lsls	r1, r3, #31
 8003be0:	d5fc      	bpl.n	8003bdc <HAL_CRYPEx_AES_Auth+0x1bc>
        __HAL_CRYP_CLEAR_FLAG(hcryp, CRYP_CCF_CLEAR);
 8003be2:	6801      	ldr	r1, [r0, #0]
 8003be4:	9610      	str	r6, [sp, #64]	@ 0x40
 8003be6:	f041 0180 	orr.w	r1, r1, #128	@ 0x80
 8003bea:	6001      	str	r1, [r0, #0]
        *(uint32_t*)(outputaddr) = hcryp->Instance->DOUTR;
 8003bec:	68c1      	ldr	r1, [r0, #12]
 8003bee:	f846 1c10 	str.w	r1, [r6, #-16]
        *(uint32_t*)(outputaddr) = hcryp->Instance->DOUTR;
 8003bf2:	68c1      	ldr	r1, [r0, #12]
 8003bf4:	f846 1c0c 	str.w	r1, [r6, #-12]
        *(uint32_t*)(outputaddr) = hcryp->Instance->DOUTR;
 8003bf8:	68c1      	ldr	r1, [r0, #12]
 8003bfa:	f846 1c08 	str.w	r1, [r6, #-8]
        *(uint32_t*)(outputaddr) = hcryp->Instance->DOUTR;
 8003bfe:	68c1      	ldr	r1, [r0, #12]
 8003c00:	f846 1c04 	str.w	r1, [r6, #-4]
        if ((hcryp->SuspendRequest == HAL_CRYP_SUSPEND) && (index_temp < payloadlength))
 8003c04:	f894 105c 	ldrb.w	r1, [r4, #92]	@ 0x5c
 8003c08:	2901      	cmp	r1, #1
 8003c0a:	f000 8130 	beq.w	8003e6e <HAL_CRYPEx_AES_Auth+0x44e>
      for(index=0U ; index < payloadlength; index += 16U)
 8003c0e:	9b00      	ldr	r3, [sp, #0]
 8003c10:	3510      	adds	r5, #16
 8003c12:	f04f 0a00 	mov.w	sl, #0
 8003c16:	429d      	cmp	r5, r3
 8003c18:	eb7a 010b 	sbcs.w	r1, sl, fp
 8003c1c:	f108 0810 	add.w	r8, r8, #16
 8003c20:	f106 0610 	add.w	r6, r6, #16
 8003c24:	46a9      	mov	r9, r5
 8003c26:	d3c5      	bcc.n	8003bb4 <HAL_CRYPEx_AES_Auth+0x194>
      if (addhoc_process == 1U)
 8003c28:	9b02      	ldr	r3, [sp, #8]
 8003c2a:	4625      	mov	r5, r4
 8003c2c:	4671      	mov	r1, lr
 8003c2e:	2b00      	cmp	r3, #0
 8003c30:	f040 8211 	bne.w	8004056 <HAL_CRYPEx_AES_Auth+0x636>
      hcryp->Phase = HAL_CRYP_PHASE_PAYLOAD_OVER;
 8003c34:	2306      	movs	r3, #6
 8003c36:	f885 3048 	strb.w	r3, [r5, #72]	@ 0x48
 8003c3a:	e717      	b.n	8003a6c <HAL_CRYPEx_AES_Auth+0x4c>
          hcryp->State = HAL_CRYP_STATE_READY;
 8003c3c:	2301      	movs	r3, #1
 8003c3e:	f885 3055 	strb.w	r3, [r5, #85]	@ 0x55
            __HAL_UNLOCK(hcryp);
 8003c42:	2300      	movs	r3, #0
 8003c44:	f885 3054 	strb.w	r3, [r5, #84]	@ 0x54
        return HAL_TIMEOUT;
 8003c48:	2003      	movs	r0, #3
 8003c4a:	e76c      	b.n	8003b26 <HAL_CRYPEx_AES_Auth+0x106>
      if (((hcryp->Init.Header != NULL) && (hcryp->Init.HeaderSize == 0U)) ||
 8003c4c:	6aae      	ldr	r6, [r5, #40]	@ 0x28
 8003c4e:	e9d5 3b0c 	ldrd	r3, fp, [r5, #48]	@ 0x30
 8003c52:	2e00      	cmp	r6, #0
 8003c54:	f000 81aa 	beq.w	8003fac <HAL_CRYPEx_AES_Auth+0x58c>
 8003c58:	ea53 040b 	orrs.w	r4, r3, fp
 8003c5c:	f43f af63 	beq.w	8003b26 <HAL_CRYPEx_AES_Auth+0x106>
      if (hcryp->Init.ChainingMode == CRYP_CHAINMODE_AES_CMAC)
 8003c60:	696c      	ldr	r4, [r5, #20]
 8003c62:	f5b4 3f80 	cmp.w	r4, #65536	@ 0x10000
 8003c66:	d06b      	beq.n	8003d40 <HAL_CRYPEx_AES_Auth+0x320>
    __HAL_LOCK(hcryp);
 8003c68:	f895 2054 	ldrb.w	r2, [r5, #84]	@ 0x54
 8003c6c:	2a01      	cmp	r2, #1
 8003c6e:	f43f af59 	beq.w	8003b24 <HAL_CRYPEx_AES_Auth+0x104>
 8003c72:	2201      	movs	r2, #1
 8003c74:	f885 2054 	strb.w	r2, [r5, #84]	@ 0x54
      if (hcryp->Init.ChainingMode == CRYP_CHAINMODE_AES_GCM_GMAC)
 8003c78:	2c60      	cmp	r4, #96	@ 0x60
    hcryp->State = HAL_CRYP_STATE_BUSY;
 8003c7a:	f04f 0202 	mov.w	r2, #2
        MODIFY_REG(hcryp->Instance->CR, AES_CR_GCMPH|AES_CR_DATATYPE, CRYP_HEADER_PHASE|hcryp->Init.DataType);
 8003c7e:	6829      	ldr	r1, [r5, #0]
    hcryp->State = HAL_CRYP_STATE_BUSY;
 8003c80:	f885 2055 	strb.w	r2, [r5, #85]	@ 0x55
      if (hcryp->Init.ChainingMode == CRYP_CHAINMODE_AES_GCM_GMAC)
 8003c84:	f000 817e 	beq.w	8003f84 <HAL_CRYPEx_AES_Auth+0x564>
        MODIFY_REG(hcryp->Instance->CR, AES_CR_GCMPH, CRYP_HEADER_PHASE);
 8003c88:	680a      	ldr	r2, [r1, #0]
 8003c8a:	f422 42c0 	bic.w	r2, r2, #24576	@ 0x6000
 8003c8e:	f442 5200 	orr.w	r2, r2, #8192	@ 0x2000
 8003c92:	600a      	str	r2, [r1, #0]
      __HAL_CRYP_ENABLE(hcryp);
 8003c94:	680a      	ldr	r2, [r1, #0]
 8003c96:	f042 0201 	orr.w	r2, r2, #1
 8003c9a:	600a      	str	r2, [r1, #0]
      if ((hcryp->Init.HeaderSize % 16U) != 0U)
 8003c9c:	f013 0c0f 	ands.w	ip, r3, #15
      inputaddr = (uint32_t)hcryp->Init.Header;
 8003ca0:	4634      	mov	r4, r6
      headerlength =  (((hcryp->Init.HeaderSize)/16U)*16U) ;
 8003ca2:	f023 0a0f 	bic.w	sl, r3, #15
      if ((hcryp->Init.HeaderSize % 16U) != 0U)
 8003ca6:	f040 8136 	bne.w	8003f16 <HAL_CRYPEx_AES_Auth+0x4f6>
      for(index=0U ; index < headerlength; index += 16U)
 8003caa:	ea5a 030b 	orrs.w	r3, sl, fp
 8003cae:	f000 8141 	beq.w	8003f34 <HAL_CRYPEx_AES_Auth+0x514>
 8003cb2:	f106 0410 	add.w	r4, r6, #16
 8003cb6:	2600      	movs	r6, #0
 8003cb8:	9600      	str	r6, [sp, #0]
 8003cba:	46b1      	mov	r9, r6
 8003cbc:	f8cd c004 	str.w	ip, [sp, #4]
        hcryp->Instance->DINR = *(uint32_t*)(inputaddr);
 8003cc0:	f854 3c10 	ldr.w	r3, [r4, #-16]
 8003cc4:	608b      	str	r3, [r1, #8]
        hcryp->Instance->DINR = *(uint32_t*)(inputaddr);
 8003cc6:	f854 3c0c 	ldr.w	r3, [r4, #-12]
 8003cca:	608b      	str	r3, [r1, #8]
        hcryp->Instance->DINR  = *(uint32_t*)(inputaddr);
 8003ccc:	f854 3c08 	ldr.w	r3, [r4, #-8]
 8003cd0:	608b      	str	r3, [r1, #8]
        hcryp->Instance->DINR = *(uint32_t*)(inputaddr);
 8003cd2:	f854 3c04 	ldr.w	r3, [r4, #-4]
 8003cd6:	608b      	str	r3, [r1, #8]
  tickstart = HAL_GetTick();
 8003cd8:	f7fe fddc 	bl	8002894 <HAL_GetTick>
 8003cdc:	1c7b      	adds	r3, r7, #1
  while(HAL_IS_BIT_CLR(hcryp->Instance->SR, AES_SR_CCF))
 8003cde:	6829      	ldr	r1, [r5, #0]
  tickstart = HAL_GetTick();
 8003ce0:	4680      	mov	r8, r0
  while(HAL_IS_BIT_CLR(hcryp->Instance->SR, AES_SR_CCF))
 8003ce2:	d11f      	bne.n	8003d24 <HAL_CRYPEx_AES_Auth+0x304>
 8003ce4:	684b      	ldr	r3, [r1, #4]
 8003ce6:	07d8      	lsls	r0, r3, #31
 8003ce8:	d5fc      	bpl.n	8003ce4 <HAL_CRYPEx_AES_Auth+0x2c4>
        __HAL_CRYP_CLEAR_FLAG(hcryp, CRYP_CCF_CLEAR);
 8003cea:	680b      	ldr	r3, [r1, #0]
 8003cec:	f043 0380 	orr.w	r3, r3, #128	@ 0x80
 8003cf0:	600b      	str	r3, [r1, #0]
        if ((hcryp->SuspendRequest == HAL_CRYP_SUSPEND) && (index_temp < headerlength))
 8003cf2:	f895 305c 	ldrb.w	r3, [r5, #92]	@ 0x5c
 8003cf6:	2b01      	cmp	r3, #1
 8003cf8:	f000 80a0 	beq.w	8003e3c <HAL_CRYPEx_AES_Auth+0x41c>
      for(index=0U ; index < headerlength; index += 16U)
 8003cfc:	3610      	adds	r6, #16
 8003cfe:	f04f 0900 	mov.w	r9, #0
 8003d02:	4556      	cmp	r6, sl
 8003d04:	eb79 000b 	sbcs.w	r0, r9, fp
 8003d08:	9600      	str	r6, [sp, #0]
 8003d0a:	f104 0310 	add.w	r3, r4, #16
 8003d0e:	f080 8136 	bcs.w	8003f7e <HAL_CRYPEx_AES_Auth+0x55e>
 8003d12:	461c      	mov	r4, r3
 8003d14:	e7d4      	b.n	8003cc0 <HAL_CRYPEx_AES_Auth+0x2a0>
      if((HAL_GetTick() - tickstart ) > Timeout)
 8003d16:	f7fe fdbd 	bl	8002894 <HAL_GetTick>
 8003d1a:	eba0 0008 	sub.w	r0, r0, r8
 8003d1e:	4287      	cmp	r7, r0
 8003d20:	d38c      	bcc.n	8003c3c <HAL_CRYPEx_AES_Auth+0x21c>
  while(HAL_IS_BIT_CLR(hcryp->Instance->SR, AES_SR_CCF))
 8003d22:	6829      	ldr	r1, [r5, #0]
 8003d24:	6848      	ldr	r0, [r1, #4]
 8003d26:	07c2      	lsls	r2, r0, #31
 8003d28:	d5f5      	bpl.n	8003d16 <HAL_CRYPEx_AES_Auth+0x2f6>
 8003d2a:	e7de      	b.n	8003cea <HAL_CRYPEx_AES_Auth+0x2ca>
      if((HAL_GetTick() - tickstart ) > Timeout)
 8003d2c:	f7fe fdb2 	bl	8002894 <HAL_GetTick>
 8003d30:	1b03      	subs	r3, r0, r4
 8003d32:	429f      	cmp	r7, r3
 8003d34:	d382      	bcc.n	8003c3c <HAL_CRYPEx_AES_Auth+0x21c>
  while(HAL_IS_BIT_CLR(hcryp->Instance->SR, AES_SR_CCF))
 8003d36:	682b      	ldr	r3, [r5, #0]
 8003d38:	685a      	ldr	r2, [r3, #4]
 8003d3a:	07d2      	lsls	r2, r2, #31
 8003d3c:	d5f6      	bpl.n	8003d2c <HAL_CRYPEx_AES_Auth+0x30c>
 8003d3e:	e6dc      	b.n	8003afa <HAL_CRYPEx_AES_Auth+0xda>
        if (((pInputData != NULL) && (Size == 0U)) || ((pInputData == NULL) && (Size != 0U)))
 8003d40:	2900      	cmp	r1, #0
 8003d42:	f000 816a 	beq.w	800401a <HAL_CRYPEx_AES_Auth+0x5fa>
 8003d46:	ea52 030c 	orrs.w	r3, r2, ip
 8003d4a:	f43f aeec 	beq.w	8003b26 <HAL_CRYPEx_AES_Auth+0x106>
    __HAL_LOCK(hcryp);
 8003d4e:	f895 3054 	ldrb.w	r3, [r5, #84]	@ 0x54
 8003d52:	2b01      	cmp	r3, #1
 8003d54:	f43f aee6 	beq.w	8003b24 <HAL_CRYPEx_AES_Auth+0x104>
 8003d58:	2301      	movs	r3, #1
 8003d5a:	f885 3054 	strb.w	r3, [r5, #84]	@ 0x54
    hcryp->State = HAL_CRYP_STATE_BUSY;
 8003d5e:	f101 0410 	add.w	r4, r1, #16
 8003d62:	2302      	movs	r3, #2
        MODIFY_REG(hcryp->Instance->CR, AES_CR_GCMPH, CRYP_HEADER_PHASE);
 8003d64:	6829      	ldr	r1, [r5, #0]
    hcryp->State = HAL_CRYP_STATE_BUSY;
 8003d66:	f885 3055 	strb.w	r3, [r5, #85]	@ 0x55
        MODIFY_REG(hcryp->Instance->CR, AES_CR_GCMPH, CRYP_HEADER_PHASE);
 8003d6a:	680b      	ldr	r3, [r1, #0]
 8003d6c:	f423 43c0 	bic.w	r3, r3, #24576	@ 0x6000
 8003d70:	f443 5300 	orr.w	r3, r3, #8192	@ 0x2000
 8003d74:	600b      	str	r3, [r1, #0]
      __HAL_CRYP_ENABLE(hcryp);
 8003d76:	680b      	ldr	r3, [r1, #0]
        for(index=0U ; (index < Size); index += 16U)
 8003d78:	f04f 0a00 	mov.w	sl, #0
 8003d7c:	e9cd 2c00 	strd	r2, ip, [sp]
 8003d80:	4656      	mov	r6, sl
      __HAL_CRYP_ENABLE(hcryp);
 8003d82:	f043 0301 	orr.w	r3, r3, #1
        for(index=0U ; (index < Size); index += 16U)
 8003d86:	46d0      	mov	r8, sl
 8003d88:	46d1      	mov	r9, sl
      __HAL_CRYP_ENABLE(hcryp);
 8003d8a:	600b      	str	r3, [r1, #0]
        for(index=0U ; (index < Size); index += 16U)
 8003d8c:	46a2      	mov	sl, r4
 8003d8e:	4634      	mov	r4, r6
          hcryp->Instance->DINR = *(uint32_t*)(inputaddr);
 8003d90:	f85a 3c10 	ldr.w	r3, [sl, #-16]
 8003d94:	608b      	str	r3, [r1, #8]
          hcryp->Instance->DINR = *(uint32_t*)(inputaddr);
 8003d96:	f85a 3c0c 	ldr.w	r3, [sl, #-12]
 8003d9a:	608b      	str	r3, [r1, #8]
          hcryp->Instance->DINR  = *(uint32_t*)(inputaddr);
 8003d9c:	f85a 3c08 	ldr.w	r3, [sl, #-8]
 8003da0:	608b      	str	r3, [r1, #8]
          hcryp->Instance->DINR = *(uint32_t*)(inputaddr);
 8003da2:	f85a 3c04 	ldr.w	r3, [sl, #-4]
 8003da6:	608b      	str	r3, [r1, #8]
  tickstart = HAL_GetTick();
 8003da8:	f7fe fd74 	bl	8002894 <HAL_GetTick>
 8003dac:	1c7b      	adds	r3, r7, #1
  while(HAL_IS_BIT_CLR(hcryp->Instance->SR, AES_SR_CCF))
 8003dae:	6829      	ldr	r1, [r5, #0]
  tickstart = HAL_GetTick();
 8003db0:	4683      	mov	fp, r0
  while(HAL_IS_BIT_CLR(hcryp->Instance->SR, AES_SR_CCF))
 8003db2:	d123      	bne.n	8003dfc <HAL_CRYPEx_AES_Auth+0x3dc>
 8003db4:	684b      	ldr	r3, [r1, #4]
 8003db6:	07d8      	lsls	r0, r3, #31
 8003db8:	d5fc      	bpl.n	8003db4 <HAL_CRYPEx_AES_Auth+0x394>
          __HAL_CRYP_CLEAR_FLAG(hcryp, CRYP_CCF_CLEAR);
 8003dba:	680b      	ldr	r3, [r1, #0]
 8003dbc:	f043 0380 	orr.w	r3, r3, #128	@ 0x80
 8003dc0:	600b      	str	r3, [r1, #0]
          if ((hcryp->SuspendRequest == HAL_CRYP_SUSPEND) && (index_test < Size))
 8003dc2:	f895 305c 	ldrb.w	r3, [r5, #92]	@ 0x5c
 8003dc6:	2b01      	cmp	r3, #1
 8003dc8:	f000 8085 	beq.w	8003ed6 <HAL_CRYPEx_AES_Auth+0x4b6>
        for(index=0U ; (index < Size); index += 16U)
 8003dcc:	9b00      	ldr	r3, [sp, #0]
 8003dce:	3410      	adds	r4, #16
 8003dd0:	429c      	cmp	r4, r3
 8003dd2:	9b01      	ldr	r3, [sp, #4]
 8003dd4:	eb79 0303 	sbcs.w	r3, r9, r3
 8003dd8:	f10a 0a10 	add.w	sl, sl, #16
 8003ddc:	4626      	mov	r6, r4
 8003dde:	f04f 0800 	mov.w	r8, #0
 8003de2:	d3d5      	bcc.n	8003d90 <HAL_CRYPEx_AES_Auth+0x370>
      headerlength =  (((hcryp->Init.HeaderSize)/16U)*16U) ;
 8003de4:	e9d5 3b0c 	ldrd	r3, fp, [r5, #48]	@ 0x30
      inputaddr = (uint32_t)hcryp->Init.Header;
 8003de8:	6aae      	ldr	r6, [r5, #40]	@ 0x28
 8003dea:	e757      	b.n	8003c9c <HAL_CRYPEx_AES_Auth+0x27c>
      if((HAL_GetTick() - tickstart ) > Timeout)
 8003dec:	f7fe fd52 	bl	8002894 <HAL_GetTick>
 8003df0:	eba0 010b 	sub.w	r1, r0, fp
 8003df4:	428f      	cmp	r7, r1
 8003df6:	f4ff af21 	bcc.w	8003c3c <HAL_CRYPEx_AES_Auth+0x21c>
  while(HAL_IS_BIT_CLR(hcryp->Instance->SR, AES_SR_CCF))
 8003dfa:	6829      	ldr	r1, [r5, #0]
 8003dfc:	6848      	ldr	r0, [r1, #4]
 8003dfe:	07c2      	lsls	r2, r0, #31
 8003e00:	d5f4      	bpl.n	8003dec <HAL_CRYPEx_AES_Auth+0x3cc>
 8003e02:	e7da      	b.n	8003dba <HAL_CRYPEx_AES_Auth+0x39a>
      if ((hcryp->Init.ChainingMode == CRYP_CHAINMODE_AES_CMAC) && (pInputData == NULL))
 8003e04:	2900      	cmp	r1, #0
 8003e06:	f43f ae8e 	beq.w	8003b26 <HAL_CRYPEx_AES_Auth+0x106>
    __HAL_LOCK(hcryp);
 8003e0a:	f895 3054 	ldrb.w	r3, [r5, #84]	@ 0x54
 8003e0e:	2b01      	cmp	r3, #1
 8003e10:	f43f ae88 	beq.w	8003b24 <HAL_CRYPEx_AES_Auth+0x104>
      MODIFY_REG(hcryp->Instance->CR, AES_CR_GCMPH, CRYP_FINAL_PHASE);
 8003e14:	682b      	ldr	r3, [r5, #0]
    __HAL_LOCK(hcryp);
 8003e16:	f885 0054 	strb.w	r0, [r5, #84]	@ 0x54
    hcryp->State = HAL_CRYP_STATE_BUSY;
 8003e1a:	2202      	movs	r2, #2
 8003e1c:	f885 2055 	strb.w	r2, [r5, #85]	@ 0x55
      MODIFY_REG(hcryp->Instance->CR, AES_CR_GCMPH, CRYP_FINAL_PHASE);
 8003e20:	681a      	ldr	r2, [r3, #0]
 8003e22:	f442 42c0 	orr.w	r2, r2, #24576	@ 0x6000
 8003e26:	601a      	str	r2, [r3, #0]
      if (hcryp->Phase == HAL_CRYP_PHASE_INIT_OVER)
 8003e28:	f895 2048 	ldrb.w	r2, [r5, #72]	@ 0x48
 8003e2c:	2a04      	cmp	r2, #4
 8003e2e:	f47f ae52 	bne.w	8003ad6 <HAL_CRYPEx_AES_Auth+0xb6>
        __HAL_CRYP_ENABLE(hcryp);
 8003e32:	681a      	ldr	r2, [r3, #0]
 8003e34:	f042 0201 	orr.w	r2, r2, #1
 8003e38:	601a      	str	r2, [r3, #0]
      if (hcryp->Init.ChainingMode == CRYP_CHAINMODE_AES_GCM_GMAC)
 8003e3a:	e64c      	b.n	8003ad6 <HAL_CRYPEx_AES_Auth+0xb6>
        index_temp = (uint64_t)index + 16U;
 8003e3c:	9b00      	ldr	r3, [sp, #0]
 8003e3e:	f113 0810 	adds.w	r8, r3, #16
 8003e42:	f149 0900 	adc.w	r9, r9, #0
        if ((hcryp->SuspendRequest == HAL_CRYP_SUSPEND) && (index_temp < headerlength))
 8003e46:	45d0      	cmp	r8, sl
 8003e48:	eb79 090b 	sbcs.w	r9, r9, fp
 8003e4c:	f4bf af56 	bcs.w	8003cfc <HAL_CRYPEx_AES_Auth+0x2dc>
          hcryp->CrypInCount =  (uint32_t) (hcryp->Init.HeaderSize - index_temp);
 8003e50:	6b2b      	ldr	r3, [r5, #48]	@ 0x30
         hcryp->pCrypInBuffPtr  =  (uint8_t *)inputaddr;
 8003e52:	63ac      	str	r4, [r5, #56]	@ 0x38
          hcryp->SuspendRequest = HAL_CRYP_SUSPEND_NONE;
 8003e54:	2200      	movs	r2, #0
          hcryp->CrypInCount =  (uint32_t) (hcryp->Init.HeaderSize - index_temp);
 8003e56:	3b10      	subs	r3, #16
 8003e58:	1b9b      	subs	r3, r3, r6
          hcryp->SuspendRequest = HAL_CRYP_SUSPEND_NONE;
 8003e5a:	f885 205c 	strb.w	r2, [r5, #92]	@ 0x5c
          hcryp->State = HAL_CRYP_STATE_SUSPENDED;
 8003e5e:	2105      	movs	r1, #5
          hcryp->Phase = HAL_CRYP_PHASE_HEADER_SUSPENDED;
 8003e60:	2208      	movs	r2, #8
          hcryp->State = HAL_CRYP_STATE_SUSPENDED;
 8003e62:	f885 1055 	strb.w	r1, [r5, #85]	@ 0x55
          hcryp->Phase = HAL_CRYP_PHASE_HEADER_SUSPENDED;
 8003e66:	f885 2048 	strb.w	r2, [r5, #72]	@ 0x48
          hcryp->CrypInCount =  (uint32_t) (hcryp->Init.HeaderSize - index_temp);
 8003e6a:	642b      	str	r3, [r5, #64]	@ 0x40
          return HAL_OK;
 8003e6c:	e601      	b.n	8003a72 <HAL_CRYPEx_AES_Auth+0x52>
        if ((hcryp->SuspendRequest == HAL_CRYP_SUSPEND) && (index_temp < payloadlength))
 8003e6e:	9b00      	ldr	r3, [sp, #0]
        index_temp = (uint64_t)index + 16U;
 8003e70:	f119 0910 	adds.w	r9, r9, #16
 8003e74:	f14a 0a00 	adc.w	sl, sl, #0
        if ((hcryp->SuspendRequest == HAL_CRYP_SUSPEND) && (index_temp < payloadlength))
 8003e78:	4599      	cmp	r9, r3
 8003e7a:	eb7a 0a0b 	sbcs.w	sl, sl, fp
 8003e7e:	f4bf aec6 	bcs.w	8003c0e <HAL_CRYPEx_AES_Auth+0x1ee>
          if (hcryp->Init.OperatingMode == CRYP_ALGOMODE_ENCRYPT)
 8003e82:	6921      	ldr	r1, [r4, #16]
 8003e84:	9a01      	ldr	r2, [sp, #4]
 8003e86:	46ab      	mov	fp, r5
 8003e88:	4625      	mov	r5, r4
 8003e8a:	b999      	cbnz	r1, 8003eb4 <HAL_CRYPEx_AES_Auth+0x494>
 8003e8c:	9200      	str	r2, [sp, #0]
  tickstart = HAL_GetTick();
 8003e8e:	f7fe fd01 	bl	8002894 <HAL_GetTick>
 8003e92:	9a00      	ldr	r2, [sp, #0]
 8003e94:	4604      	mov	r4, r0
      if((HAL_GetTick() - tickstart ) > Timeout)
 8003e96:	f245 57f0 	movw	r7, #22000	@ 0x55f0
 8003e9a:	4691      	mov	r9, r2
  while(HAL_IS_BIT_SET(hcryp->Instance->SR, AES_SR_BUSY))
 8003e9c:	e005      	b.n	8003eaa <HAL_CRYPEx_AES_Auth+0x48a>
      if((HAL_GetTick() - tickstart ) > Timeout)
 8003e9e:	f7fe fcf9 	bl	8002894 <HAL_GetTick>
 8003ea2:	1b03      	subs	r3, r0, r4
 8003ea4:	42bb      	cmp	r3, r7
 8003ea6:	f63f aec9 	bhi.w	8003c3c <HAL_CRYPEx_AES_Auth+0x21c>
  while(HAL_IS_BIT_SET(hcryp->Instance->SR, AES_SR_BUSY))
 8003eaa:	682b      	ldr	r3, [r5, #0]
 8003eac:	685b      	ldr	r3, [r3, #4]
 8003eae:	071b      	lsls	r3, r3, #28
 8003eb0:	d4f5      	bmi.n	8003e9e <HAL_CRYPEx_AES_Auth+0x47e>
 8003eb2:	464a      	mov	r2, r9
          hcryp->CrypInCount     =  (uint32_t) (Size - index_temp);
 8003eb4:	3a10      	subs	r2, #16
 8003eb6:	eba2 030b 	sub.w	r3, r2, fp
 8003eba:	e9c5 630f 	strd	r6, r3, [r5, #60]	@ 0x3c
          hcryp->SuspendRequest = HAL_CRYP_SUSPEND_NONE;
 8003ebe:	2100      	movs	r1, #0
          hcryp->State = HAL_CRYP_STATE_SUSPENDED;
 8003ec0:	2205      	movs	r2, #5
          hcryp->Phase = HAL_CRYP_PHASE_HEADER_SUSPENDED;
 8003ec2:	2308      	movs	r3, #8
          hcryp->pCrypInBuffPtr  =  (uint8_t *)inputaddr;
 8003ec4:	f8c5 8038 	str.w	r8, [r5, #56]	@ 0x38
          hcryp->SuspendRequest = HAL_CRYP_SUSPEND_NONE;
 8003ec8:	f885 105c 	strb.w	r1, [r5, #92]	@ 0x5c
          hcryp->State = HAL_CRYP_STATE_SUSPENDED;
 8003ecc:	f885 2055 	strb.w	r2, [r5, #85]	@ 0x55
          hcryp->Phase = HAL_CRYP_PHASE_HEADER_SUSPENDED;
 8003ed0:	f885 3048 	strb.w	r3, [r5, #72]	@ 0x48
          return HAL_OK;
 8003ed4:	e5cd      	b.n	8003a72 <HAL_CRYPEx_AES_Auth+0x52>
          if ((hcryp->SuspendRequest == HAL_CRYP_SUSPEND) && (index_test < Size))
 8003ed6:	9b00      	ldr	r3, [sp, #0]
          index_test = (uint64_t)index + 16U;
 8003ed8:	3610      	adds	r6, #16
 8003eda:	f148 0800 	adc.w	r8, r8, #0
          if ((hcryp->SuspendRequest == HAL_CRYP_SUSPEND) && (index_test < Size))
 8003ede:	429e      	cmp	r6, r3
 8003ee0:	9b01      	ldr	r3, [sp, #4]
 8003ee2:	eb78 0803 	sbcs.w	r8, r8, r3
 8003ee6:	f4bf af71 	bcs.w	8003dcc <HAL_CRYPEx_AES_Auth+0x3ac>
           hcryp->CrypInCount     =  (uint32_t) (hcryp->Init.HeaderSize + Size - index_test);
 8003eea:	9a00      	ldr	r2, [sp, #0]
 8003eec:	4623      	mov	r3, r4
 8003eee:	4654      	mov	r4, sl
 8003ef0:	469a      	mov	sl, r3
 8003ef2:	f1a2 0310 	sub.w	r3, r2, #16
            hcryp->SuspendRequest = HAL_CRYP_SUSPEND_NONE;
 8003ef6:	2200      	movs	r2, #0
 8003ef8:	f885 205c 	strb.w	r2, [r5, #92]	@ 0x5c
            hcryp->State = HAL_CRYP_STATE_SUSPENDED;
 8003efc:	2205      	movs	r2, #5
 8003efe:	f885 2055 	strb.w	r2, [r5, #85]	@ 0x55
            hcryp->Phase = HAL_CRYP_PHASE_HEADER_SUSPENDED;
 8003f02:	2208      	movs	r2, #8
 8003f04:	f885 2048 	strb.w	r2, [r5, #72]	@ 0x48
           hcryp->CrypInCount     =  (uint32_t) (hcryp->Init.HeaderSize + Size - index_test);
 8003f08:	6b2a      	ldr	r2, [r5, #48]	@ 0x30
           hcryp->pCrypInBuffPtr  =  (uint8_t *)inputaddr;
 8003f0a:	63ac      	str	r4, [r5, #56]	@ 0x38
           hcryp->CrypInCount     =  (uint32_t) (hcryp->Init.HeaderSize + Size - index_test);
 8003f0c:	4413      	add	r3, r2
 8003f0e:	eba3 030a 	sub.w	r3, r3, sl
 8003f12:	642b      	str	r3, [r5, #64]	@ 0x40
            return HAL_OK;
 8003f14:	e5ad      	b.n	8003a72 <HAL_CRYPEx_AES_Auth+0x52>
        difflength = (uint32_t) (hcryp->Init.HeaderSize - headerlength);
 8003f16:	eba3 0c0a 	sub.w	ip, r3, sl
      for(index=0U ; index < headerlength; index += 16U)
 8003f1a:	ea5a 030b 	orrs.w	r3, sl, fp
 8003f1e:	f47f aec8 	bne.w	8003cb2 <HAL_CRYPEx_AES_Auth+0x292>
      if (difflength != 0U)
 8003f22:	f1bc 0f00 	cmp.w	ip, #0
 8003f26:	d005      	beq.n	8003f34 <HAL_CRYPEx_AES_Auth+0x514>
        hcryp->pCrypInBuffPtr  =  (uint8_t *)inputaddr;
 8003f28:	63ac      	str	r4, [r5, #56]	@ 0x38
        CRYP_Padding(hcryp, difflength, CRYP_POLLING_ON);
 8003f2a:	2201      	movs	r2, #1
 8003f2c:	4661      	mov	r1, ip
 8003f2e:	4628      	mov	r0, r5
 8003f30:	f7ff fc3a 	bl	80037a8 <CRYP_Padding>
      hcryp->Phase = HAL_CRYP_PHASE_HEADER_OVER;
 8003f34:	2305      	movs	r3, #5
 8003f36:	f885 3048 	strb.w	r3, [r5, #72]	@ 0x48
 8003f3a:	e597      	b.n	8003a6c <HAL_CRYPEx_AES_Auth+0x4c>
        inputlength = Size * 8U;                    /* input length in bits */
 8003f3c:	ea4f 06cc 	mov.w	r6, ip, lsl #3
        headerlength = hcryp->Init.HeaderSize * 8U; /* Header length in bits */
 8003f40:	6b69      	ldr	r1, [r5, #52]	@ 0x34
        if(hcryp->Init.DataType == CRYP_DATATYPE_1B)
 8003f42:	f8d5 c008 	ldr.w	ip, [r5, #8]
        headerlength = hcryp->Init.HeaderSize * 8U; /* Header length in bits */
 8003f46:	6b2c      	ldr	r4, [r5, #48]	@ 0x30
 8003f48:	00c9      	lsls	r1, r1, #3
        if(hcryp->Init.DataType == CRYP_DATATYPE_1B)
 8003f4a:	f1bc 0f06 	cmp.w	ip, #6
        inputlength = Size * 8U;                    /* input length in bits */
 8003f4e:	ea46 7652 	orr.w	r6, r6, r2, lsr #29
        headerlength = hcryp->Init.HeaderSize * 8U; /* Header length in bits */
 8003f52:	ea41 7154 	orr.w	r1, r1, r4, lsr #29
        inputlength = Size * 8U;                    /* input length in bits */
 8003f56:	ea4f 02c2 	mov.w	r2, r2, lsl #3
        headerlength = hcryp->Init.HeaderSize * 8U; /* Header length in bits */
 8003f5a:	ea4f 04c4 	mov.w	r4, r4, lsl #3
        if(hcryp->Init.DataType == CRYP_DATATYPE_1B)
 8003f5e:	d02f      	beq.n	8003fc0 <HAL_CRYPEx_AES_Auth+0x5a0>
        else if(hcryp->Init.DataType == CRYP_DATATYPE_8B)
 8003f60:	f1bc 0f04 	cmp.w	ip, #4
 8003f64:	d050      	beq.n	8004008 <HAL_CRYPEx_AES_Auth+0x5e8>
        else if(hcryp->Init.DataType == CRYP_DATATYPE_16B)
 8003f66:	f1bc 0f02 	cmp.w	ip, #2
 8003f6a:	d067      	beq.n	800403c <HAL_CRYPEx_AES_Auth+0x61c>
        else if(hcryp->Init.DataType == CRYP_DATATYPE_32B)
 8003f6c:	f1bc 0f00 	cmp.w	ip, #0
 8003f70:	f47f add9 	bne.w	8003b26 <HAL_CRYPEx_AES_Auth+0x106>
          hcryp->Instance->DINR = (uint32_t)(headerlength>>32);
 8003f74:	6099      	str	r1, [r3, #8]
          hcryp->Instance->DINR = (uint32_t)(headerlength);
 8003f76:	609c      	str	r4, [r3, #8]
          hcryp->Instance->DINR = (uint32_t)(inputlength>>32);
 8003f78:	609e      	str	r6, [r3, #8]
          hcryp->Instance->DINR = (uint32_t)(inputlength);
 8003f7a:	609a      	str	r2, [r3, #8]
 8003f7c:	e5b3      	b.n	8003ae6 <HAL_CRYPEx_AES_Auth+0xc6>
 8003f7e:	f8dd c004 	ldr.w	ip, [sp, #4]
 8003f82:	e7ce      	b.n	8003f22 <HAL_CRYPEx_AES_Auth+0x502>
        MODIFY_REG(hcryp->Instance->CR, AES_CR_GCMPH|AES_CR_DATATYPE, CRYP_HEADER_PHASE|hcryp->Init.DataType);
 8003f84:	680a      	ldr	r2, [r1, #0]
 8003f86:	68a8      	ldr	r0, [r5, #8]
 8003f88:	f422 42c0 	bic.w	r2, r2, #24576	@ 0x6000
 8003f8c:	f022 0206 	bic.w	r2, r2, #6
 8003f90:	4302      	orrs	r2, r0
 8003f92:	e67c      	b.n	8003c8e <HAL_CRYPEx_AES_Auth+0x26e>
        payloadlength = (Size/16U) * 16U;
 8003f94:	f022 030f 	bic.w	r3, r2, #15
 8003f98:	9300      	str	r3, [sp, #0]
        difflength = (uint32_t) (Size - payloadlength);
 8003f9a:	f002 000f 	and.w	r0, r2, #15
      for(index=0U ; index < payloadlength; index += 16U)
 8003f9e:	ea53 030c 	orrs.w	r3, r3, ip
        difflength = (uint32_t) (Size - payloadlength);
 8003fa2:	9003      	str	r0, [sp, #12]
      for(index=0U ; index < payloadlength; index += 16U)
 8003fa4:	d057      	beq.n	8004056 <HAL_CRYPEx_AES_Auth+0x636>
        addhoc_process = 1;
 8003fa6:	2301      	movs	r3, #1
 8003fa8:	9302      	str	r3, [sp, #8]
 8003faa:	e5f5      	b.n	8003b98 <HAL_CRYPEx_AES_Auth+0x178>
          ((hcryp->Init.Header == NULL) && (hcryp->Init.HeaderSize != 0U)))
 8003fac:	ea53 040b 	orrs.w	r4, r3, fp
 8003fb0:	f43f ae56 	beq.w	8003c60 <HAL_CRYPEx_AES_Auth+0x240>
 8003fb4:	e5b7      	b.n	8003b26 <HAL_CRYPEx_AES_Auth+0x106>
      if (((pInputData == NULL) && (Size != 0U)) || \
 8003fb6:	ea52 030c 	orrs.w	r3, r2, ip
 8003fba:	f43f adcb 	beq.w	8003b54 <HAL_CRYPEx_AES_Auth+0x134>
 8003fbe:	e5b2      	b.n	8003b26 <HAL_CRYPEx_AES_Auth+0x106>
   __ASM volatile ("rbit %0, %1" : "=r" (result) : "r" (value) );
 8003fc0:	fa91 f1a1 	rbit	r1, r1
          hcryp->Instance->DINR = __RBIT((uint32_t)(headerlength>>32));
 8003fc4:	6099      	str	r1, [r3, #8]
 8003fc6:	fa94 f4a4 	rbit	r4, r4
          hcryp->Instance->DINR = __RBIT((uint32_t)headerlength);
 8003fca:	609c      	str	r4, [r3, #8]
 8003fcc:	fa96 f6a6 	rbit	r6, r6
          hcryp->Instance->DINR = __RBIT((uint32_t)(inputlength>>32));
 8003fd0:	609e      	str	r6, [r3, #8]
 8003fd2:	fa92 f2a2 	rbit	r2, r2
          hcryp->Instance->DINR = __RBIT((uint32_t)inputlength);
 8003fd6:	609a      	str	r2, [r3, #8]
 8003fd8:	e585      	b.n	8003ae6 <HAL_CRYPEx_AES_Auth+0xc6>
 8003fda:	e9cd 8604 	strd	r8, r6, [sp, #16]
 8003fde:	4666      	mov	r6, ip
 8003fe0:	e005      	b.n	8003fee <HAL_CRYPEx_AES_Auth+0x5ce>
      if((HAL_GetTick() - tickstart ) > Timeout)
 8003fe2:	f7fe fc57 	bl	8002894 <HAL_GetTick>
 8003fe6:	1b80      	subs	r0, r0, r6
 8003fe8:	4287      	cmp	r7, r0
 8003fea:	d308      	bcc.n	8003ffe <HAL_CRYPEx_AES_Auth+0x5de>
  while(HAL_IS_BIT_CLR(hcryp->Instance->SR, AES_SR_CCF))
 8003fec:	6820      	ldr	r0, [r4, #0]
 8003fee:	6843      	ldr	r3, [r0, #4]
 8003ff0:	07da      	lsls	r2, r3, #31
 8003ff2:	d5f6      	bpl.n	8003fe2 <HAL_CRYPEx_AES_Auth+0x5c2>
 8003ff4:	46c6      	mov	lr, r8
 8003ff6:	9e05      	ldr	r6, [sp, #20]
 8003ff8:	f8dd 8010 	ldr.w	r8, [sp, #16]
 8003ffc:	e5f1      	b.n	8003be2 <HAL_CRYPEx_AES_Auth+0x1c2>
          hcryp->State = HAL_CRYP_STATE_READY;
 8003ffe:	2301      	movs	r3, #1
 8004000:	4625      	mov	r5, r4
 8004002:	f884 3055 	strb.w	r3, [r4, #85]	@ 0x55
          return HAL_TIMEOUT;
 8004006:	e61c      	b.n	8003c42 <HAL_CRYPEx_AES_Auth+0x222>
  return __builtin_bswap32(value);
 8004008:	ba09      	rev	r1, r1
 800400a:	ba24      	rev	r4, r4
 800400c:	ba36      	rev	r6, r6
 800400e:	ba12      	rev	r2, r2
          hcryp->Instance->DINR = __REV((uint32_t)(headerlength>>32));
 8004010:	6099      	str	r1, [r3, #8]
          hcryp->Instance->DINR = __REV((uint32_t)headerlength);
 8004012:	609c      	str	r4, [r3, #8]
          hcryp->Instance->DINR = __REV((uint32_t)(inputlength>>32));
 8004014:	609e      	str	r6, [r3, #8]
          hcryp->Instance->DINR = __REV((uint32_t)inputlength);
 8004016:	609a      	str	r2, [r3, #8]
 8004018:	e565      	b.n	8003ae6 <HAL_CRYPEx_AES_Auth+0xc6>
        if (((pInputData != NULL) && (Size == 0U)) || ((pInputData == NULL) && (Size != 0U)))
 800401a:	ea52 0c0c 	orrs.w	ip, r2, ip
 800401e:	f47f ad82 	bne.w	8003b26 <HAL_CRYPEx_AES_Auth+0x106>
    __HAL_LOCK(hcryp);
 8004022:	f895 2054 	ldrb.w	r2, [r5, #84]	@ 0x54
 8004026:	2a01      	cmp	r2, #1
 8004028:	f43f ad7c 	beq.w	8003b24 <HAL_CRYPEx_AES_Auth+0x104>
 800402c:	2201      	movs	r2, #1
 800402e:	f885 2054 	strb.w	r2, [r5, #84]	@ 0x54
    hcryp->State = HAL_CRYP_STATE_BUSY;
 8004032:	2202      	movs	r2, #2
        MODIFY_REG(hcryp->Instance->CR, AES_CR_GCMPH, CRYP_HEADER_PHASE);
 8004034:	6829      	ldr	r1, [r5, #0]
    hcryp->State = HAL_CRYP_STATE_BUSY;
 8004036:	f885 2055 	strb.w	r2, [r5, #85]	@ 0x55
        MODIFY_REG(hcryp->Instance->CR, AES_CR_GCMPH, CRYP_HEADER_PHASE);
 800403a:	e625      	b.n	8003c88 <HAL_CRYPEx_AES_Auth+0x268>
  return (op1 >> op2) | (op1 << (32U - op2));
 800403c:	ea4f 4131 	mov.w	r1, r1, ror #16
 8004040:	ea4f 4434 	mov.w	r4, r4, ror #16
 8004044:	ea4f 4636 	mov.w	r6, r6, ror #16
 8004048:	ea4f 4232 	mov.w	r2, r2, ror #16
          hcryp->Instance->DINR = __ROR((uint32_t)(headerlength>>32), 16);
 800404c:	6099      	str	r1, [r3, #8]
          hcryp->Instance->DINR = __ROR((uint32_t)headerlength, 16);
 800404e:	609c      	str	r4, [r3, #8]
          hcryp->Instance->DINR = __ROR((uint32_t)(inputlength>>32), 16);
 8004050:	609e      	str	r6, [r3, #8]
          hcryp->Instance->DINR = __ROR((uint32_t)inputlength, 16);
 8004052:	609a      	str	r2, [r3, #8]
 8004054:	e547      	b.n	8003ae6 <HAL_CRYPEx_AES_Auth+0xc6>
        hcryp->pCrypOutBuffPtr =  (uint8_t *)outputaddr;
 8004056:	9b10      	ldr	r3, [sp, #64]	@ 0x40
        hcryp->pCrypInBuffPtr  =  (uint8_t *)inputaddr;
 8004058:	63a9      	str	r1, [r5, #56]	@ 0x38
        hcryp->pCrypOutBuffPtr =  (uint8_t *)outputaddr;
 800405a:	63eb      	str	r3, [r5, #60]	@ 0x3c
        CRYP_Padding(hcryp, difflength, CRYP_POLLING_ON);
 800405c:	9903      	ldr	r1, [sp, #12]
 800405e:	2201      	movs	r2, #1
 8004060:	4628      	mov	r0, r5
 8004062:	f7ff fba1 	bl	80037a8 <CRYP_Padding>
 8004066:	e5e5      	b.n	8003c34 <HAL_CRYPEx_AES_Auth+0x214>

08004068 <HAL_DMA_Init>:
HAL_StatusTypeDef HAL_DMA_Init(DMA_HandleTypeDef *hdma)
{
  uint32_t tmp;

  /* Check the DMA handle allocation */
  if (hdma == NULL)
 8004068:	2800      	cmp	r0, #0
 800406a:	d050      	beq.n	800410e <HAL_DMA_Init+0xa6>
{
 800406c:	b4f0      	push	{r4, r5, r6, r7}
  assert_param(IS_DMA_PRIORITY(hdma->Init.Priority));

  assert_param(IS_DMA_ALL_REQUEST(hdma->Init.Request));

  /* Compute the channel index */
  if ((uint32_t)(hdma->Instance) < (uint32_t)(DMA2_Channel1))
 800406e:	4a2e      	ldr	r2, [pc, #184]	@ (8004128 <HAL_DMA_Init+0xc0>)
 8004070:	6804      	ldr	r4, [r0, #0]
 8004072:	4294      	cmp	r4, r2
 8004074:	4603      	mov	r3, r0
 8004076:	d941      	bls.n	80040fc <HAL_DMA_Init+0x94>
    hdma->DmaBaseAddress = DMA1;
  }
  else
  {
    /* DMA2 */
    hdma->ChannelIndex = (((uint32_t)hdma->Instance - (uint32_t)DMA2_Channel1) / ((uint32_t)DMA2_Channel2 - (uint32_t)DMA2_Channel1)) << 2U;
 8004078:	492c      	ldr	r1, [pc, #176]	@ (800412c <HAL_DMA_Init+0xc4>)
 800407a:	4a2d      	ldr	r2, [pc, #180]	@ (8004130 <HAL_DMA_Init+0xc8>)
    hdma->DmaBaseAddress = DMA2;
 800407c:	4d2d      	ldr	r5, [pc, #180]	@ (8004134 <HAL_DMA_Init+0xcc>)
    hdma->ChannelIndex = (((uint32_t)hdma->Instance - (uint32_t)DMA2_Channel1) / ((uint32_t)DMA2_Channel2 - (uint32_t)DMA2_Channel1)) << 2U;
 800407e:	4421      	add	r1, r4
 8004080:	fba2 2101 	umull	r2, r1, r2, r1
 8004084:	0909      	lsrs	r1, r1, #4
 8004086:	0089      	lsls	r1, r1, #2
  }

  /* Change DMA peripheral state */
  hdma->State = HAL_DMA_STATE_BUSY;
 8004088:	2202      	movs	r2, #2
 800408a:	f883 2025 	strb.w	r2, [r3, #37]	@ 0x25
  tmp &= ((uint32_t)~(DMA_CCR_PL    | DMA_CCR_MSIZE  | DMA_CCR_PSIZE  |
                      DMA_CCR_MINC  | DMA_CCR_PINC   | DMA_CCR_CIRC   |
                      DMA_CCR_DIR   | DMA_CCR_MEM2MEM));

  /* Prepare the DMA Channel configuration */
  tmp |=  hdma->Init.Direction        |
 800408e:	e9d3 6202 	ldrd	r6, r2, [r3, #8]
          hdma->Init.PeriphInc           | hdma->Init.MemInc           |
 8004092:	691f      	ldr	r7, [r3, #16]
  tmp = hdma->Instance->CCR;
 8004094:	6820      	ldr	r0, [r4, #0]
 8004096:	641d      	str	r5, [r3, #64]	@ 0x40
  tmp |=  hdma->Init.Direction        |
 8004098:	4332      	orrs	r2, r6
          hdma->Init.PeriphInc           | hdma->Init.MemInc           |
 800409a:	433a      	orrs	r2, r7
 800409c:	695f      	ldr	r7, [r3, #20]
 800409e:	6459      	str	r1, [r3, #68]	@ 0x44
 80040a0:	433a      	orrs	r2, r7
          hdma->Init.PeriphDataAlignment | hdma->Init.MemDataAlignment |
 80040a2:	699f      	ldr	r7, [r3, #24]
 80040a4:	433a      	orrs	r2, r7
 80040a6:	69df      	ldr	r7, [r3, #28]
 80040a8:	433a      	orrs	r2, r7
          hdma->Init.Mode                | hdma->Init.Priority;
 80040aa:	6a1f      	ldr	r7, [r3, #32]
  tmp &= ((uint32_t)~(DMA_CCR_PL    | DMA_CCR_MSIZE  | DMA_CCR_PSIZE  |
 80040ac:	f420 40ff 	bic.w	r0, r0, #32640	@ 0x7f80
 80040b0:	f020 0070 	bic.w	r0, r0, #112	@ 0x70
          hdma->Init.Mode                | hdma->Init.Priority;
 80040b4:	433a      	orrs	r2, r7
  tmp |=  hdma->Init.Direction        |
 80040b6:	4302      	orrs	r2, r0
#endif /* DMAMUX1 */

#if !defined (DMAMUX1)

  /* Set request selection */
  if (hdma->Init.Direction != DMA_MEMORY_TO_MEMORY)
 80040b8:	f5b6 4f80 	cmp.w	r6, #16384	@ 0x4000
  hdma->Instance->CCR = tmp;
 80040bc:	6022      	str	r2, [r4, #0]
  if (hdma->Init.Direction != DMA_MEMORY_TO_MEMORY)
 80040be:	d014      	beq.n	80040ea <HAL_DMA_Init+0x82>
    {
      /* Reset request selection for DMA1 Channelx */
      DMA1_CSELR->CSELR &= ~(DMA_CSELR_C1S << (hdma->ChannelIndex & 0x1cU));

      /* Configure request selection for DMA1 Channelx */
      DMA1_CSELR->CSELR |= (uint32_t)(hdma->Init.Request << (hdma->ChannelIndex & 0x1cU));
 80040c0:	6858      	ldr	r0, [r3, #4]
      DMA1_CSELR->CSELR &= ~(DMA_CSELR_C1S << (hdma->ChannelIndex & 0x1cU));
 80040c2:	f001 011c 	and.w	r1, r1, #28
 80040c6:	220f      	movs	r2, #15
 80040c8:	408a      	lsls	r2, r1
      DMA1_CSELR->CSELR |= (uint32_t)(hdma->Init.Request << (hdma->ChannelIndex & 0x1cU));
 80040ca:	4088      	lsls	r0, r1
    if (DMA1 == hdma->DmaBaseAddress)
 80040cc:	491a      	ldr	r1, [pc, #104]	@ (8004138 <HAL_DMA_Init+0xd0>)
 80040ce:	428d      	cmp	r5, r1
      DMA1_CSELR->CSELR &= ~(DMA_CSELR_C1S << (hdma->ChannelIndex & 0x1cU));
 80040d0:	ea6f 0202 	mvn.w	r2, r2
    if (DMA1 == hdma->DmaBaseAddress)
 80040d4:	d01d      	beq.n	8004112 <HAL_DMA_Init+0xaa>
    }
    else /* DMA2 */
    {
      /* Reset request selection for DMA2 Channelx */
      DMA2_CSELR->CSELR &= ~(DMA_CSELR_C1S << (hdma->ChannelIndex & 0x1cU));
 80040d6:	f8d1 44a8 	ldr.w	r4, [r1, #1192]	@ 0x4a8
 80040da:	4022      	ands	r2, r4
 80040dc:	f8c1 24a8 	str.w	r2, [r1, #1192]	@ 0x4a8

      /* Configure request selection for DMA2 Channelx */
      DMA2_CSELR->CSELR |= (uint32_t)(hdma->Init.Request << (hdma->ChannelIndex & 0x1cU));
 80040e0:	f8d1 24a8 	ldr.w	r2, [r1, #1192]	@ 0x4a8
 80040e4:	4302      	orrs	r2, r0
 80040e6:	f8c1 24a8 	str.w	r2, [r1, #1192]	@ 0x4a8
#endif /* STM32L431xx || STM32L432xx || STM32L433xx || STM32L442xx || STM32L443xx */
  /* STM32L471xx || STM32L475xx || STM32L476xx || STM32L442xx || STM32L486xx */
  /* STM32L496xx || STM32L4A6xx                                              */

  /* Initialise the error code */
  hdma->ErrorCode = HAL_DMA_ERROR_NONE;
 80040ea:	2000      	movs	r0, #0

  /* Initialize the DMA state*/
  hdma->State = HAL_DMA_STATE_READY;
 80040ec:	2201      	movs	r2, #1
  hdma->ErrorCode = HAL_DMA_ERROR_NONE;
 80040ee:	63d8      	str	r0, [r3, #60]	@ 0x3c

  /* Allocate lock resource and initialize it */
  hdma->Lock = HAL_UNLOCKED;
 80040f0:	f883 0024 	strb.w	r0, [r3, #36]	@ 0x24
  hdma->State = HAL_DMA_STATE_READY;
 80040f4:	f883 2025 	strb.w	r2, [r3, #37]	@ 0x25

  return HAL_OK;
}
 80040f8:	bcf0      	pop	{r4, r5, r6, r7}
 80040fa:	4770      	bx	lr
    hdma->ChannelIndex = (((uint32_t)hdma->Instance - (uint32_t)DMA1_Channel1) / ((uint32_t)DMA1_Channel2 - (uint32_t)DMA1_Channel1)) << 2U;
 80040fc:	490f      	ldr	r1, [pc, #60]	@ (800413c <HAL_DMA_Init+0xd4>)
 80040fe:	4a0c      	ldr	r2, [pc, #48]	@ (8004130 <HAL_DMA_Init+0xc8>)
    hdma->DmaBaseAddress = DMA1;
 8004100:	4d0d      	ldr	r5, [pc, #52]	@ (8004138 <HAL_DMA_Init+0xd0>)
    hdma->ChannelIndex = (((uint32_t)hdma->Instance - (uint32_t)DMA1_Channel1) / ((uint32_t)DMA1_Channel2 - (uint32_t)DMA1_Channel1)) << 2U;
 8004102:	4421      	add	r1, r4
 8004104:	fba2 2101 	umull	r2, r1, r2, r1
 8004108:	0909      	lsrs	r1, r1, #4
 800410a:	0089      	lsls	r1, r1, #2
    hdma->DmaBaseAddress = DMA1;
 800410c:	e7bc      	b.n	8004088 <HAL_DMA_Init+0x20>
    return HAL_ERROR;
 800410e:	2001      	movs	r0, #1
}
 8004110:	4770      	bx	lr
      DMA1_CSELR->CSELR &= ~(DMA_CSELR_C1S << (hdma->ChannelIndex & 0x1cU));
 8004112:	f8d5 10a8 	ldr.w	r1, [r5, #168]	@ 0xa8
 8004116:	400a      	ands	r2, r1
 8004118:	f8c5 20a8 	str.w	r2, [r5, #168]	@ 0xa8
      DMA1_CSELR->CSELR |= (uint32_t)(hdma->Init.Request << (hdma->ChannelIndex & 0x1cU));
 800411c:	f8d5 20a8 	ldr.w	r2, [r5, #168]	@ 0xa8
 8004120:	4302      	orrs	r2, r0
 8004122:	f8c5 20a8 	str.w	r2, [r5, #168]	@ 0xa8
 8004126:	e7e0      	b.n	80040ea <HAL_DMA_Init+0x82>
 8004128:	40020407 	.word	0x40020407
 800412c:	bffdfbf8 	.word	0xbffdfbf8
 8004130:	cccccccd 	.word	0xcccccccd
 8004134:	40020400 	.word	0x40020400
 8004138:	40020000 	.word	0x40020000
 800413c:	bffdfff8 	.word	0xbffdfff8

08004140 <HAL_DMA_Start_IT>:
  * @param  DstAddress The destination memory Buffer address
  * @param  DataLength The length of data to be transferred from source to destination
  * @retval HAL status
  */
HAL_StatusTypeDef HAL_DMA_Start_IT(DMA_HandleTypeDef *hdma, uint32_t SrcAddress, uint32_t DstAddress, uint32_t DataLength)
{
 8004140:	b470      	push	{r4, r5, r6}

  /* Check the parameters */
  assert_param(IS_DMA_BUFFER_SIZE(DataLength));

  /* Process locked */
  __HAL_LOCK(hdma);
 8004142:	f890 4024 	ldrb.w	r4, [r0, #36]	@ 0x24
 8004146:	2c01      	cmp	r4, #1
 8004148:	d00b      	beq.n	8004162 <HAL_DMA_Start_IT+0x22>
 800414a:	2401      	movs	r4, #1
 800414c:	f880 4024 	strb.w	r4, [r0, #36]	@ 0x24

  if (HAL_DMA_STATE_READY == hdma->State)
 8004150:	f890 4025 	ldrb.w	r4, [r0, #37]	@ 0x25
 8004154:	2c01      	cmp	r4, #1
 8004156:	fa5f fc84 	uxtb.w	ip, r4
 800415a:	d005      	beq.n	8004168 <HAL_DMA_Start_IT+0x28>
    __HAL_DMA_ENABLE(hdma);
  }
  else
  {
    /* Process Unlocked */
    __HAL_UNLOCK(hdma);
 800415c:	2300      	movs	r3, #0
 800415e:	f880 3024 	strb.w	r3, [r0, #36]	@ 0x24
  __HAL_LOCK(hdma);
 8004162:	2002      	movs	r0, #2

    /* Remain BUSY */
    status = HAL_BUSY;
  }
  return status;
}
 8004164:	bc70      	pop	{r4, r5, r6}
 8004166:	4770      	bx	lr
    hdma->State = HAL_DMA_STATE_BUSY;
 8004168:	2502      	movs	r5, #2
 800416a:	f880 5025 	strb.w	r5, [r0, #37]	@ 0x25
    __HAL_DMA_DISABLE(hdma);
 800416e:	6804      	ldr	r4, [r0, #0]
    hdma->ErrorCode = HAL_DMA_ERROR_NONE;
 8004170:	2500      	movs	r5, #0
 8004172:	63c5      	str	r5, [r0, #60]	@ 0x3c
    __HAL_DMA_DISABLE(hdma);
 8004174:	6826      	ldr	r6, [r4, #0]
    hdma->DMAmuxRequestGenStatus->RGCFR = hdma->DMAmuxRequestGenStatusMask;
  }
#endif

  /* Clear all flags */
  hdma->DmaBaseAddress->IFCR = (DMA_ISR_GIF1 << (hdma->ChannelIndex & 0x1CU));
 8004176:	6c45      	ldr	r5, [r0, #68]	@ 0x44
    __HAL_DMA_DISABLE(hdma);
 8004178:	f026 0601 	bic.w	r6, r6, #1
 800417c:	6026      	str	r6, [r4, #0]
  hdma->DmaBaseAddress->IFCR = (DMA_ISR_GIF1 << (hdma->ChannelIndex & 0x1CU));
 800417e:	f005 051c 	and.w	r5, r5, #28
 8004182:	6c06      	ldr	r6, [r0, #64]	@ 0x40
 8004184:	fa0c f505 	lsl.w	r5, ip, r5
 8004188:	6075      	str	r5, [r6, #4]

  /* Configure DMA Channel data length */
  hdma->Instance->CNDTR = DataLength;
 800418a:	6063      	str	r3, [r4, #4]

  /* Memory to Peripheral */
  if ((hdma->Init.Direction) == DMA_MEMORY_TO_PERIPH)
 800418c:	6883      	ldr	r3, [r0, #8]
 800418e:	2b10      	cmp	r3, #16
    if (NULL != hdma->XferHalfCpltCallback)
 8004190:	6b03      	ldr	r3, [r0, #48]	@ 0x30
  {
    /* Configure DMA Channel destination address */
    hdma->Instance->CPAR = DstAddress;
 8004192:	bf0b      	itete	eq
 8004194:	60a2      	streq	r2, [r4, #8]
  }
  /* Peripheral to Memory */
  else
  {
    /* Configure DMA Channel source address */
    hdma->Instance->CPAR = SrcAddress;
 8004196:	60a1      	strne	r1, [r4, #8]
    hdma->Instance->CMAR = SrcAddress;
 8004198:	60e1      	streq	r1, [r4, #12]

    /* Configure DMA Channel destination address */
    hdma->Instance->CMAR = DstAddress;
 800419a:	60e2      	strne	r2, [r4, #12]
    if (NULL != hdma->XferHalfCpltCallback)
 800419c:	b153      	cbz	r3, 80041b4 <HAL_DMA_Start_IT+0x74>
      __HAL_DMA_ENABLE_IT(hdma, (DMA_IT_TC | DMA_IT_HT | DMA_IT_TE));
 800419e:	6823      	ldr	r3, [r4, #0]
 80041a0:	f043 030e 	orr.w	r3, r3, #14
 80041a4:	6023      	str	r3, [r4, #0]
    __HAL_DMA_ENABLE(hdma);
 80041a6:	6823      	ldr	r3, [r4, #0]
 80041a8:	f043 0301 	orr.w	r3, r3, #1
  HAL_StatusTypeDef status = HAL_OK;
 80041ac:	2000      	movs	r0, #0
    __HAL_DMA_ENABLE(hdma);
 80041ae:	6023      	str	r3, [r4, #0]
}
 80041b0:	bc70      	pop	{r4, r5, r6}
 80041b2:	4770      	bx	lr
      __HAL_DMA_DISABLE_IT(hdma, DMA_IT_HT);
 80041b4:	6823      	ldr	r3, [r4, #0]
 80041b6:	f023 0304 	bic.w	r3, r3, #4
 80041ba:	6023      	str	r3, [r4, #0]
      __HAL_DMA_ENABLE_IT(hdma, (DMA_IT_TC | DMA_IT_TE));
 80041bc:	6823      	ldr	r3, [r4, #0]
 80041be:	f043 030a 	orr.w	r3, r3, #10
 80041c2:	6023      	str	r3, [r4, #0]
 80041c4:	e7ef      	b.n	80041a6 <HAL_DMA_Start_IT+0x66>
 80041c6:	bf00      	nop

080041c8 <HAL_DMA_Abort>:
  if (hdma->State != HAL_DMA_STATE_BUSY)
 80041c8:	f890 2025 	ldrb.w	r2, [r0, #37]	@ 0x25
 80041cc:	2a02      	cmp	r2, #2
{
 80041ce:	4603      	mov	r3, r0
  if (hdma->State != HAL_DMA_STATE_BUSY)
 80041d0:	d006      	beq.n	80041e0 <HAL_DMA_Abort+0x18>
    hdma->ErrorCode = HAL_DMA_ERROR_NO_XFER;
 80041d2:	2204      	movs	r2, #4
 80041d4:	63c2      	str	r2, [r0, #60]	@ 0x3c
    __HAL_UNLOCK(hdma);
 80041d6:	2200      	movs	r2, #0
    return HAL_ERROR;
 80041d8:	2001      	movs	r0, #1
    __HAL_UNLOCK(hdma);
 80041da:	f883 2024 	strb.w	r2, [r3, #36]	@ 0x24
}
 80041de:	4770      	bx	lr
    __HAL_DMA_DISABLE_IT(hdma, (DMA_IT_TC | DMA_IT_HT | DMA_IT_TE));
 80041e0:	6801      	ldr	r1, [r0, #0]
    hdma->DmaBaseAddress->IFCR = (DMA_ISR_GIF1 << (hdma->ChannelIndex & 0x1CU));
 80041e2:	6c42      	ldr	r2, [r0, #68]	@ 0x44
    __HAL_DMA_DISABLE_IT(hdma, (DMA_IT_TC | DMA_IT_HT | DMA_IT_TE));
 80041e4:	6808      	ldr	r0, [r1, #0]
 80041e6:	f020 000e 	bic.w	r0, r0, #14
 80041ea:	6008      	str	r0, [r1, #0]
    __HAL_DMA_DISABLE(hdma);
 80041ec:	6808      	ldr	r0, [r1, #0]
 80041ee:	f020 0001 	bic.w	r0, r0, #1
 80041f2:	6008      	str	r0, [r1, #0]
    hdma->DmaBaseAddress->IFCR = (DMA_ISR_GIF1 << (hdma->ChannelIndex & 0x1CU));
 80041f4:	f04f 0c01 	mov.w	ip, #1
 80041f8:	6c19      	ldr	r1, [r3, #64]	@ 0x40
 80041fa:	f002 021c 	and.w	r2, r2, #28
 80041fe:	fa0c f202 	lsl.w	r2, ip, r2
 8004202:	604a      	str	r2, [r1, #4]
    __HAL_UNLOCK(hdma);
 8004204:	2200      	movs	r2, #0
    return status;
 8004206:	2000      	movs	r0, #0
    hdma->State = HAL_DMA_STATE_READY;
 8004208:	f883 c025 	strb.w	ip, [r3, #37]	@ 0x25
    __HAL_UNLOCK(hdma);
 800420c:	f883 2024 	strb.w	r2, [r3, #36]	@ 0x24
}
 8004210:	4770      	bx	lr
 8004212:	bf00      	nop

08004214 <HAL_DMA_IRQHandler>:
{
 8004214:	b470      	push	{r4, r5, r6}
  if (((flag_it & (DMA_FLAG_HT1 << (hdma->ChannelIndex & 0x1CU))) != 0U) && ((source_it & DMA_IT_HT) != 0U))
 8004216:	6c43      	ldr	r3, [r0, #68]	@ 0x44
  uint32_t flag_it = hdma->DmaBaseAddress->ISR;
 8004218:	6c06      	ldr	r6, [r0, #64]	@ 0x40
  uint32_t source_it = hdma->Instance->CCR;
 800421a:	6805      	ldr	r5, [r0, #0]
  uint32_t flag_it = hdma->DmaBaseAddress->ISR;
 800421c:	6831      	ldr	r1, [r6, #0]
  uint32_t source_it = hdma->Instance->CCR;
 800421e:	682c      	ldr	r4, [r5, #0]
  if (((flag_it & (DMA_FLAG_HT1 << (hdma->ChannelIndex & 0x1CU))) != 0U) && ((source_it & DMA_IT_HT) != 0U))
 8004220:	f003 031c 	and.w	r3, r3, #28
 8004224:	2204      	movs	r2, #4
 8004226:	409a      	lsls	r2, r3
 8004228:	420a      	tst	r2, r1
 800422a:	d00e      	beq.n	800424a <HAL_DMA_IRQHandler+0x36>
 800422c:	f014 0f04 	tst.w	r4, #4
 8004230:	d00b      	beq.n	800424a <HAL_DMA_IRQHandler+0x36>
    if ((hdma->Instance->CCR & DMA_CCR_CIRC) == 0U)
 8004232:	682b      	ldr	r3, [r5, #0]
 8004234:	069b      	lsls	r3, r3, #26
 8004236:	d403      	bmi.n	8004240 <HAL_DMA_IRQHandler+0x2c>
      __HAL_DMA_DISABLE_IT(hdma, DMA_IT_HT);
 8004238:	682b      	ldr	r3, [r5, #0]
 800423a:	f023 0304 	bic.w	r3, r3, #4
 800423e:	602b      	str	r3, [r5, #0]
    if (hdma->XferHalfCpltCallback != NULL)
 8004240:	6b03      	ldr	r3, [r0, #48]	@ 0x30
    hdma->DmaBaseAddress->IFCR = DMA_ISR_HTIF1 << (hdma->ChannelIndex & 0x1CU);
 8004242:	6072      	str	r2, [r6, #4]
    if (hdma->XferHalfCpltCallback != NULL)
 8004244:	b1cb      	cbz	r3, 800427a <HAL_DMA_IRQHandler+0x66>
}
 8004246:	bc70      	pop	{r4, r5, r6}
      hdma->XferCpltCallback(hdma);
 8004248:	4718      	bx	r3
  else if (((flag_it & (DMA_FLAG_TC1 << (hdma->ChannelIndex & 0x1CU))) != 0U) && ((source_it & DMA_IT_TC) != 0U))
 800424a:	2202      	movs	r2, #2
 800424c:	409a      	lsls	r2, r3
 800424e:	420a      	tst	r2, r1
 8004250:	d015      	beq.n	800427e <HAL_DMA_IRQHandler+0x6a>
 8004252:	f014 0f02 	tst.w	r4, #2
 8004256:	d012      	beq.n	800427e <HAL_DMA_IRQHandler+0x6a>
    if ((hdma->Instance->CCR & DMA_CCR_CIRC) == 0U)
 8004258:	682b      	ldr	r3, [r5, #0]
 800425a:	0699      	lsls	r1, r3, #26
 800425c:	d406      	bmi.n	800426c <HAL_DMA_IRQHandler+0x58>
      __HAL_DMA_DISABLE_IT(hdma, DMA_IT_TE | DMA_IT_TC);
 800425e:	682b      	ldr	r3, [r5, #0]
 8004260:	f023 030a 	bic.w	r3, r3, #10
 8004264:	602b      	str	r3, [r5, #0]
      hdma->State = HAL_DMA_STATE_READY;
 8004266:	2301      	movs	r3, #1
 8004268:	f880 3025 	strb.w	r3, [r0, #37]	@ 0x25
    if (hdma->XferCpltCallback != NULL)
 800426c:	6ac3      	ldr	r3, [r0, #44]	@ 0x2c
    hdma->DmaBaseAddress->IFCR = (DMA_ISR_TCIF1 << (hdma->ChannelIndex & 0x1CU));
 800426e:	6072      	str	r2, [r6, #4]
    __HAL_UNLOCK(hdma);
 8004270:	2100      	movs	r1, #0
 8004272:	f880 1024 	strb.w	r1, [r0, #36]	@ 0x24
    if (hdma->XferCpltCallback != NULL)
 8004276:	2b00      	cmp	r3, #0
 8004278:	d1e5      	bne.n	8004246 <HAL_DMA_IRQHandler+0x32>
}
 800427a:	bc70      	pop	{r4, r5, r6}
 800427c:	4770      	bx	lr
  else if (((flag_it & (DMA_FLAG_TE1 << (hdma->ChannelIndex & 0x1CU))) != 0U) && ((source_it & DMA_IT_TE) !=  0U))
 800427e:	2208      	movs	r2, #8
 8004280:	409a      	lsls	r2, r3
 8004282:	420a      	tst	r2, r1
 8004284:	d0f9      	beq.n	800427a <HAL_DMA_IRQHandler+0x66>
 8004286:	0722      	lsls	r2, r4, #28
 8004288:	d5f7      	bpl.n	800427a <HAL_DMA_IRQHandler+0x66>
    __HAL_DMA_DISABLE_IT(hdma, (DMA_IT_TC | DMA_IT_HT | DMA_IT_TE));
 800428a:	682a      	ldr	r2, [r5, #0]
    if (hdma->XferErrorCallback != NULL)
 800428c:	6b41      	ldr	r1, [r0, #52]	@ 0x34
    __HAL_DMA_DISABLE_IT(hdma, (DMA_IT_TC | DMA_IT_HT | DMA_IT_TE));
 800428e:	f022 020e 	bic.w	r2, r2, #14
 8004292:	602a      	str	r2, [r5, #0]
    hdma->DmaBaseAddress->IFCR = (DMA_ISR_GIF1 << (hdma->ChannelIndex & 0x1CU));
 8004294:	2201      	movs	r2, #1
 8004296:	fa02 f303 	lsl.w	r3, r2, r3
    __HAL_UNLOCK(hdma);
 800429a:	2400      	movs	r4, #0
    hdma->DmaBaseAddress->IFCR = (DMA_ISR_GIF1 << (hdma->ChannelIndex & 0x1CU));
 800429c:	6073      	str	r3, [r6, #4]
    hdma->ErrorCode = HAL_DMA_ERROR_TE;
 800429e:	63c2      	str	r2, [r0, #60]	@ 0x3c
    __HAL_UNLOCK(hdma);
 80042a0:	f880 4024 	strb.w	r4, [r0, #36]	@ 0x24
    hdma->State = HAL_DMA_STATE_READY;
 80042a4:	f880 2025 	strb.w	r2, [r0, #37]	@ 0x25
    if (hdma->XferErrorCallback != NULL)
 80042a8:	2900      	cmp	r1, #0
 80042aa:	d0e6      	beq.n	800427a <HAL_DMA_IRQHandler+0x66>
}
 80042ac:	bc70      	pop	{r4, r5, r6}
      hdma->XferErrorCallback(hdma);
 80042ae:	4708      	bx	r1

080042b0 <HAL_GPIO_Init>:
  * @param  GPIO_Init pointer to a GPIO_InitTypeDef structure that contains
  *         the configuration information for the specified GPIO peripheral.
  * @retval None
  */
void HAL_GPIO_Init(GPIO_TypeDef  *GPIOx, GPIO_InitTypeDef *GPIO_Init)
{
 80042b0:	e92d 4ff0 	stmdb	sp!, {r4, r5, r6, r7, r8, r9, sl, fp, lr}
  assert_param(IS_GPIO_ALL_INSTANCE(GPIOx));
  assert_param(IS_GPIO_PIN(GPIO_Init->Pin));
  assert_param(IS_GPIO_MODE(GPIO_Init->Mode));

  /* Configure the port pins */
  while (((GPIO_Init->Pin) >> position) != 0x00u)
 80042b4:	680c      	ldr	r4, [r1, #0]
{
 80042b6:	b085      	sub	sp, #20
  while (((GPIO_Init->Pin) >> position) != 0x00u)
 80042b8:	2c00      	cmp	r4, #0
 80042ba:	f000 8094 	beq.w	80043e6 <HAL_GPIO_Init+0x136>
  uint32_t position = 0x00u;
 80042be:	2300      	movs	r3, #0
  {
    /* Get current io position */
    iocurrent = (GPIO_Init->Pin) & (1uL << position);
 80042c0:	f04f 0b01 	mov.w	fp, #1
 80042c4:	fa0b fe03 	lsl.w	lr, fp, r3

    if (iocurrent != 0x00u)
 80042c8:	ea1e 0a04 	ands.w	sl, lr, r4
 80042cc:	f000 8086 	beq.w	80043dc <HAL_GPIO_Init+0x12c>
    {
      /*--------------------- GPIO Mode Configuration ------------------------*/
      /* In case of Output or Alternate function mode selection */
      if (((GPIO_Init->Mode & GPIO_MODE) == MODE_OUTPUT) || ((GPIO_Init->Mode & GPIO_MODE) == MODE_AF))
 80042d0:	684d      	ldr	r5, [r1, #4]
 80042d2:	f005 0203 	and.w	r2, r5, #3
 80042d6:	ea4f 0c43 	mov.w	ip, r3, lsl #1
        /* Check the Speed parameter */
        assert_param(IS_GPIO_SPEED(GPIO_Init->Speed));

        /* Configure the IO Speed */
        temp = GPIOx->OSPEEDR;
        temp &= ~(GPIO_OSPEEDR_OSPEED0 << (position * 2u));
 80042da:	2603      	movs	r6, #3
      if (((GPIO_Init->Mode & GPIO_MODE) == MODE_OUTPUT) || ((GPIO_Init->Mode & GPIO_MODE) == MODE_AF))
 80042dc:	f102 38ff 	add.w	r8, r2, #4294967295
        temp &= ~(GPIO_OSPEEDR_OSPEED0 << (position * 2u));
 80042e0:	fa06 f70c 	lsl.w	r7, r6, ip
      if (((GPIO_Init->Mode & GPIO_MODE) == MODE_OUTPUT) || ((GPIO_Init->Mode & GPIO_MODE) == MODE_AF))
 80042e4:	f1b8 0f01 	cmp.w	r8, #1
        temp &= ~(GPIO_OSPEEDR_OSPEED0 << (position * 2u));
 80042e8:	ea6f 0707 	mvn.w	r7, r7
      if (((GPIO_Init->Mode & GPIO_MODE) == MODE_OUTPUT) || ((GPIO_Init->Mode & GPIO_MODE) == MODE_AF))
 80042ec:	d97e      	bls.n	80043ec <HAL_GPIO_Init+0x13c>
      }

#endif /* STM32L471xx || STM32L475xx || STM32L476xx || STM32L485xx || STM32L486xx */

      /* Activate the Pull-up or Pull down resistor for the current IO */
      if ((GPIO_Init->Mode & GPIO_MODE) != MODE_ANALOG)
 80042ee:	2a03      	cmp	r2, #3
 80042f0:	f040 80ba 	bne.w	8004468 <HAL_GPIO_Init+0x1b8>
      }

      /* Configure IO Direction mode (Input, Output, Alternate or Analog) */
      temp = GPIOx->MODER;
      temp &= ~(GPIO_MODER_MODE0 << (position * 2u));
      temp |= ((GPIO_Init->Mode & GPIO_MODE) << (position * 2u));
 80042f4:	fa02 f20c 	lsl.w	r2, r2, ip
      temp = GPIOx->MODER;
 80042f8:	f8d0 c000 	ldr.w	ip, [r0]
      temp &= ~(GPIO_MODER_MODE0 << (position * 2u));
 80042fc:	ea0c 0707 	and.w	r7, ip, r7
      temp |= ((GPIO_Init->Mode & GPIO_MODE) << (position * 2u));
 8004300:	433a      	orrs	r2, r7
      GPIOx->MODER = temp;

      /*--------------------- EXTI Mode Configuration ------------------------*/
      /* Configure the External Interrupt or event for the current IO */
      if ((GPIO_Init->Mode & EXTI_MODE) != 0x00u)
 8004302:	f415 3f40 	tst.w	r5, #196608	@ 0x30000
      GPIOx->MODER = temp;
 8004306:	6002      	str	r2, [r0, #0]
      if ((GPIO_Init->Mode & EXTI_MODE) != 0x00u)
 8004308:	d068      	beq.n	80043dc <HAL_GPIO_Init+0x12c>
      {
        /* Enable SYSCFG Clock */
        __HAL_RCC_SYSCFG_CLK_ENABLE();
 800430a:	4f72      	ldr	r7, [pc, #456]	@ (80044d4 <HAL_GPIO_Init+0x224>)
 800430c:	6e3a      	ldr	r2, [r7, #96]	@ 0x60
 800430e:	f042 0201 	orr.w	r2, r2, #1
 8004312:	663a      	str	r2, [r7, #96]	@ 0x60
 8004314:	6e3a      	ldr	r2, [r7, #96]	@ 0x60
 8004316:	f002 0201 	and.w	r2, r2, #1
 800431a:	9203      	str	r2, [sp, #12]
 800431c:	9a03      	ldr	r2, [sp, #12]

        temp = SYSCFG->EXTICR[position >> 2u];
 800431e:	f023 0203 	bic.w	r2, r3, #3
 8004322:	f102 4280 	add.w	r2, r2, #1073741824	@ 0x40000000
 8004326:	f502 3280 	add.w	r2, r2, #65536	@ 0x10000
        temp &= ~(0x0FuL << (4u * (position & 0x03u)));
 800432a:	f003 0c03 	and.w	ip, r3, #3
        temp = SYSCFG->EXTICR[position >> 2u];
 800432e:	6897      	ldr	r7, [r2, #8]
        temp &= ~(0x0FuL << (4u * (position & 0x03u)));
 8004330:	ea4f 0c8c 	mov.w	ip, ip, lsl #2
 8004334:	260f      	movs	r6, #15
 8004336:	fa06 fe0c 	lsl.w	lr, r6, ip
        temp |= (GPIO_GET_INDEX(GPIOx) << (4u * (position & 0x03u)));
 800433a:	f1b0 4f90 	cmp.w	r0, #1207959552	@ 0x48000000
        temp &= ~(0x0FuL << (4u * (position & 0x03u)));
 800433e:	ea27 070e 	bic.w	r7, r7, lr
        temp |= (GPIO_GET_INDEX(GPIOx) << (4u * (position & 0x03u)));
 8004342:	d027      	beq.n	8004394 <HAL_GPIO_Init+0xe4>
 8004344:	4e64      	ldr	r6, [pc, #400]	@ (80044d8 <HAL_GPIO_Init+0x228>)
 8004346:	42b0      	cmp	r0, r6
 8004348:	f000 80a1 	beq.w	800448e <HAL_GPIO_Init+0x1de>
 800434c:	4e63      	ldr	r6, [pc, #396]	@ (80044dc <HAL_GPIO_Init+0x22c>)
 800434e:	42b0      	cmp	r0, r6
 8004350:	f000 80a4 	beq.w	800449c <HAL_GPIO_Init+0x1ec>
 8004354:	f8df e18c 	ldr.w	lr, [pc, #396]	@ 80044e4 <HAL_GPIO_Init+0x234>
 8004358:	4570      	cmp	r0, lr
 800435a:	f000 8091 	beq.w	8004480 <HAL_GPIO_Init+0x1d0>
 800435e:	f8df e188 	ldr.w	lr, [pc, #392]	@ 80044e8 <HAL_GPIO_Init+0x238>
 8004362:	4570      	cmp	r0, lr
 8004364:	f000 80a8 	beq.w	80044b8 <HAL_GPIO_Init+0x208>
 8004368:	f8df e180 	ldr.w	lr, [pc, #384]	@ 80044ec <HAL_GPIO_Init+0x23c>
 800436c:	4570      	cmp	r0, lr
 800436e:	f000 80aa 	beq.w	80044c6 <HAL_GPIO_Init+0x216>
 8004372:	f8df e17c 	ldr.w	lr, [pc, #380]	@ 80044f0 <HAL_GPIO_Init+0x240>
 8004376:	4570      	cmp	r0, lr
 8004378:	f000 8097 	beq.w	80044aa <HAL_GPIO_Init+0x1fa>
 800437c:	f8df e174 	ldr.w	lr, [pc, #372]	@ 80044f4 <HAL_GPIO_Init+0x244>
 8004380:	4570      	cmp	r0, lr
 8004382:	bf0c      	ite	eq
 8004384:	f04f 0e07 	moveq.w	lr, #7
 8004388:	f04f 0e08 	movne.w	lr, #8
 800438c:	fa0e fc0c 	lsl.w	ip, lr, ip
 8004390:	ea47 070c 	orr.w	r7, r7, ip
        SYSCFG->EXTICR[position >> 2u] = temp;
 8004394:	6097      	str	r7, [r2, #8]

        /* Clear Rising Falling edge configuration */
        temp = EXTI->RTSR1;
 8004396:	4a52      	ldr	r2, [pc, #328]	@ (80044e0 <HAL_GPIO_Init+0x230>)
 8004398:	6892      	ldr	r2, [r2, #8]
        temp &= ~(iocurrent);
        if ((GPIO_Init->Mode & TRIGGER_RISING) != 0x00u)
 800439a:	02ee      	lsls	r6, r5, #11
        temp &= ~(iocurrent);
 800439c:	ea6f 070a 	mvn.w	r7, sl
        {
          temp |= iocurrent;
        }
        EXTI->RTSR1 = temp;
 80043a0:	4e4f      	ldr	r6, [pc, #316]	@ (80044e0 <HAL_GPIO_Init+0x230>)
        temp &= ~(iocurrent);
 80043a2:	bf54      	ite	pl
 80043a4:	403a      	andpl	r2, r7
          temp |= iocurrent;
 80043a6:	ea4a 0202 	orrmi.w	r2, sl, r2
        EXTI->RTSR1 = temp;
 80043aa:	60b2      	str	r2, [r6, #8]

        temp = EXTI->FTSR1;
 80043ac:	68f2      	ldr	r2, [r6, #12]
        temp &= ~(iocurrent);
        if ((GPIO_Init->Mode & TRIGGER_FALLING) != 0x00u)
 80043ae:	02ae      	lsls	r6, r5, #10
        {
          temp |= iocurrent;
        }
        EXTI->FTSR1 = temp;
 80043b0:	4e4b      	ldr	r6, [pc, #300]	@ (80044e0 <HAL_GPIO_Init+0x230>)
        temp &= ~(iocurrent);
 80043b2:	bf54      	ite	pl
 80043b4:	403a      	andpl	r2, r7
          temp |= iocurrent;
 80043b6:	ea4a 0202 	orrmi.w	r2, sl, r2
        EXTI->FTSR1 = temp;
 80043ba:	60f2      	str	r2, [r6, #12]

        /* Clear EXTI line configuration */
        temp = EXTI->EMR1;
 80043bc:	6872      	ldr	r2, [r6, #4]
        temp &= ~(iocurrent);
        if ((GPIO_Init->Mode & EXTI_EVT) != 0x00u)
 80043be:	03ae      	lsls	r6, r5, #14
        {
          temp |= iocurrent;
        }
        EXTI->EMR1 = temp;
 80043c0:	4e47      	ldr	r6, [pc, #284]	@ (80044e0 <HAL_GPIO_Init+0x230>)
        temp &= ~(iocurrent);
 80043c2:	bf54      	ite	pl
 80043c4:	403a      	andpl	r2, r7
          temp |= iocurrent;
 80043c6:	ea4a 0202 	orrmi.w	r2, sl, r2
        EXTI->EMR1 = temp;
 80043ca:	6072      	str	r2, [r6, #4]

        temp = EXTI->IMR1;
 80043cc:	6832      	ldr	r2, [r6, #0]
        temp &= ~(iocurrent);
        if ((GPIO_Init->Mode & EXTI_IT) != 0x00u)
 80043ce:	03ed      	lsls	r5, r5, #15
        {
          temp |= iocurrent;
        }
        EXTI->IMR1 = temp;
 80043d0:	4d43      	ldr	r5, [pc, #268]	@ (80044e0 <HAL_GPIO_Init+0x230>)
        temp &= ~(iocurrent);
 80043d2:	bf54      	ite	pl
 80043d4:	403a      	andpl	r2, r7
          temp |= iocurrent;
 80043d6:	ea4a 0202 	orrmi.w	r2, sl, r2
        EXTI->IMR1 = temp;
 80043da:	602a      	str	r2, [r5, #0]
      }
    }

    position++;
 80043dc:	3301      	adds	r3, #1
  while (((GPIO_Init->Pin) >> position) != 0x00u)
 80043de:	fa34 f203 	lsrs.w	r2, r4, r3
 80043e2:	f47f af6f 	bne.w	80042c4 <HAL_GPIO_Init+0x14>
  }
}
 80043e6:	b005      	add	sp, #20
 80043e8:	e8bd 8ff0 	ldmia.w	sp!, {r4, r5, r6, r7, r8, r9, sl, fp, pc}
        temp = GPIOx->OSPEEDR;
 80043ec:	f8d0 9008 	ldr.w	r9, [r0, #8]
        temp |= (GPIO_Init->Speed << (position * 2u));
 80043f0:	68ce      	ldr	r6, [r1, #12]
        temp &= ~(GPIO_OSPEEDR_OSPEED0 << (position * 2u));
 80043f2:	ea09 0907 	and.w	r9, r9, r7
        temp |= (GPIO_Init->Speed << (position * 2u));
 80043f6:	fa06 f80c 	lsl.w	r8, r6, ip
 80043fa:	ea48 0809 	orr.w	r8, r8, r9
        GPIOx->OSPEEDR = temp;
 80043fe:	f8c0 8008 	str.w	r8, [r0, #8]
        temp = GPIOx->OTYPER;
 8004402:	f8d0 8004 	ldr.w	r8, [r0, #4]
        temp |= ((GPIO_Init->Pull) << (position * 2U));
 8004406:	688e      	ldr	r6, [r1, #8]
        temp &= ~(GPIO_OTYPER_OT0 << position) ;
 8004408:	ea28 080e 	bic.w	r8, r8, lr
        temp |= (((GPIO_Init->Mode & OUTPUT_TYPE) >> OUTPUT_TYPE_Pos) << position);
 800440c:	f3c5 1e00 	ubfx	lr, r5, #4, #1
 8004410:	fa0e fe03 	lsl.w	lr, lr, r3
 8004414:	ea4e 0e08 	orr.w	lr, lr, r8
        GPIOx->OTYPER = temp;
 8004418:	f8c0 e004 	str.w	lr, [r0, #4]
        temp = GPIOx->PUPDR;
 800441c:	f8d0 800c 	ldr.w	r8, [r0, #12]
        temp |= ((GPIO_Init->Pull) << (position * 2U));
 8004420:	fa06 fe0c 	lsl.w	lr, r6, ip
        temp &= ~(GPIO_PUPDR_PUPD0 << (position * 2U));
 8004424:	ea08 0807 	and.w	r8, r8, r7
        temp |= ((GPIO_Init->Pull) << (position * 2U));
 8004428:	ea4e 0e08 	orr.w	lr, lr, r8
      if ((GPIO_Init->Mode & GPIO_MODE) == MODE_AF)
 800442c:	2a02      	cmp	r2, #2
        GPIOx->PUPDR = temp;
 800442e:	f8c0 e00c 	str.w	lr, [r0, #12]
      if ((GPIO_Init->Mode & GPIO_MODE) == MODE_AF)
 8004432:	f47f af5f 	bne.w	80042f4 <HAL_GPIO_Init+0x44>
        temp |= ((GPIO_Init->Alternate) << ((position & 0x07u) * 4u));
 8004436:	690e      	ldr	r6, [r1, #16]
        temp = GPIOx->AFR[position >> 3u];
 8004438:	ea4f 08d3 	mov.w	r8, r3, lsr #3
        temp &= ~(0xFu << ((position & 0x07u) * 4u));
 800443c:	f003 0e07 	and.w	lr, r3, #7
 8004440:	eb00 0888 	add.w	r8, r0, r8, lsl #2
 8004444:	ea4f 0e8e 	mov.w	lr, lr, lsl #2
        temp |= ((GPIO_Init->Alternate) << ((position & 0x07u) * 4u));
 8004448:	fa06 f60e 	lsl.w	r6, r6, lr
        temp = GPIOx->AFR[position >> 3u];
 800444c:	f8d8 9020 	ldr.w	r9, [r8, #32]
        temp |= ((GPIO_Init->Alternate) << ((position & 0x07u) * 4u));
 8004450:	9601      	str	r6, [sp, #4]
        temp &= ~(0xFu << ((position & 0x07u) * 4u));
 8004452:	260f      	movs	r6, #15
 8004454:	fa06 fe0e 	lsl.w	lr, r6, lr
        temp |= ((GPIO_Init->Alternate) << ((position & 0x07u) * 4u));
 8004458:	9e01      	ldr	r6, [sp, #4]
        temp &= ~(0xFu << ((position & 0x07u) * 4u));
 800445a:	ea29 090e 	bic.w	r9, r9, lr
        temp |= ((GPIO_Init->Alternate) << ((position & 0x07u) * 4u));
 800445e:	ea46 0e09 	orr.w	lr, r6, r9
        GPIOx->AFR[position >> 3u] = temp;
 8004462:	f8c8 e020 	str.w	lr, [r8, #32]
 8004466:	e745      	b.n	80042f4 <HAL_GPIO_Init+0x44>
        temp = GPIOx->PUPDR;
 8004468:	f8d0 800c 	ldr.w	r8, [r0, #12]
        temp |= ((GPIO_Init->Pull) << (position * 2U));
 800446c:	688e      	ldr	r6, [r1, #8]
        temp &= ~(GPIO_PUPDR_PUPD0 << (position * 2U));
 800446e:	ea08 0807 	and.w	r8, r8, r7
        temp |= ((GPIO_Init->Pull) << (position * 2U));
 8004472:	fa06 fe0c 	lsl.w	lr, r6, ip
 8004476:	ea4e 0e08 	orr.w	lr, lr, r8
        GPIOx->PUPDR = temp;
 800447a:	f8c0 e00c 	str.w	lr, [r0, #12]
      if ((GPIO_Init->Mode & GPIO_MODE) == MODE_AF)
 800447e:	e739      	b.n	80042f4 <HAL_GPIO_Init+0x44>
        temp |= (GPIO_GET_INDEX(GPIOx) << (4u * (position & 0x03u)));
 8004480:	f04f 0e03 	mov.w	lr, #3
 8004484:	fa0e fc0c 	lsl.w	ip, lr, ip
 8004488:	ea47 070c 	orr.w	r7, r7, ip
 800448c:	e782      	b.n	8004394 <HAL_GPIO_Init+0xe4>
 800448e:	f04f 0e01 	mov.w	lr, #1
 8004492:	fa0e fc0c 	lsl.w	ip, lr, ip
 8004496:	ea47 070c 	orr.w	r7, r7, ip
 800449a:	e77b      	b.n	8004394 <HAL_GPIO_Init+0xe4>
 800449c:	f04f 0e02 	mov.w	lr, #2
 80044a0:	fa0e fc0c 	lsl.w	ip, lr, ip
 80044a4:	ea47 070c 	orr.w	r7, r7, ip
 80044a8:	e774      	b.n	8004394 <HAL_GPIO_Init+0xe4>
 80044aa:	f04f 0e06 	mov.w	lr, #6
 80044ae:	fa0e fc0c 	lsl.w	ip, lr, ip
 80044b2:	ea47 070c 	orr.w	r7, r7, ip
 80044b6:	e76d      	b.n	8004394 <HAL_GPIO_Init+0xe4>
 80044b8:	f04f 0e04 	mov.w	lr, #4
 80044bc:	fa0e fc0c 	lsl.w	ip, lr, ip
 80044c0:	ea47 070c 	orr.w	r7, r7, ip
 80044c4:	e766      	b.n	8004394 <HAL_GPIO_Init+0xe4>
 80044c6:	f04f 0e05 	mov.w	lr, #5
 80044ca:	fa0e fc0c 	lsl.w	ip, lr, ip
 80044ce:	ea47 070c 	orr.w	r7, r7, ip
 80044d2:	e75f      	b.n	8004394 <HAL_GPIO_Init+0xe4>
 80044d4:	40021000 	.word	0x40021000
 80044d8:	48000400 	.word	0x48000400
 80044dc:	48000800 	.word	0x48000800
 80044e0:	40010400 	.word	0x40010400
 80044e4:	48000c00 	.word	0x48000c00
 80044e8:	48001000 	.word	0x48001000
 80044ec:	48001400 	.word	0x48001400
 80044f0:	48001800 	.word	0x48001800
 80044f4:	48001c00 	.word	0x48001c00

080044f8 <HAL_GPIO_WritePin>:
{
  /* Check the parameters */
  assert_param(IS_GPIO_PIN(GPIO_Pin));
  assert_param(IS_GPIO_PIN_ACTION(PinState));

  if(PinState != GPIO_PIN_RESET)
 80044f8:	b10a      	cbz	r2, 80044fe <HAL_GPIO_WritePin+0x6>
  {
    GPIOx->BSRR = (uint32_t)GPIO_Pin;
 80044fa:	6181      	str	r1, [r0, #24]
 80044fc:	4770      	bx	lr
  }
  else
  {
    GPIOx->BRR = (uint32_t)GPIO_Pin;
 80044fe:	6281      	str	r1, [r0, #40]	@ 0x28
  }
}
 8004500:	4770      	bx	lr
 8004502:	bf00      	nop

08004504 <HAL_GPIO_EXTI_IRQHandler>:
  * @retval None
  */
void HAL_GPIO_EXTI_IRQHandler(uint16_t GPIO_Pin)
{
  /* EXTI line interrupt detected */
  if(__HAL_GPIO_EXTI_GET_IT(GPIO_Pin) != 0x00u)
 8004504:	4a04      	ldr	r2, [pc, #16]	@ (8004518 <HAL_GPIO_EXTI_IRQHandler+0x14>)
 8004506:	6951      	ldr	r1, [r2, #20]
 8004508:	4201      	tst	r1, r0
 800450a:	d100      	bne.n	800450e <HAL_GPIO_EXTI_IRQHandler+0xa>
 800450c:	4770      	bx	lr
{
 800450e:	b508      	push	{r3, lr}
  {
    __HAL_GPIO_EXTI_CLEAR_IT(GPIO_Pin);
 8004510:	6150      	str	r0, [r2, #20]
    HAL_GPIO_EXTI_Callback(GPIO_Pin);
 8004512:	f7fc fc1d 	bl	8000d50 <HAL_GPIO_EXTI_Callback>
  }
}
 8004516:	bd08      	pop	{r3, pc}
 8004518:	40010400 	.word	0x40010400

0800451c <HAL_PWREx_GetVoltageRange>:
    else
    {
      return PWR_REGULATOR_VOLTAGE_SCALE1_BOOST;
    }
#else
  return  (PWR->CR1 & PWR_CR1_VOS);
 800451c:	4b02      	ldr	r3, [pc, #8]	@ (8004528 <HAL_PWREx_GetVoltageRange+0xc>)
 800451e:	6818      	ldr	r0, [r3, #0]
#endif
}
 8004520:	f400 60c0 	and.w	r0, r0, #1536	@ 0x600
 8004524:	4770      	bx	lr
 8004526:	bf00      	nop
 8004528:	40007000 	.word	0x40007000

0800452c <HAL_PWREx_ControlVoltageScaling>:
  }

#else

  /* If Set Range 1 */
  if (VoltageScaling == PWR_REGULATOR_VOLTAGE_SCALE1)
 800452c:	f5b0 7f00 	cmp.w	r0, #512	@ 0x200
 8004530:	d00e      	beq.n	8004550 <HAL_PWREx_ControlVoltageScaling+0x24>
      }
    }
  }
  else
  {
    if (READ_BIT(PWR->CR1, PWR_CR1_VOS) != PWR_REGULATOR_VOLTAGE_SCALE2)
 8004532:	4a1b      	ldr	r2, [pc, #108]	@ (80045a0 <HAL_PWREx_ControlVoltageScaling+0x74>)
 8004534:	6813      	ldr	r3, [r2, #0]
 8004536:	f403 63c0 	and.w	r3, r3, #1536	@ 0x600
 800453a:	f5b3 6f80 	cmp.w	r3, #1024	@ 0x400
 800453e:	d005      	beq.n	800454c <HAL_PWREx_ControlVoltageScaling+0x20>
    {
      /* Set Range 2 */
      MODIFY_REG(PWR->CR1, PWR_CR1_VOS, PWR_REGULATOR_VOLTAGE_SCALE2);
 8004540:	6813      	ldr	r3, [r2, #0]
 8004542:	f423 63c0 	bic.w	r3, r3, #1536	@ 0x600
 8004546:	f443 6380 	orr.w	r3, r3, #1024	@ 0x400
 800454a:	6013      	str	r3, [r2, #0]
      /* No need to wait for VOSF to be cleared for this transition */
    }
  }
#endif

  return HAL_OK;
 800454c:	2000      	movs	r0, #0
 800454e:	4770      	bx	lr
    if (READ_BIT(PWR->CR1, PWR_CR1_VOS) != PWR_REGULATOR_VOLTAGE_SCALE1)
 8004550:	4913      	ldr	r1, [pc, #76]	@ (80045a0 <HAL_PWREx_ControlVoltageScaling+0x74>)
 8004552:	680b      	ldr	r3, [r1, #0]
 8004554:	f403 63c0 	and.w	r3, r3, #1536	@ 0x600
 8004558:	f5b3 7f00 	cmp.w	r3, #512	@ 0x200
 800455c:	d0f6      	beq.n	800454c <HAL_PWREx_ControlVoltageScaling+0x20>
      MODIFY_REG(PWR->CR1, PWR_CR1_VOS, PWR_REGULATOR_VOLTAGE_SCALE1);
 800455e:	680b      	ldr	r3, [r1, #0]
      wait_loop_index = ((PWR_FLAG_SETTING_DELAY_US * SystemCoreClock) / 1000000U) + 1U;
 8004560:	4a10      	ldr	r2, [pc, #64]	@ (80045a4 <HAL_PWREx_ControlVoltageScaling+0x78>)
      MODIFY_REG(PWR->CR1, PWR_CR1_VOS, PWR_REGULATOR_VOLTAGE_SCALE1);
 8004562:	f423 63c0 	bic.w	r3, r3, #1536	@ 0x600
 8004566:	f443 7300 	orr.w	r3, r3, #512	@ 0x200
 800456a:	600b      	str	r3, [r1, #0]
      wait_loop_index = ((PWR_FLAG_SETTING_DELAY_US * SystemCoreClock) / 1000000U) + 1U;
 800456c:	6813      	ldr	r3, [r2, #0]
 800456e:	4a0e      	ldr	r2, [pc, #56]	@ (80045a8 <HAL_PWREx_ControlVoltageScaling+0x7c>)
 8004570:	2032      	movs	r0, #50	@ 0x32
 8004572:	fb00 f303 	mul.w	r3, r0, r3
      while ((HAL_IS_BIT_SET(PWR->SR2, PWR_SR2_VOSF)) && (wait_loop_index != 0U))
 8004576:	6948      	ldr	r0, [r1, #20]
      wait_loop_index = ((PWR_FLAG_SETTING_DELAY_US * SystemCoreClock) / 1000000U) + 1U;
 8004578:	fba2 2303 	umull	r2, r3, r2, r3
 800457c:	0c9b      	lsrs	r3, r3, #18
      while ((HAL_IS_BIT_SET(PWR->SR2, PWR_SR2_VOSF)) && (wait_loop_index != 0U))
 800457e:	0540      	lsls	r0, r0, #21
      wait_loop_index = ((PWR_FLAG_SETTING_DELAY_US * SystemCoreClock) / 1000000U) + 1U;
 8004580:	f103 0301 	add.w	r3, r3, #1
      while ((HAL_IS_BIT_SET(PWR->SR2, PWR_SR2_VOSF)) && (wait_loop_index != 0U))
 8004584:	d506      	bpl.n	8004594 <HAL_PWREx_ControlVoltageScaling+0x68>
 8004586:	e000      	b.n	800458a <HAL_PWREx_ControlVoltageScaling+0x5e>
 8004588:	b123      	cbz	r3, 8004594 <HAL_PWREx_ControlVoltageScaling+0x68>
 800458a:	694a      	ldr	r2, [r1, #20]
 800458c:	0552      	lsls	r2, r2, #21
        wait_loop_index--;
 800458e:	f103 33ff 	add.w	r3, r3, #4294967295
      while ((HAL_IS_BIT_SET(PWR->SR2, PWR_SR2_VOSF)) && (wait_loop_index != 0U))
 8004592:	d4f9      	bmi.n	8004588 <HAL_PWREx_ControlVoltageScaling+0x5c>
      if (HAL_IS_BIT_SET(PWR->SR2, PWR_SR2_VOSF))
 8004594:	4b02      	ldr	r3, [pc, #8]	@ (80045a0 <HAL_PWREx_ControlVoltageScaling+0x74>)
 8004596:	695b      	ldr	r3, [r3, #20]
 8004598:	055b      	lsls	r3, r3, #21
 800459a:	d5d7      	bpl.n	800454c <HAL_PWREx_ControlVoltageScaling+0x20>
        return HAL_TIMEOUT;
 800459c:	2003      	movs	r0, #3
}
 800459e:	4770      	bx	lr
 80045a0:	40007000 	.word	0x40007000
 80045a4:	20000400 	.word	0x20000400
 80045a8:	431bde83 	.word	0x431bde83

080045ac <HAL_PWREx_EnableVddIO2>:
  * @note  Remove VDDIO2 electrical and logical isolation, once VDDIO2 supply is present.
  * @retval None
  */
void HAL_PWREx_EnableVddIO2(void)
{
  SET_BIT(PWR->CR2, PWR_CR2_IOSV);
 80045ac:	4a02      	ldr	r2, [pc, #8]	@ (80045b8 <HAL_PWREx_EnableVddIO2+0xc>)
 80045ae:	6853      	ldr	r3, [r2, #4]
 80045b0:	f443 7300 	orr.w	r3, r3, #512	@ 0x200
 80045b4:	6053      	str	r3, [r2, #4]
}
 80045b6:	4770      	bx	lr
 80045b8:	40007000 	.word	0x40007000

080045bc <RCC_SetFlashLatencyFromMSIRange>:
            voltage range.
  * @param  msirange  MSI range value from RCC_MSIRANGE_0 to RCC_MSIRANGE_11
  * @retval HAL status
  */
static HAL_StatusTypeDef RCC_SetFlashLatencyFromMSIRange(uint32_t msirange)
{
 80045bc:	b530      	push	{r4, r5, lr}
  uint32_t vos;
  uint32_t latency = FLASH_LATENCY_0;  /* default value 0WS */

  if(__HAL_RCC_PWR_IS_CLK_ENABLED())
 80045be:	4d20      	ldr	r5, [pc, #128]	@ (8004640 <RCC_SetFlashLatencyFromMSIRange+0x84>)
 80045c0:	6dab      	ldr	r3, [r5, #88]	@ 0x58
 80045c2:	00db      	lsls	r3, r3, #3
{
 80045c4:	b083      	sub	sp, #12
 80045c6:	4604      	mov	r4, r0
  if(__HAL_RCC_PWR_IS_CLK_ENABLED())
 80045c8:	d51a      	bpl.n	8004600 <RCC_SetFlashLatencyFromMSIRange+0x44>
  {
    vos = HAL_PWREx_GetVoltageRange();
 80045ca:	f7ff ffa7 	bl	800451c <HAL_PWREx_GetVoltageRange>
    __HAL_RCC_PWR_CLK_ENABLE();
    vos = HAL_PWREx_GetVoltageRange();
    __HAL_RCC_PWR_CLK_DISABLE();
  }

  if(vos == PWR_REGULATOR_VOLTAGE_SCALE1)
 80045ce:	f5b0 7f00 	cmp.w	r0, #512	@ 0x200
 80045d2:	d027      	beq.n	8004624 <RCC_SetFlashLatencyFromMSIRange+0x68>
        latency = FLASH_LATENCY_1; /* 1WS */
      }
      /* else MSI < 8Mhz default FLASH_LATENCY_0 0WS */
    }
#else
    if(msirange > RCC_MSIRANGE_8)
 80045d4:	2c80      	cmp	r4, #128	@ 0x80
 80045d6:	d82c      	bhi.n	8004632 <RCC_SetFlashLatencyFromMSIRange+0x76>
      /* MSI > 16Mhz */
      latency = FLASH_LATENCY_3; /* 3WS */
    }
    else
    {
      if(msirange == RCC_MSIRANGE_8)
 80045d8:	d02f      	beq.n	800463a <RCC_SetFlashLatencyFromMSIRange+0x7e>
      {
        /* MSI 16Mhz */
        latency = FLASH_LATENCY_2; /* 2WS */
      }
      else if(msirange == RCC_MSIRANGE_7)
 80045da:	f1a4 0470 	sub.w	r4, r4, #112	@ 0x70
 80045de:	fab4 f484 	clz	r4, r4
 80045e2:	0964      	lsrs	r4, r4, #5
      }
    }
#endif
  }

  __HAL_FLASH_SET_LATENCY(latency);
 80045e4:	4917      	ldr	r1, [pc, #92]	@ (8004644 <RCC_SetFlashLatencyFromMSIRange+0x88>)
 80045e6:	680b      	ldr	r3, [r1, #0]
 80045e8:	f023 0307 	bic.w	r3, r3, #7
 80045ec:	4323      	orrs	r3, r4
 80045ee:	600b      	str	r3, [r1, #0]

  /* Check that the new number of wait states is taken into account to access the Flash
     memory by reading the FLASH_ACR register */
  if(__HAL_FLASH_GET_LATENCY() != latency)
 80045f0:	6808      	ldr	r0, [r1, #0]
 80045f2:	f000 0007 	and.w	r0, r0, #7
  {
    return HAL_ERROR;
  }

  return HAL_OK;
}
 80045f6:	1b00      	subs	r0, r0, r4
 80045f8:	bf18      	it	ne
 80045fa:	2001      	movne	r0, #1
 80045fc:	b003      	add	sp, #12
 80045fe:	bd30      	pop	{r4, r5, pc}
    __HAL_RCC_PWR_CLK_ENABLE();
 8004600:	6dab      	ldr	r3, [r5, #88]	@ 0x58
 8004602:	f043 5380 	orr.w	r3, r3, #268435456	@ 0x10000000
 8004606:	65ab      	str	r3, [r5, #88]	@ 0x58
 8004608:	6dab      	ldr	r3, [r5, #88]	@ 0x58
 800460a:	f003 5380 	and.w	r3, r3, #268435456	@ 0x10000000
 800460e:	9301      	str	r3, [sp, #4]
 8004610:	9b01      	ldr	r3, [sp, #4]
    vos = HAL_PWREx_GetVoltageRange();
 8004612:	f7ff ff83 	bl	800451c <HAL_PWREx_GetVoltageRange>
    __HAL_RCC_PWR_CLK_DISABLE();
 8004616:	6dab      	ldr	r3, [r5, #88]	@ 0x58
  if(vos == PWR_REGULATOR_VOLTAGE_SCALE1)
 8004618:	f5b0 7f00 	cmp.w	r0, #512	@ 0x200
    __HAL_RCC_PWR_CLK_DISABLE();
 800461c:	f023 5380 	bic.w	r3, r3, #268435456	@ 0x10000000
 8004620:	65ab      	str	r3, [r5, #88]	@ 0x58
  if(vos == PWR_REGULATOR_VOLTAGE_SCALE1)
 8004622:	d1d7      	bne.n	80045d4 <RCC_SetFlashLatencyFromMSIRange+0x18>
    if(msirange > RCC_MSIRANGE_8)
 8004624:	2c80      	cmp	r4, #128	@ 0x80
 8004626:	d906      	bls.n	8004636 <RCC_SetFlashLatencyFromMSIRange+0x7a>
        latency = FLASH_LATENCY_2; /* 2WS */
 8004628:	2ca1      	cmp	r4, #161	@ 0xa1
 800462a:	bf34      	ite	cc
 800462c:	2401      	movcc	r4, #1
 800462e:	2402      	movcs	r4, #2
 8004630:	e7d8      	b.n	80045e4 <RCC_SetFlashLatencyFromMSIRange+0x28>
      latency = FLASH_LATENCY_3; /* 3WS */
 8004632:	2403      	movs	r4, #3
 8004634:	e7d6      	b.n	80045e4 <RCC_SetFlashLatencyFromMSIRange+0x28>
  uint32_t latency = FLASH_LATENCY_0;  /* default value 0WS */
 8004636:	2400      	movs	r4, #0
 8004638:	e7d4      	b.n	80045e4 <RCC_SetFlashLatencyFromMSIRange+0x28>
        latency = FLASH_LATENCY_2; /* 2WS */
 800463a:	2402      	movs	r4, #2
 800463c:	e7d2      	b.n	80045e4 <RCC_SetFlashLatencyFromMSIRange+0x28>
 800463e:	bf00      	nop
 8004640:	40021000 	.word	0x40021000
 8004644:	40022000 	.word	0x40022000

08004648 <HAL_RCC_GetSysClockFreq>:
  sysclk_source = __HAL_RCC_GET_SYSCLK_SOURCE();
 8004648:	4a28      	ldr	r2, [pc, #160]	@ (80046ec <HAL_RCC_GetSysClockFreq+0xa4>)
 800464a:	6893      	ldr	r3, [r2, #8]
  pll_oscsource = __HAL_RCC_GET_PLL_OSCSOURCE();
 800464c:	68d2      	ldr	r2, [r2, #12]
  if((sysclk_source == RCC_CFGR_SWS_MSI) ||
 800464e:	f013 030c 	ands.w	r3, r3, #12
 8004652:	d005      	beq.n	8004660 <HAL_RCC_GetSysClockFreq+0x18>
 8004654:	2b0c      	cmp	r3, #12
 8004656:	d035      	beq.n	80046c4 <HAL_RCC_GetSysClockFreq+0x7c>
  else if(sysclk_source == RCC_CFGR_SWS_HSI)
 8004658:	2b04      	cmp	r3, #4
 800465a:	d141      	bne.n	80046e0 <HAL_RCC_GetSysClockFreq+0x98>
    sysclockfreq = HSI_VALUE;
 800465c:	4824      	ldr	r0, [pc, #144]	@ (80046f0 <HAL_RCC_GetSysClockFreq+0xa8>)
 800465e:	4770      	bx	lr
    if(READ_BIT(RCC->CR, RCC_CR_MSIRGSEL) == 0U)
 8004660:	4a22      	ldr	r2, [pc, #136]	@ (80046ec <HAL_RCC_GetSysClockFreq+0xa4>)
 8004662:	6811      	ldr	r1, [r2, #0]
 8004664:	0709      	lsls	r1, r1, #28
      msirange = READ_BIT(RCC->CSR, RCC_CSR_MSISRANGE) >> RCC_CSR_MSISRANGE_Pos;
 8004666:	bf54      	ite	pl
 8004668:	f8d2 2094 	ldrpl.w	r2, [r2, #148]	@ 0x94
      msirange = READ_BIT(RCC->CR, RCC_CR_MSIRANGE) >> RCC_CR_MSIRANGE_Pos;
 800466c:	6812      	ldrmi	r2, [r2, #0]
    msirange = MSIRangeTable[msirange];
 800466e:	4921      	ldr	r1, [pc, #132]	@ (80046f4 <HAL_RCC_GetSysClockFreq+0xac>)
      msirange = READ_BIT(RCC->CSR, RCC_CSR_MSISRANGE) >> RCC_CSR_MSISRANGE_Pos;
 8004670:	bf54      	ite	pl
 8004672:	f3c2 2203 	ubfxpl	r2, r2, #8, #4
      msirange = READ_BIT(RCC->CR, RCC_CR_MSIRANGE) >> RCC_CR_MSIRANGE_Pos;
 8004676:	f3c2 1203 	ubfxmi	r2, r2, #4, #4
    msirange = MSIRangeTable[msirange];
 800467a:	f851 0022 	ldr.w	r0, [r1, r2, lsl #2]
    if(sysclk_source == RCC_CFGR_SWS_MSI)
 800467e:	b303      	cbz	r3, 80046c2 <HAL_RCC_GetSysClockFreq+0x7a>
  if(sysclk_source == RCC_CFGR_SWS_PLL)
 8004680:	2b0c      	cmp	r3, #12
 8004682:	d11d      	bne.n	80046c0 <HAL_RCC_GetSysClockFreq+0x78>
    pllsource = READ_BIT(RCC->PLLCFGR, RCC_PLLCFGR_PLLSRC);
 8004684:	4b19      	ldr	r3, [pc, #100]	@ (80046ec <HAL_RCC_GetSysClockFreq+0xa4>)
 8004686:	68db      	ldr	r3, [r3, #12]
 8004688:	f003 0303 	and.w	r3, r3, #3
    switch (pllsource)
 800468c:	2b02      	cmp	r3, #2
 800468e:	d025      	beq.n	80046dc <HAL_RCC_GetSysClockFreq+0x94>
 8004690:	4a19      	ldr	r2, [pc, #100]	@ (80046f8 <HAL_RCC_GetSysClockFreq+0xb0>)
 8004692:	2b03      	cmp	r3, #3
 8004694:	bf08      	it	eq
 8004696:	4610      	moveq	r0, r2
    pllm = (READ_BIT(RCC->PLLCFGR, RCC_PLLCFGR_PLLM) >> RCC_PLLCFGR_PLLM_Pos) + 1U ;
 8004698:	4b14      	ldr	r3, [pc, #80]	@ (80046ec <HAL_RCC_GetSysClockFreq+0xa4>)
 800469a:	68d9      	ldr	r1, [r3, #12]
    pllvco = (pllvco * (READ_BIT(RCC->PLLCFGR, RCC_PLLCFGR_PLLN) >> RCC_PLLCFGR_PLLN_Pos)) / pllm;
 800469c:	68da      	ldr	r2, [r3, #12]
    pllr = ((READ_BIT(RCC->PLLCFGR, RCC_PLLCFGR_PLLR) >> RCC_PLLCFGR_PLLR_Pos) + 1U ) * 2U;
 800469e:	68db      	ldr	r3, [r3, #12]
 80046a0:	f3c3 6341 	ubfx	r3, r3, #25, #2
    pllvco = (pllvco * (READ_BIT(RCC->PLLCFGR, RCC_PLLCFGR_PLLN) >> RCC_PLLCFGR_PLLN_Pos)) / pllm;
 80046a4:	f3c2 2206 	ubfx	r2, r2, #8, #7
    pllm = (READ_BIT(RCC->PLLCFGR, RCC_PLLCFGR_PLLM) >> RCC_PLLCFGR_PLLM_Pos) + 1U ;
 80046a8:	f3c1 1102 	ubfx	r1, r1, #4, #3
    pllr = ((READ_BIT(RCC->PLLCFGR, RCC_PLLCFGR_PLLR) >> RCC_PLLCFGR_PLLR_Pos) + 1U ) * 2U;
 80046ac:	3301      	adds	r3, #1
    pllvco = (pllvco * (READ_BIT(RCC->PLLCFGR, RCC_PLLCFGR_PLLN) >> RCC_PLLCFGR_PLLN_Pos)) / pllm;
 80046ae:	fb00 f202 	mul.w	r2, r0, r2
    pllm = (READ_BIT(RCC->PLLCFGR, RCC_PLLCFGR_PLLM) >> RCC_PLLCFGR_PLLM_Pos) + 1U ;
 80046b2:	3101      	adds	r1, #1
    pllr = ((READ_BIT(RCC->PLLCFGR, RCC_PLLCFGR_PLLR) >> RCC_PLLCFGR_PLLR_Pos) + 1U ) * 2U;
 80046b4:	005b      	lsls	r3, r3, #1
    pllvco = (pllvco * (READ_BIT(RCC->PLLCFGR, RCC_PLLCFGR_PLLN) >> RCC_PLLCFGR_PLLN_Pos)) / pllm;
 80046b6:	fbb2 f2f1 	udiv	r2, r2, r1
    sysclockfreq = pllvco / pllr;
 80046ba:	fbb2 f0f3 	udiv	r0, r2, r3
 80046be:	4770      	bx	lr
  uint32_t msirange = 0U, sysclockfreq = 0U;
 80046c0:	2000      	movs	r0, #0
}
 80046c2:	4770      	bx	lr
  pll_oscsource = __HAL_RCC_GET_PLL_OSCSOURCE();
 80046c4:	f002 0203 	and.w	r2, r2, #3
     ((sysclk_source == RCC_CFGR_SWS_PLL) && (pll_oscsource == RCC_PLLSOURCE_MSI)))
 80046c8:	2a01      	cmp	r2, #1
 80046ca:	d0c9      	beq.n	8004660 <HAL_RCC_GetSysClockFreq+0x18>
    pllsource = READ_BIT(RCC->PLLCFGR, RCC_PLLCFGR_PLLSRC);
 80046cc:	4b07      	ldr	r3, [pc, #28]	@ (80046ec <HAL_RCC_GetSysClockFreq+0xa4>)
 80046ce:	68db      	ldr	r3, [r3, #12]
 80046d0:	f003 0303 	and.w	r3, r3, #3
    switch (pllsource)
 80046d4:	2b02      	cmp	r3, #2
  uint32_t msirange = 0U, sysclockfreq = 0U;
 80046d6:	f04f 0000 	mov.w	r0, #0
    switch (pllsource)
 80046da:	d1d9      	bne.n	8004690 <HAL_RCC_GetSysClockFreq+0x48>
      pllvco = HSI_VALUE;
 80046dc:	4804      	ldr	r0, [pc, #16]	@ (80046f0 <HAL_RCC_GetSysClockFreq+0xa8>)
 80046de:	e7db      	b.n	8004698 <HAL_RCC_GetSysClockFreq+0x50>
    sysclockfreq = HSE_VALUE;
 80046e0:	2b08      	cmp	r3, #8
 80046e2:	4805      	ldr	r0, [pc, #20]	@ (80046f8 <HAL_RCC_GetSysClockFreq+0xb0>)
 80046e4:	bf18      	it	ne
 80046e6:	2000      	movne	r0, #0
 80046e8:	4770      	bx	lr
 80046ea:	bf00      	nop
 80046ec:	40021000 	.word	0x40021000
 80046f0:	00f42400 	.word	0x00f42400
 80046f4:	080097ac 	.word	0x080097ac
 80046f8:	007a1200 	.word	0x007a1200

080046fc <HAL_RCC_OscConfig>:
  if(RCC_OscInitStruct == NULL)
 80046fc:	2800      	cmp	r0, #0
 80046fe:	f000 822f 	beq.w	8004b60 <HAL_RCC_OscConfig+0x464>
{
 8004702:	e92d 43f0 	stmdb	sp!, {r4, r5, r6, r7, r8, r9, lr}
  sysclk_source = __HAL_RCC_GET_SYSCLK_SOURCE();
 8004706:	4a93      	ldr	r2, [pc, #588]	@ (8004954 <HAL_RCC_OscConfig+0x258>)
  if(((RCC_OscInitStruct->OscillatorType) & RCC_OSCILLATORTYPE_MSI) == RCC_OSCILLATORTYPE_MSI)
 8004708:	6803      	ldr	r3, [r0, #0]
  sysclk_source = __HAL_RCC_GET_SYSCLK_SOURCE();
 800470a:	6895      	ldr	r5, [r2, #8]
  pll_config = __HAL_RCC_GET_PLL_OSCSOURCE();
 800470c:	68d6      	ldr	r6, [r2, #12]
 800470e:	4604      	mov	r4, r0
  if(((RCC_OscInitStruct->OscillatorType) & RCC_OSCILLATORTYPE_MSI) == RCC_OSCILLATORTYPE_MSI)
 8004710:	06d8      	lsls	r0, r3, #27
{
 8004712:	b083      	sub	sp, #12
  sysclk_source = __HAL_RCC_GET_SYSCLK_SOURCE();
 8004714:	f005 050c 	and.w	r5, r5, #12
  pll_config = __HAL_RCC_GET_PLL_OSCSOURCE();
 8004718:	f006 0603 	and.w	r6, r6, #3
  if(((RCC_OscInitStruct->OscillatorType) & RCC_OSCILLATORTYPE_MSI) == RCC_OSCILLATORTYPE_MSI)
 800471c:	d52e      	bpl.n	800477c <HAL_RCC_OscConfig+0x80>
    if((sysclk_source == RCC_CFGR_SWS_MSI) ||
 800471e:	2d00      	cmp	r5, #0
 8004720:	f000 8121 	beq.w	8004966 <HAL_RCC_OscConfig+0x26a>
 8004724:	2d0c      	cmp	r5, #12
 8004726:	f000 811b 	beq.w	8004960 <HAL_RCC_OscConfig+0x264>
      if(RCC_OscInitStruct->MSIState != RCC_MSI_OFF)
 800472a:	69a3      	ldr	r3, [r4, #24]
        __HAL_RCC_MSI_ENABLE();
 800472c:	4f89      	ldr	r7, [pc, #548]	@ (8004954 <HAL_RCC_OscConfig+0x258>)
      if(RCC_OscInitStruct->MSIState != RCC_MSI_OFF)
 800472e:	2b00      	cmp	r3, #0
 8004730:	f000 8191 	beq.w	8004a56 <HAL_RCC_OscConfig+0x35a>
        __HAL_RCC_MSI_ENABLE();
 8004734:	683b      	ldr	r3, [r7, #0]
 8004736:	f043 0301 	orr.w	r3, r3, #1
 800473a:	603b      	str	r3, [r7, #0]
        tickstart = HAL_GetTick();
 800473c:	f7fe f8aa 	bl	8002894 <HAL_GetTick>
 8004740:	4680      	mov	r8, r0
        while(READ_BIT(RCC->CR, RCC_CR_MSIRDY) == 0U)
 8004742:	e006      	b.n	8004752 <HAL_RCC_OscConfig+0x56>
          if((HAL_GetTick() - tickstart) > MSI_TIMEOUT_VALUE)
 8004744:	f7fe f8a6 	bl	8002894 <HAL_GetTick>
 8004748:	eba0 0008 	sub.w	r0, r0, r8
 800474c:	2802      	cmp	r0, #2
 800474e:	f200 8192 	bhi.w	8004a76 <HAL_RCC_OscConfig+0x37a>
        while(READ_BIT(RCC->CR, RCC_CR_MSIRDY) == 0U)
 8004752:	683b      	ldr	r3, [r7, #0]
 8004754:	079b      	lsls	r3, r3, #30
 8004756:	d5f5      	bpl.n	8004744 <HAL_RCC_OscConfig+0x48>
        __HAL_RCC_MSI_RANGE_CONFIG(RCC_OscInitStruct->MSIClockRange);
 8004758:	683b      	ldr	r3, [r7, #0]
 800475a:	f043 0308 	orr.w	r3, r3, #8
 800475e:	603b      	str	r3, [r7, #0]
 8004760:	683b      	ldr	r3, [r7, #0]
 8004762:	6a22      	ldr	r2, [r4, #32]
 8004764:	f023 03f0 	bic.w	r3, r3, #240	@ 0xf0
 8004768:	4313      	orrs	r3, r2
 800476a:	603b      	str	r3, [r7, #0]
        __HAL_RCC_MSI_CALIBRATIONVALUE_ADJUST(RCC_OscInitStruct->MSICalibrationValue);
 800476c:	687b      	ldr	r3, [r7, #4]
 800476e:	69e2      	ldr	r2, [r4, #28]
 8004770:	f423 437f 	bic.w	r3, r3, #65280	@ 0xff00
 8004774:	ea43 2302 	orr.w	r3, r3, r2, lsl #8
 8004778:	607b      	str	r3, [r7, #4]
  if(((RCC_OscInitStruct->OscillatorType) & RCC_OSCILLATORTYPE_HSE) == RCC_OSCILLATORTYPE_HSE)
 800477a:	6823      	ldr	r3, [r4, #0]
 800477c:	07d9      	lsls	r1, r3, #31
 800477e:	f100 80bf 	bmi.w	8004900 <HAL_RCC_OscConfig+0x204>
  if(((RCC_OscInitStruct->OscillatorType) & RCC_OSCILLATORTYPE_HSI) == RCC_OSCILLATORTYPE_HSI)
 8004782:	0799      	lsls	r1, r3, #30
 8004784:	d523      	bpl.n	80047ce <HAL_RCC_OscConfig+0xd2>
    if((sysclk_source == RCC_CFGR_SWS_HSI) ||
 8004786:	2d04      	cmp	r5, #4
 8004788:	f000 8155 	beq.w	8004a36 <HAL_RCC_OscConfig+0x33a>
 800478c:	2d0c      	cmp	r5, #12
 800478e:	f000 814f 	beq.w	8004a30 <HAL_RCC_OscConfig+0x334>
      if(RCC_OscInitStruct->HSIState != RCC_HSI_OFF)
 8004792:	68e3      	ldr	r3, [r4, #12]
        __HAL_RCC_HSI_ENABLE();
 8004794:	4e6f      	ldr	r6, [pc, #444]	@ (8004954 <HAL_RCC_OscConfig+0x258>)
      if(RCC_OscInitStruct->HSIState != RCC_HSI_OFF)
 8004796:	2b00      	cmp	r3, #0
 8004798:	f000 8188 	beq.w	8004aac <HAL_RCC_OscConfig+0x3b0>
        __HAL_RCC_HSI_ENABLE();
 800479c:	6833      	ldr	r3, [r6, #0]
 800479e:	f443 7380 	orr.w	r3, r3, #256	@ 0x100
 80047a2:	6033      	str	r3, [r6, #0]
        tickstart = HAL_GetTick();
 80047a4:	f7fe f876 	bl	8002894 <HAL_GetTick>
 80047a8:	4607      	mov	r7, r0
        while(READ_BIT(RCC->CR, RCC_CR_HSIRDY) == 0U)
 80047aa:	e005      	b.n	80047b8 <HAL_RCC_OscConfig+0xbc>
          if((HAL_GetTick() - tickstart) > HSI_TIMEOUT_VALUE)
 80047ac:	f7fe f872 	bl	8002894 <HAL_GetTick>
 80047b0:	1bc0      	subs	r0, r0, r7
 80047b2:	2802      	cmp	r0, #2
 80047b4:	f200 815f 	bhi.w	8004a76 <HAL_RCC_OscConfig+0x37a>
        while(READ_BIT(RCC->CR, RCC_CR_HSIRDY) == 0U)
 80047b8:	6833      	ldr	r3, [r6, #0]
 80047ba:	055b      	lsls	r3, r3, #21
 80047bc:	d5f6      	bpl.n	80047ac <HAL_RCC_OscConfig+0xb0>
        __HAL_RCC_HSI_CALIBRATIONVALUE_ADJUST(RCC_OscInitStruct->HSICalibrationValue);
 80047be:	6873      	ldr	r3, [r6, #4]
 80047c0:	6922      	ldr	r2, [r4, #16]
 80047c2:	f023 43fe 	bic.w	r3, r3, #2130706432	@ 0x7f000000
 80047c6:	ea43 6302 	orr.w	r3, r3, r2, lsl #24
 80047ca:	6073      	str	r3, [r6, #4]
  if(((RCC_OscInitStruct->OscillatorType) & RCC_OSCILLATORTYPE_LSI) == RCC_OSCILLATORTYPE_LSI)
 80047cc:	6823      	ldr	r3, [r4, #0]
 80047ce:	0719      	lsls	r1, r3, #28
 80047d0:	d519      	bpl.n	8004806 <HAL_RCC_OscConfig+0x10a>
    if(RCC_OscInitStruct->LSIState != RCC_LSI_OFF)
 80047d2:	6963      	ldr	r3, [r4, #20]
      __HAL_RCC_LSI_ENABLE();
 80047d4:	4e5f      	ldr	r6, [pc, #380]	@ (8004954 <HAL_RCC_OscConfig+0x258>)
    if(RCC_OscInitStruct->LSIState != RCC_LSI_OFF)
 80047d6:	2b00      	cmp	r3, #0
 80047d8:	f000 8116 	beq.w	8004a08 <HAL_RCC_OscConfig+0x30c>
      __HAL_RCC_LSI_ENABLE();
 80047dc:	f8d6 3094 	ldr.w	r3, [r6, #148]	@ 0x94
 80047e0:	f043 0301 	orr.w	r3, r3, #1
 80047e4:	f8c6 3094 	str.w	r3, [r6, #148]	@ 0x94
      tickstart = HAL_GetTick();
 80047e8:	f7fe f854 	bl	8002894 <HAL_GetTick>
 80047ec:	4607      	mov	r7, r0
      while(READ_BIT(RCC->CSR, RCC_CSR_LSIRDY) == 0U)
 80047ee:	e005      	b.n	80047fc <HAL_RCC_OscConfig+0x100>
        if((HAL_GetTick() - tickstart) > LSI_TIMEOUT_VALUE)
 80047f0:	f7fe f850 	bl	8002894 <HAL_GetTick>
 80047f4:	1bc0      	subs	r0, r0, r7
 80047f6:	2802      	cmp	r0, #2
 80047f8:	f200 813d 	bhi.w	8004a76 <HAL_RCC_OscConfig+0x37a>
      while(READ_BIT(RCC->CSR, RCC_CSR_LSIRDY) == 0U)
 80047fc:	f8d6 3094 	ldr.w	r3, [r6, #148]	@ 0x94
 8004800:	079a      	lsls	r2, r3, #30
 8004802:	d5f5      	bpl.n	80047f0 <HAL_RCC_OscConfig+0xf4>
  if(((RCC_OscInitStruct->OscillatorType) & RCC_OSCILLATORTYPE_LSE) == RCC_OSCILLATORTYPE_LSE)
 8004804:	6823      	ldr	r3, [r4, #0]
 8004806:	075f      	lsls	r7, r3, #29
 8004808:	d53f      	bpl.n	800488a <HAL_RCC_OscConfig+0x18e>
    if(HAL_IS_BIT_CLR(RCC->APB1ENR1, RCC_APB1ENR1_PWREN))
 800480a:	4b52      	ldr	r3, [pc, #328]	@ (8004954 <HAL_RCC_OscConfig+0x258>)
 800480c:	6d9a      	ldr	r2, [r3, #88]	@ 0x58
 800480e:	00d6      	lsls	r6, r2, #3
 8004810:	f100 814a 	bmi.w	8004aa8 <HAL_RCC_OscConfig+0x3ac>
      __HAL_RCC_PWR_CLK_ENABLE();
 8004814:	6d9a      	ldr	r2, [r3, #88]	@ 0x58
 8004816:	f042 5280 	orr.w	r2, r2, #268435456	@ 0x10000000
 800481a:	659a      	str	r2, [r3, #88]	@ 0x58
 800481c:	6d9b      	ldr	r3, [r3, #88]	@ 0x58
 800481e:	f003 5380 	and.w	r3, r3, #268435456	@ 0x10000000
 8004822:	9301      	str	r3, [sp, #4]
 8004824:	9b01      	ldr	r3, [sp, #4]
      pwrclkchanged = SET;
 8004826:	2601      	movs	r6, #1
    if(HAL_IS_BIT_CLR(PWR->CR1, PWR_CR1_DBP))
 8004828:	4f4b      	ldr	r7, [pc, #300]	@ (8004958 <HAL_RCC_OscConfig+0x25c>)
 800482a:	683b      	ldr	r3, [r7, #0]
 800482c:	05d8      	lsls	r0, r3, #23
 800482e:	f140 8199 	bpl.w	8004b64 <HAL_RCC_OscConfig+0x468>
    __HAL_RCC_LSE_CONFIG(RCC_OscInitStruct->LSEState);
 8004832:	68a3      	ldr	r3, [r4, #8]
 8004834:	2b01      	cmp	r3, #1
 8004836:	f000 814b 	beq.w	8004ad0 <HAL_RCC_OscConfig+0x3d4>
 800483a:	2b05      	cmp	r3, #5
 800483c:	f000 81bd 	beq.w	8004bba <HAL_RCC_OscConfig+0x4be>
 8004840:	4f44      	ldr	r7, [pc, #272]	@ (8004954 <HAL_RCC_OscConfig+0x258>)
 8004842:	f8d7 2090 	ldr.w	r2, [r7, #144]	@ 0x90
 8004846:	f022 0201 	bic.w	r2, r2, #1
 800484a:	f8c7 2090 	str.w	r2, [r7, #144]	@ 0x90
 800484e:	f8d7 2090 	ldr.w	r2, [r7, #144]	@ 0x90
 8004852:	f022 0204 	bic.w	r2, r2, #4
 8004856:	f8c7 2090 	str.w	r2, [r7, #144]	@ 0x90
    if(RCC_OscInitStruct->LSEState != RCC_LSE_OFF)
 800485a:	2b00      	cmp	r3, #0
 800485c:	f040 813f 	bne.w	8004ade <HAL_RCC_OscConfig+0x3e2>
      tickstart = HAL_GetTick();
 8004860:	f7fe f818 	bl	8002894 <HAL_GetTick>
        if((HAL_GetTick() - tickstart) > RCC_LSE_TIMEOUT_VALUE)
 8004864:	f241 3988 	movw	r9, #5000	@ 0x1388
      tickstart = HAL_GetTick();
 8004868:	4680      	mov	r8, r0
      while(READ_BIT(RCC->BDCR, RCC_BDCR_LSERDY) != 0U)
 800486a:	e006      	b.n	800487a <HAL_RCC_OscConfig+0x17e>
        if((HAL_GetTick() - tickstart) > RCC_LSE_TIMEOUT_VALUE)
 800486c:	f7fe f812 	bl	8002894 <HAL_GetTick>
 8004870:	eba0 0008 	sub.w	r0, r0, r8
 8004874:	4548      	cmp	r0, r9
 8004876:	f200 80fe 	bhi.w	8004a76 <HAL_RCC_OscConfig+0x37a>
      while(READ_BIT(RCC->BDCR, RCC_BDCR_LSERDY) != 0U)
 800487a:	f8d7 3090 	ldr.w	r3, [r7, #144]	@ 0x90
 800487e:	079b      	lsls	r3, r3, #30
 8004880:	d4f4      	bmi.n	800486c <HAL_RCC_OscConfig+0x170>
    if(pwrclkchanged == SET)
 8004882:	2e00      	cmp	r6, #0
 8004884:	f040 8180 	bne.w	8004b88 <HAL_RCC_OscConfig+0x48c>
  if(((RCC_OscInitStruct->OscillatorType) & RCC_OSCILLATORTYPE_HSI48) == RCC_OSCILLATORTYPE_HSI48)
 8004888:	6823      	ldr	r3, [r4, #0]
 800488a:	069e      	lsls	r6, r3, #26
 800488c:	d518      	bpl.n	80048c0 <HAL_RCC_OscConfig+0x1c4>
    if(RCC_OscInitStruct->HSI48State != RCC_HSI48_OFF)
 800488e:	6a63      	ldr	r3, [r4, #36]	@ 0x24
      __HAL_RCC_HSI48_ENABLE();
 8004890:	4e30      	ldr	r6, [pc, #192]	@ (8004954 <HAL_RCC_OscConfig+0x258>)
    if(RCC_OscInitStruct->HSI48State != RCC_HSI48_OFF)
 8004892:	2b00      	cmp	r3, #0
 8004894:	f000 8150 	beq.w	8004b38 <HAL_RCC_OscConfig+0x43c>
      __HAL_RCC_HSI48_ENABLE();
 8004898:	f8d6 3098 	ldr.w	r3, [r6, #152]	@ 0x98
 800489c:	f043 0301 	orr.w	r3, r3, #1
 80048a0:	f8c6 3098 	str.w	r3, [r6, #152]	@ 0x98
      tickstart = HAL_GetTick();
 80048a4:	f7fd fff6 	bl	8002894 <HAL_GetTick>
 80048a8:	4607      	mov	r7, r0
      while(READ_BIT(RCC->CRRCR, RCC_CRRCR_HSI48RDY) == 0U)
 80048aa:	e005      	b.n	80048b8 <HAL_RCC_OscConfig+0x1bc>
        if((HAL_GetTick() - tickstart) > HSI48_TIMEOUT_VALUE)
 80048ac:	f7fd fff2 	bl	8002894 <HAL_GetTick>
 80048b0:	1bc0      	subs	r0, r0, r7
 80048b2:	2802      	cmp	r0, #2
 80048b4:	f200 80df 	bhi.w	8004a76 <HAL_RCC_OscConfig+0x37a>
      while(READ_BIT(RCC->CRRCR, RCC_CRRCR_HSI48RDY) == 0U)
 80048b8:	f8d6 3098 	ldr.w	r3, [r6, #152]	@ 0x98
 80048bc:	0798      	lsls	r0, r3, #30
 80048be:	d5f5      	bpl.n	80048ac <HAL_RCC_OscConfig+0x1b0>
  if(RCC_OscInitStruct->PLL.PLLState != RCC_PLL_NONE)
 80048c0:	6aa3      	ldr	r3, [r4, #40]	@ 0x28
 80048c2:	b1db      	cbz	r3, 80048fc <HAL_RCC_OscConfig+0x200>
    if(RCC_OscInitStruct->PLL.PLLState == RCC_PLL_ON)
 80048c4:	2b02      	cmp	r3, #2
 80048c6:	f000 8186 	beq.w	8004bd6 <HAL_RCC_OscConfig+0x4da>
      if(sysclk_source != RCC_CFGR_SWS_PLL)
 80048ca:	2d0c      	cmp	r5, #12
 80048cc:	f000 808c 	beq.w	80049e8 <HAL_RCC_OscConfig+0x2ec>
        __HAL_RCC_PLL_DISABLE();
 80048d0:	4c20      	ldr	r4, [pc, #128]	@ (8004954 <HAL_RCC_OscConfig+0x258>)
 80048d2:	6823      	ldr	r3, [r4, #0]
 80048d4:	f023 7380 	bic.w	r3, r3, #16777216	@ 0x1000000
 80048d8:	6023      	str	r3, [r4, #0]
        tickstart = HAL_GetTick();
 80048da:	f7fd ffdb 	bl	8002894 <HAL_GetTick>
 80048de:	4605      	mov	r5, r0
        while(READ_BIT(RCC->CR, RCC_CR_PLLRDY) != 0U)
 80048e0:	e005      	b.n	80048ee <HAL_RCC_OscConfig+0x1f2>
          if((HAL_GetTick() - tickstart) > PLL_TIMEOUT_VALUE)
 80048e2:	f7fd ffd7 	bl	8002894 <HAL_GetTick>
 80048e6:	1b40      	subs	r0, r0, r5
 80048e8:	2802      	cmp	r0, #2
 80048ea:	f200 80c4 	bhi.w	8004a76 <HAL_RCC_OscConfig+0x37a>
        while(READ_BIT(RCC->CR, RCC_CR_PLLRDY) != 0U)
 80048ee:	6823      	ldr	r3, [r4, #0]
 80048f0:	019b      	lsls	r3, r3, #6
 80048f2:	d4f6      	bmi.n	80048e2 <HAL_RCC_OscConfig+0x1e6>
        RCC->PLLCFGR &= ~(RCC_PLLCFGR_PLLSRC | RCC_PLL_SYSCLK | RCC_PLL_48M1CLK | RCC_PLL_SAI3CLK);
 80048f4:	68e2      	ldr	r2, [r4, #12]
 80048f6:	4b19      	ldr	r3, [pc, #100]	@ (800495c <HAL_RCC_OscConfig+0x260>)
 80048f8:	4013      	ands	r3, r2
 80048fa:	60e3      	str	r3, [r4, #12]
  return HAL_OK;
 80048fc:	2000      	movs	r0, #0
 80048fe:	e074      	b.n	80049ea <HAL_RCC_OscConfig+0x2ee>
    if((sysclk_source == RCC_CFGR_SWS_HSE) ||
 8004900:	2d08      	cmp	r5, #8
 8004902:	d077      	beq.n	80049f4 <HAL_RCC_OscConfig+0x2f8>
 8004904:	2d0c      	cmp	r5, #12
 8004906:	d073      	beq.n	80049f0 <HAL_RCC_OscConfig+0x2f4>
      __HAL_RCC_HSE_CONFIG(RCC_OscInitStruct->HSEState);
 8004908:	6863      	ldr	r3, [r4, #4]
 800490a:	f5b3 3f80 	cmp.w	r3, #65536	@ 0x10000
 800490e:	f000 80b6 	beq.w	8004a7e <HAL_RCC_OscConfig+0x382>
 8004912:	f5b3 2fa0 	cmp.w	r3, #327680	@ 0x50000
 8004916:	f000 8143 	beq.w	8004ba0 <HAL_RCC_OscConfig+0x4a4>
 800491a:	4f0e      	ldr	r7, [pc, #56]	@ (8004954 <HAL_RCC_OscConfig+0x258>)
 800491c:	683a      	ldr	r2, [r7, #0]
 800491e:	f422 3280 	bic.w	r2, r2, #65536	@ 0x10000
 8004922:	603a      	str	r2, [r7, #0]
 8004924:	683a      	ldr	r2, [r7, #0]
 8004926:	f422 2280 	bic.w	r2, r2, #262144	@ 0x40000
 800492a:	603a      	str	r2, [r7, #0]
      if(RCC_OscInitStruct->HSEState != RCC_HSE_OFF)
 800492c:	2b00      	cmp	r3, #0
 800492e:	f040 80ab 	bne.w	8004a88 <HAL_RCC_OscConfig+0x38c>
        tickstart = HAL_GetTick();
 8004932:	f7fd ffaf 	bl	8002894 <HAL_GetTick>
 8004936:	4680      	mov	r8, r0
        while(READ_BIT(RCC->CR, RCC_CR_HSERDY) != 0U)
 8004938:	e006      	b.n	8004948 <HAL_RCC_OscConfig+0x24c>
          if((HAL_GetTick() - tickstart) > HSE_TIMEOUT_VALUE)
 800493a:	f7fd ffab 	bl	8002894 <HAL_GetTick>
 800493e:	eba0 0008 	sub.w	r0, r0, r8
 8004942:	2864      	cmp	r0, #100	@ 0x64
 8004944:	f200 8097 	bhi.w	8004a76 <HAL_RCC_OscConfig+0x37a>
        while(READ_BIT(RCC->CR, RCC_CR_HSERDY) != 0U)
 8004948:	683b      	ldr	r3, [r7, #0]
 800494a:	0398      	lsls	r0, r3, #14
 800494c:	d4f5      	bmi.n	800493a <HAL_RCC_OscConfig+0x23e>
  if(((RCC_OscInitStruct->OscillatorType) & RCC_OSCILLATORTYPE_HSI) == RCC_OSCILLATORTYPE_HSI)
 800494e:	6823      	ldr	r3, [r4, #0]
 8004950:	e717      	b.n	8004782 <HAL_RCC_OscConfig+0x86>
 8004952:	bf00      	nop
 8004954:	40021000 	.word	0x40021000
 8004958:	40007000 	.word	0x40007000
 800495c:	feeefffc 	.word	0xfeeefffc
       ((sysclk_source == RCC_CFGR_SWS_PLL) && (pll_config == RCC_PLLSOURCE_MSI)))
 8004960:	2e01      	cmp	r6, #1
 8004962:	f47f aee2 	bne.w	800472a <HAL_RCC_OscConfig+0x2e>
      if((READ_BIT(RCC->CR, RCC_CR_MSIRDY) != 0U) && (RCC_OscInitStruct->MSIState == RCC_MSI_OFF))
 8004966:	4ba9      	ldr	r3, [pc, #676]	@ (8004c0c <HAL_RCC_OscConfig+0x510>)
 8004968:	681b      	ldr	r3, [r3, #0]
 800496a:	0799      	lsls	r1, r3, #30
 800496c:	d439      	bmi.n	80049e2 <HAL_RCC_OscConfig+0x2e6>
        if(RCC_OscInitStruct->MSIClockRange > __HAL_RCC_GET_MSI_RANGE())
 800496e:	4ba7      	ldr	r3, [pc, #668]	@ (8004c0c <HAL_RCC_OscConfig+0x510>)
 8004970:	6a20      	ldr	r0, [r4, #32]
 8004972:	681a      	ldr	r2, [r3, #0]
 8004974:	0712      	lsls	r2, r2, #28
 8004976:	bf56      	itet	pl
 8004978:	f8d3 3094 	ldrpl.w	r3, [r3, #148]	@ 0x94
 800497c:	681b      	ldrmi	r3, [r3, #0]
 800497e:	091b      	lsrpl	r3, r3, #4
 8004980:	f003 03f0 	and.w	r3, r3, #240	@ 0xf0
 8004984:	4298      	cmp	r0, r3
 8004986:	f200 80bf 	bhi.w	8004b08 <HAL_RCC_OscConfig+0x40c>
          __HAL_RCC_MSI_RANGE_CONFIG(RCC_OscInitStruct->MSIClockRange);
 800498a:	4ba0      	ldr	r3, [pc, #640]	@ (8004c0c <HAL_RCC_OscConfig+0x510>)
 800498c:	681a      	ldr	r2, [r3, #0]
 800498e:	f042 0208 	orr.w	r2, r2, #8
 8004992:	601a      	str	r2, [r3, #0]
 8004994:	681a      	ldr	r2, [r3, #0]
 8004996:	f022 02f0 	bic.w	r2, r2, #240	@ 0xf0
 800499a:	4302      	orrs	r2, r0
 800499c:	601a      	str	r2, [r3, #0]
          __HAL_RCC_MSI_CALIBRATIONVALUE_ADJUST(RCC_OscInitStruct->MSICalibrationValue);
 800499e:	685a      	ldr	r2, [r3, #4]
 80049a0:	69e1      	ldr	r1, [r4, #28]
 80049a2:	f422 427f 	bic.w	r2, r2, #65280	@ 0xff00
 80049a6:	ea42 2201 	orr.w	r2, r2, r1, lsl #8
 80049aa:	605a      	str	r2, [r3, #4]
          if(sysclk_source == RCC_CFGR_SWS_MSI)
 80049ac:	2d00      	cmp	r5, #0
 80049ae:	f000 80f1 	beq.w	8004b94 <HAL_RCC_OscConfig+0x498>
        SystemCoreClock = HAL_RCC_GetSysClockFreq() >> (AHBPrescTable[READ_BIT(RCC->CFGR, RCC_CFGR_HPRE) >> RCC_CFGR_HPRE_Pos] & 0x1FU);
 80049b2:	f7ff fe49 	bl	8004648 <HAL_RCC_GetSysClockFreq>
 80049b6:	4b95      	ldr	r3, [pc, #596]	@ (8004c0c <HAL_RCC_OscConfig+0x510>)
 80049b8:	4a95      	ldr	r2, [pc, #596]	@ (8004c10 <HAL_RCC_OscConfig+0x514>)
 80049ba:	689b      	ldr	r3, [r3, #8]
 80049bc:	f3c3 1303 	ubfx	r3, r3, #4, #4
 80049c0:	5cd3      	ldrb	r3, [r2, r3]
        status = HAL_InitTick(uwTickPrio);
 80049c2:	4a94      	ldr	r2, [pc, #592]	@ (8004c14 <HAL_RCC_OscConfig+0x518>)
        SystemCoreClock = HAL_RCC_GetSysClockFreq() >> (AHBPrescTable[READ_BIT(RCC->CFGR, RCC_CFGR_HPRE) >> RCC_CFGR_HPRE_Pos] & 0x1FU);
 80049c4:	f003 031f 	and.w	r3, r3, #31
 80049c8:	fa20 f303 	lsr.w	r3, r0, r3
        status = HAL_InitTick(uwTickPrio);
 80049cc:	6810      	ldr	r0, [r2, #0]
        SystemCoreClock = HAL_RCC_GetSysClockFreq() >> (AHBPrescTable[READ_BIT(RCC->CFGR, RCC_CFGR_HPRE) >> RCC_CFGR_HPRE_Pos] & 0x1FU);
 80049ce:	4a92      	ldr	r2, [pc, #584]	@ (8004c18 <HAL_RCC_OscConfig+0x51c>)
 80049d0:	6013      	str	r3, [r2, #0]
        status = HAL_InitTick(uwTickPrio);
 80049d2:	f7fd ff1d 	bl	8002810 <HAL_InitTick>
        if(status != HAL_OK)
 80049d6:	b940      	cbnz	r0, 80049ea <HAL_RCC_OscConfig+0x2ee>
  if(((RCC_OscInitStruct->OscillatorType) & RCC_OSCILLATORTYPE_HSE) == RCC_OSCILLATORTYPE_HSE)
 80049d8:	6823      	ldr	r3, [r4, #0]
 80049da:	07d9      	lsls	r1, r3, #31
 80049dc:	f57f aed1 	bpl.w	8004782 <HAL_RCC_OscConfig+0x86>
 80049e0:	e78e      	b.n	8004900 <HAL_RCC_OscConfig+0x204>
      if((READ_BIT(RCC->CR, RCC_CR_MSIRDY) != 0U) && (RCC_OscInitStruct->MSIState == RCC_MSI_OFF))
 80049e2:	69a3      	ldr	r3, [r4, #24]
 80049e4:	2b00      	cmp	r3, #0
 80049e6:	d1c2      	bne.n	800496e <HAL_RCC_OscConfig+0x272>
    return HAL_ERROR;
 80049e8:	2001      	movs	r0, #1
}
 80049ea:	b003      	add	sp, #12
 80049ec:	e8bd 83f0 	ldmia.w	sp!, {r4, r5, r6, r7, r8, r9, pc}
       ((sysclk_source == RCC_CFGR_SWS_PLL) && (pll_config == RCC_PLLSOURCE_HSE)))
 80049f0:	2e03      	cmp	r6, #3
 80049f2:	d189      	bne.n	8004908 <HAL_RCC_OscConfig+0x20c>
      if((READ_BIT(RCC->CR, RCC_CR_HSERDY) != 0U) && (RCC_OscInitStruct->HSEState == RCC_HSE_OFF))
 80049f4:	4a85      	ldr	r2, [pc, #532]	@ (8004c0c <HAL_RCC_OscConfig+0x510>)
 80049f6:	6812      	ldr	r2, [r2, #0]
 80049f8:	0392      	lsls	r2, r2, #14
 80049fa:	f57f aec2 	bpl.w	8004782 <HAL_RCC_OscConfig+0x86>
 80049fe:	6862      	ldr	r2, [r4, #4]
 8004a00:	2a00      	cmp	r2, #0
 8004a02:	f47f aebe 	bne.w	8004782 <HAL_RCC_OscConfig+0x86>
 8004a06:	e7ef      	b.n	80049e8 <HAL_RCC_OscConfig+0x2ec>
      __HAL_RCC_LSI_DISABLE();
 8004a08:	f8d6 3094 	ldr.w	r3, [r6, #148]	@ 0x94
 8004a0c:	f023 0301 	bic.w	r3, r3, #1
 8004a10:	f8c6 3094 	str.w	r3, [r6, #148]	@ 0x94
      tickstart = HAL_GetTick();
 8004a14:	f7fd ff3e 	bl	8002894 <HAL_GetTick>
 8004a18:	4607      	mov	r7, r0
      while(READ_BIT(RCC->CSR, RCC_CSR_LSIRDY) != 0U)
 8004a1a:	e004      	b.n	8004a26 <HAL_RCC_OscConfig+0x32a>
        if((HAL_GetTick() - tickstart) > LSI_TIMEOUT_VALUE)
 8004a1c:	f7fd ff3a 	bl	8002894 <HAL_GetTick>
 8004a20:	1bc0      	subs	r0, r0, r7
 8004a22:	2802      	cmp	r0, #2
 8004a24:	d827      	bhi.n	8004a76 <HAL_RCC_OscConfig+0x37a>
      while(READ_BIT(RCC->CSR, RCC_CSR_LSIRDY) != 0U)
 8004a26:	f8d6 3094 	ldr.w	r3, [r6, #148]	@ 0x94
 8004a2a:	079b      	lsls	r3, r3, #30
 8004a2c:	d4f6      	bmi.n	8004a1c <HAL_RCC_OscConfig+0x320>
 8004a2e:	e6e9      	b.n	8004804 <HAL_RCC_OscConfig+0x108>
       ((sysclk_source == RCC_CFGR_SWS_PLL) && (pll_config == RCC_PLLSOURCE_HSI)))
 8004a30:	2e02      	cmp	r6, #2
 8004a32:	f47f aeae 	bne.w	8004792 <HAL_RCC_OscConfig+0x96>
      if((READ_BIT(RCC->CR, RCC_CR_HSIRDY) != 0U) && (RCC_OscInitStruct->HSIState == RCC_HSI_OFF))
 8004a36:	4a75      	ldr	r2, [pc, #468]	@ (8004c0c <HAL_RCC_OscConfig+0x510>)
 8004a38:	6812      	ldr	r2, [r2, #0]
 8004a3a:	0552      	lsls	r2, r2, #21
 8004a3c:	d502      	bpl.n	8004a44 <HAL_RCC_OscConfig+0x348>
 8004a3e:	68e2      	ldr	r2, [r4, #12]
 8004a40:	2a00      	cmp	r2, #0
 8004a42:	d0d1      	beq.n	80049e8 <HAL_RCC_OscConfig+0x2ec>
        __HAL_RCC_HSI_CALIBRATIONVALUE_ADJUST(RCC_OscInitStruct->HSICalibrationValue);
 8004a44:	4971      	ldr	r1, [pc, #452]	@ (8004c0c <HAL_RCC_OscConfig+0x510>)
 8004a46:	6920      	ldr	r0, [r4, #16]
 8004a48:	684a      	ldr	r2, [r1, #4]
 8004a4a:	f022 42fe 	bic.w	r2, r2, #2130706432	@ 0x7f000000
 8004a4e:	ea42 6200 	orr.w	r2, r2, r0, lsl #24
 8004a52:	604a      	str	r2, [r1, #4]
      if((READ_BIT(RCC->CR, RCC_CR_HSIRDY) != 0U) && (RCC_OscInitStruct->HSIState == RCC_HSI_OFF))
 8004a54:	e6bb      	b.n	80047ce <HAL_RCC_OscConfig+0xd2>
        __HAL_RCC_MSI_DISABLE();
 8004a56:	683b      	ldr	r3, [r7, #0]
 8004a58:	f023 0301 	bic.w	r3, r3, #1
 8004a5c:	603b      	str	r3, [r7, #0]
        tickstart = HAL_GetTick();
 8004a5e:	f7fd ff19 	bl	8002894 <HAL_GetTick>
 8004a62:	4680      	mov	r8, r0
        while(READ_BIT(RCC->CR, RCC_CR_MSIRDY) != 0U)
 8004a64:	683b      	ldr	r3, [r7, #0]
 8004a66:	0798      	lsls	r0, r3, #30
 8004a68:	d5b6      	bpl.n	80049d8 <HAL_RCC_OscConfig+0x2dc>
          if((HAL_GetTick() - tickstart) > MSI_TIMEOUT_VALUE)
 8004a6a:	f7fd ff13 	bl	8002894 <HAL_GetTick>
 8004a6e:	eba0 0008 	sub.w	r0, r0, r8
 8004a72:	2802      	cmp	r0, #2
 8004a74:	d9f6      	bls.n	8004a64 <HAL_RCC_OscConfig+0x368>
            return HAL_TIMEOUT;
 8004a76:	2003      	movs	r0, #3
}
 8004a78:	b003      	add	sp, #12
 8004a7a:	e8bd 83f0 	ldmia.w	sp!, {r4, r5, r6, r7, r8, r9, pc}
      __HAL_RCC_HSE_CONFIG(RCC_OscInitStruct->HSEState);
 8004a7e:	4a63      	ldr	r2, [pc, #396]	@ (8004c0c <HAL_RCC_OscConfig+0x510>)
 8004a80:	6813      	ldr	r3, [r2, #0]
 8004a82:	f443 3380 	orr.w	r3, r3, #65536	@ 0x10000
 8004a86:	6013      	str	r3, [r2, #0]
        tickstart = HAL_GetTick();
 8004a88:	f7fd ff04 	bl	8002894 <HAL_GetTick>
        while(READ_BIT(RCC->CR, RCC_CR_HSERDY) == 0U)
 8004a8c:	f8df 817c 	ldr.w	r8, [pc, #380]	@ 8004c0c <HAL_RCC_OscConfig+0x510>
        tickstart = HAL_GetTick();
 8004a90:	4607      	mov	r7, r0
        while(READ_BIT(RCC->CR, RCC_CR_HSERDY) == 0U)
 8004a92:	e004      	b.n	8004a9e <HAL_RCC_OscConfig+0x3a2>
          if((HAL_GetTick() - tickstart) > HSE_TIMEOUT_VALUE)
 8004a94:	f7fd fefe 	bl	8002894 <HAL_GetTick>
 8004a98:	1bc0      	subs	r0, r0, r7
 8004a9a:	2864      	cmp	r0, #100	@ 0x64
 8004a9c:	d8eb      	bhi.n	8004a76 <HAL_RCC_OscConfig+0x37a>
        while(READ_BIT(RCC->CR, RCC_CR_HSERDY) == 0U)
 8004a9e:	f8d8 3000 	ldr.w	r3, [r8]
 8004aa2:	039b      	lsls	r3, r3, #14
 8004aa4:	d5f6      	bpl.n	8004a94 <HAL_RCC_OscConfig+0x398>
 8004aa6:	e752      	b.n	800494e <HAL_RCC_OscConfig+0x252>
    FlagStatus       pwrclkchanged = RESET;
 8004aa8:	2600      	movs	r6, #0
 8004aaa:	e6bd      	b.n	8004828 <HAL_RCC_OscConfig+0x12c>
        __HAL_RCC_HSI_DISABLE();
 8004aac:	6833      	ldr	r3, [r6, #0]
 8004aae:	f423 7380 	bic.w	r3, r3, #256	@ 0x100
 8004ab2:	6033      	str	r3, [r6, #0]
        tickstart = HAL_GetTick();
 8004ab4:	f7fd feee 	bl	8002894 <HAL_GetTick>
 8004ab8:	4607      	mov	r7, r0
        while(READ_BIT(RCC->CR, RCC_CR_HSIRDY) != 0U)
 8004aba:	e004      	b.n	8004ac6 <HAL_RCC_OscConfig+0x3ca>
          if((HAL_GetTick() - tickstart) > HSI_TIMEOUT_VALUE)
 8004abc:	f7fd feea 	bl	8002894 <HAL_GetTick>
 8004ac0:	1bc0      	subs	r0, r0, r7
 8004ac2:	2802      	cmp	r0, #2
 8004ac4:	d8d7      	bhi.n	8004a76 <HAL_RCC_OscConfig+0x37a>
        while(READ_BIT(RCC->CR, RCC_CR_HSIRDY) != 0U)
 8004ac6:	6833      	ldr	r3, [r6, #0]
 8004ac8:	0558      	lsls	r0, r3, #21
 8004aca:	d4f7      	bmi.n	8004abc <HAL_RCC_OscConfig+0x3c0>
  if(((RCC_OscInitStruct->OscillatorType) & RCC_OSCILLATORTYPE_LSI) == RCC_OSCILLATORTYPE_LSI)
 8004acc:	6823      	ldr	r3, [r4, #0]
 8004ace:	e67e      	b.n	80047ce <HAL_RCC_OscConfig+0xd2>
    __HAL_RCC_LSE_CONFIG(RCC_OscInitStruct->LSEState);
 8004ad0:	4a4e      	ldr	r2, [pc, #312]	@ (8004c0c <HAL_RCC_OscConfig+0x510>)
 8004ad2:	f8d2 3090 	ldr.w	r3, [r2, #144]	@ 0x90
 8004ad6:	f043 0301 	orr.w	r3, r3, #1
 8004ada:	f8c2 3090 	str.w	r3, [r2, #144]	@ 0x90
      tickstart = HAL_GetTick();
 8004ade:	f7fd fed9 	bl	8002894 <HAL_GetTick>
      while(READ_BIT(RCC->BDCR, RCC_BDCR_LSERDY) == 0U)
 8004ae2:	f8df 8128 	ldr.w	r8, [pc, #296]	@ 8004c0c <HAL_RCC_OscConfig+0x510>
      tickstart = HAL_GetTick();
 8004ae6:	4607      	mov	r7, r0
        if((HAL_GetTick() - tickstart) > RCC_LSE_TIMEOUT_VALUE)
 8004ae8:	f241 3988 	movw	r9, #5000	@ 0x1388
      while(READ_BIT(RCC->BDCR, RCC_BDCR_LSERDY) == 0U)
 8004aec:	e004      	b.n	8004af8 <HAL_RCC_OscConfig+0x3fc>
        if((HAL_GetTick() - tickstart) > RCC_LSE_TIMEOUT_VALUE)
 8004aee:	f7fd fed1 	bl	8002894 <HAL_GetTick>
 8004af2:	1bc0      	subs	r0, r0, r7
 8004af4:	4548      	cmp	r0, r9
 8004af6:	d8be      	bhi.n	8004a76 <HAL_RCC_OscConfig+0x37a>
      while(READ_BIT(RCC->BDCR, RCC_BDCR_LSERDY) == 0U)
 8004af8:	f8d8 3090 	ldr.w	r3, [r8, #144]	@ 0x90
 8004afc:	079a      	lsls	r2, r3, #30
 8004afe:	d5f6      	bpl.n	8004aee <HAL_RCC_OscConfig+0x3f2>
    if(pwrclkchanged == SET)
 8004b00:	2e00      	cmp	r6, #0
 8004b02:	f43f aec1 	beq.w	8004888 <HAL_RCC_OscConfig+0x18c>
 8004b06:	e03f      	b.n	8004b88 <HAL_RCC_OscConfig+0x48c>
          if(RCC_SetFlashLatencyFromMSIRange(RCC_OscInitStruct->MSIClockRange) != HAL_OK)
 8004b08:	f7ff fd58 	bl	80045bc <RCC_SetFlashLatencyFromMSIRange>
 8004b0c:	2800      	cmp	r0, #0
 8004b0e:	f47f af6b 	bne.w	80049e8 <HAL_RCC_OscConfig+0x2ec>
          __HAL_RCC_MSI_RANGE_CONFIG(RCC_OscInitStruct->MSIClockRange);
 8004b12:	4b3e      	ldr	r3, [pc, #248]	@ (8004c0c <HAL_RCC_OscConfig+0x510>)
 8004b14:	681a      	ldr	r2, [r3, #0]
 8004b16:	f042 0208 	orr.w	r2, r2, #8
 8004b1a:	601a      	str	r2, [r3, #0]
 8004b1c:	681a      	ldr	r2, [r3, #0]
 8004b1e:	6a21      	ldr	r1, [r4, #32]
 8004b20:	f022 02f0 	bic.w	r2, r2, #240	@ 0xf0
 8004b24:	430a      	orrs	r2, r1
 8004b26:	601a      	str	r2, [r3, #0]
          __HAL_RCC_MSI_CALIBRATIONVALUE_ADJUST(RCC_OscInitStruct->MSICalibrationValue);
 8004b28:	685a      	ldr	r2, [r3, #4]
 8004b2a:	69e1      	ldr	r1, [r4, #28]
 8004b2c:	f422 427f 	bic.w	r2, r2, #65280	@ 0xff00
 8004b30:	ea42 2201 	orr.w	r2, r2, r1, lsl #8
 8004b34:	605a      	str	r2, [r3, #4]
 8004b36:	e73c      	b.n	80049b2 <HAL_RCC_OscConfig+0x2b6>
      __HAL_RCC_HSI48_DISABLE();
 8004b38:	f8d6 3098 	ldr.w	r3, [r6, #152]	@ 0x98
 8004b3c:	f023 0301 	bic.w	r3, r3, #1
 8004b40:	f8c6 3098 	str.w	r3, [r6, #152]	@ 0x98
      tickstart = HAL_GetTick();
 8004b44:	f7fd fea6 	bl	8002894 <HAL_GetTick>
 8004b48:	4607      	mov	r7, r0
      while(READ_BIT(RCC->CRRCR, RCC_CRRCR_HSI48RDY) != 0U)
 8004b4a:	e004      	b.n	8004b56 <HAL_RCC_OscConfig+0x45a>
        if((HAL_GetTick() - tickstart) > HSI48_TIMEOUT_VALUE)
 8004b4c:	f7fd fea2 	bl	8002894 <HAL_GetTick>
 8004b50:	1bc0      	subs	r0, r0, r7
 8004b52:	2802      	cmp	r0, #2
 8004b54:	d88f      	bhi.n	8004a76 <HAL_RCC_OscConfig+0x37a>
      while(READ_BIT(RCC->CRRCR, RCC_CRRCR_HSI48RDY) != 0U)
 8004b56:	f8d6 3098 	ldr.w	r3, [r6, #152]	@ 0x98
 8004b5a:	0799      	lsls	r1, r3, #30
 8004b5c:	d4f6      	bmi.n	8004b4c <HAL_RCC_OscConfig+0x450>
 8004b5e:	e6af      	b.n	80048c0 <HAL_RCC_OscConfig+0x1c4>
    return HAL_ERROR;
 8004b60:	2001      	movs	r0, #1
}
 8004b62:	4770      	bx	lr
      SET_BIT(PWR->CR1, PWR_CR1_DBP);
 8004b64:	683b      	ldr	r3, [r7, #0]
 8004b66:	f443 7380 	orr.w	r3, r3, #256	@ 0x100
 8004b6a:	603b      	str	r3, [r7, #0]
      tickstart = HAL_GetTick();
 8004b6c:	f7fd fe92 	bl	8002894 <HAL_GetTick>
 8004b70:	4680      	mov	r8, r0
      while(HAL_IS_BIT_CLR(PWR->CR1, PWR_CR1_DBP))
 8004b72:	683b      	ldr	r3, [r7, #0]
 8004b74:	05d9      	lsls	r1, r3, #23
 8004b76:	f53f ae5c 	bmi.w	8004832 <HAL_RCC_OscConfig+0x136>
        if((HAL_GetTick() - tickstart) > RCC_DBP_TIMEOUT_VALUE)
 8004b7a:	f7fd fe8b 	bl	8002894 <HAL_GetTick>
 8004b7e:	eba0 0008 	sub.w	r0, r0, r8
 8004b82:	2802      	cmp	r0, #2
 8004b84:	d9f5      	bls.n	8004b72 <HAL_RCC_OscConfig+0x476>
 8004b86:	e776      	b.n	8004a76 <HAL_RCC_OscConfig+0x37a>
      __HAL_RCC_PWR_CLK_DISABLE();
 8004b88:	4a20      	ldr	r2, [pc, #128]	@ (8004c0c <HAL_RCC_OscConfig+0x510>)
 8004b8a:	6d93      	ldr	r3, [r2, #88]	@ 0x58
 8004b8c:	f023 5380 	bic.w	r3, r3, #268435456	@ 0x10000000
 8004b90:	6593      	str	r3, [r2, #88]	@ 0x58
 8004b92:	e679      	b.n	8004888 <HAL_RCC_OscConfig+0x18c>
            if(RCC_SetFlashLatencyFromMSIRange(RCC_OscInitStruct->MSIClockRange) != HAL_OK)
 8004b94:	f7ff fd12 	bl	80045bc <RCC_SetFlashLatencyFromMSIRange>
 8004b98:	2800      	cmp	r0, #0
 8004b9a:	f43f af0a 	beq.w	80049b2 <HAL_RCC_OscConfig+0x2b6>
 8004b9e:	e723      	b.n	80049e8 <HAL_RCC_OscConfig+0x2ec>
      __HAL_RCC_HSE_CONFIG(RCC_OscInitStruct->HSEState);
 8004ba0:	f103 4380 	add.w	r3, r3, #1073741824	@ 0x40000000
 8004ba4:	f5a3 333c 	sub.w	r3, r3, #192512	@ 0x2f000
 8004ba8:	681a      	ldr	r2, [r3, #0]
 8004baa:	f442 2280 	orr.w	r2, r2, #262144	@ 0x40000
 8004bae:	601a      	str	r2, [r3, #0]
 8004bb0:	681a      	ldr	r2, [r3, #0]
 8004bb2:	f442 3280 	orr.w	r2, r2, #65536	@ 0x10000
 8004bb6:	601a      	str	r2, [r3, #0]
      if(RCC_OscInitStruct->HSEState != RCC_HSE_OFF)
 8004bb8:	e766      	b.n	8004a88 <HAL_RCC_OscConfig+0x38c>
    __HAL_RCC_LSE_CONFIG(RCC_OscInitStruct->LSEState);
 8004bba:	4b14      	ldr	r3, [pc, #80]	@ (8004c0c <HAL_RCC_OscConfig+0x510>)
 8004bbc:	f8d3 2090 	ldr.w	r2, [r3, #144]	@ 0x90
 8004bc0:	f042 0204 	orr.w	r2, r2, #4
 8004bc4:	f8c3 2090 	str.w	r2, [r3, #144]	@ 0x90
 8004bc8:	f8d3 2090 	ldr.w	r2, [r3, #144]	@ 0x90
 8004bcc:	f042 0201 	orr.w	r2, r2, #1
 8004bd0:	f8c3 2090 	str.w	r2, [r3, #144]	@ 0x90
    if(RCC_OscInitStruct->LSEState != RCC_LSE_OFF)
 8004bd4:	e783      	b.n	8004ade <HAL_RCC_OscConfig+0x3e2>
      pll_config = RCC->PLLCFGR;
 8004bd6:	4e0d      	ldr	r6, [pc, #52]	@ (8004c0c <HAL_RCC_OscConfig+0x510>)
      if((READ_BIT(pll_config, RCC_PLLCFGR_PLLSRC)  != RCC_OscInitStruct->PLL.PLLSource) ||
 8004bd8:	6ae2      	ldr	r2, [r4, #44]	@ 0x2c
      pll_config = RCC->PLLCFGR;
 8004bda:	68f3      	ldr	r3, [r6, #12]
      if((READ_BIT(pll_config, RCC_PLLCFGR_PLLSRC)  != RCC_OscInitStruct->PLL.PLLSource) ||
 8004bdc:	f003 0103 	and.w	r1, r3, #3
 8004be0:	4291      	cmp	r1, r2
 8004be2:	d055      	beq.n	8004c90 <HAL_RCC_OscConfig+0x594>
        if(sysclk_source != RCC_CFGR_SWS_PLL)
 8004be4:	2d0c      	cmp	r5, #12
 8004be6:	f43f aeff 	beq.w	80049e8 <HAL_RCC_OscConfig+0x2ec>
          if((READ_BIT(RCC->CR, RCC_CR_PLLSAI1ON) != 0U)
 8004bea:	4d08      	ldr	r5, [pc, #32]	@ (8004c0c <HAL_RCC_OscConfig+0x510>)
 8004bec:	682b      	ldr	r3, [r5, #0]
 8004bee:	015a      	lsls	r2, r3, #5
 8004bf0:	f53f aefa 	bmi.w	80049e8 <HAL_RCC_OscConfig+0x2ec>
             || (READ_BIT(RCC->CR, RCC_CR_PLLSAI2ON) != 0U)
 8004bf4:	682b      	ldr	r3, [r5, #0]
 8004bf6:	00db      	lsls	r3, r3, #3
 8004bf8:	f53f aef6 	bmi.w	80049e8 <HAL_RCC_OscConfig+0x2ec>
            __HAL_RCC_PLL_DISABLE();
 8004bfc:	682b      	ldr	r3, [r5, #0]
 8004bfe:	f023 7380 	bic.w	r3, r3, #16777216	@ 0x1000000
 8004c02:	602b      	str	r3, [r5, #0]
            tickstart = HAL_GetTick();
 8004c04:	f7fd fe46 	bl	8002894 <HAL_GetTick>
 8004c08:	4606      	mov	r6, r0
            while(READ_BIT(RCC->CR, RCC_CR_PLLRDY) != 0U)
 8004c0a:	e00d      	b.n	8004c28 <HAL_RCC_OscConfig+0x52c>
 8004c0c:	40021000 	.word	0x40021000
 8004c10:	080097e4 	.word	0x080097e4
 8004c14:	20000408 	.word	0x20000408
 8004c18:	20000400 	.word	0x20000400
              if((HAL_GetTick() - tickstart) > PLL_TIMEOUT_VALUE)
 8004c1c:	f7fd fe3a 	bl	8002894 <HAL_GetTick>
 8004c20:	1b80      	subs	r0, r0, r6
 8004c22:	2802      	cmp	r0, #2
 8004c24:	f63f af27 	bhi.w	8004a76 <HAL_RCC_OscConfig+0x37a>
            while(READ_BIT(RCC->CR, RCC_CR_PLLRDY) != 0U)
 8004c28:	682b      	ldr	r3, [r5, #0]
 8004c2a:	019f      	lsls	r7, r3, #6
 8004c2c:	d4f6      	bmi.n	8004c1c <HAL_RCC_OscConfig+0x520>
            __HAL_RCC_PLL_CONFIG(RCC_OscInitStruct->PLL.PLLSource,
 8004c2e:	68e9      	ldr	r1, [r5, #12]
 8004c30:	4b36      	ldr	r3, [pc, #216]	@ (8004d0c <HAL_RCC_OscConfig+0x610>)
 8004c32:	6ae2      	ldr	r2, [r4, #44]	@ 0x2c
 8004c34:	6b20      	ldr	r0, [r4, #48]	@ 0x30
            while(READ_BIT(RCC->CR, RCC_CR_PLLRDY) == 0U)
 8004c36:	4e36      	ldr	r6, [pc, #216]	@ (8004d10 <HAL_RCC_OscConfig+0x614>)
            __HAL_RCC_PLL_CONFIG(RCC_OscInitStruct->PLL.PLLSource,
 8004c38:	400b      	ands	r3, r1
 8004c3a:	4313      	orrs	r3, r2
 8004c3c:	e9d4 120d 	ldrd	r1, r2, [r4, #52]	@ 0x34
 8004c40:	ea43 2301 	orr.w	r3, r3, r1, lsl #8
 8004c44:	ea43 63c2 	orr.w	r3, r3, r2, lsl #27
 8004c48:	e9d4 120f 	ldrd	r1, r2, [r4, #60]	@ 0x3c
 8004c4c:	3801      	subs	r0, #1
 8004c4e:	0849      	lsrs	r1, r1, #1
 8004c50:	ea43 1300 	orr.w	r3, r3, r0, lsl #4
 8004c54:	3901      	subs	r1, #1
 8004c56:	0852      	lsrs	r2, r2, #1
 8004c58:	ea43 5341 	orr.w	r3, r3, r1, lsl #21
 8004c5c:	3a01      	subs	r2, #1
 8004c5e:	ea43 6342 	orr.w	r3, r3, r2, lsl #25
 8004c62:	60eb      	str	r3, [r5, #12]
            __HAL_RCC_PLL_ENABLE();
 8004c64:	682b      	ldr	r3, [r5, #0]
 8004c66:	f043 7380 	orr.w	r3, r3, #16777216	@ 0x1000000
 8004c6a:	602b      	str	r3, [r5, #0]
            __HAL_RCC_PLLCLKOUT_ENABLE(RCC_PLL_SYSCLK);
 8004c6c:	68eb      	ldr	r3, [r5, #12]
 8004c6e:	f043 7380 	orr.w	r3, r3, #16777216	@ 0x1000000
 8004c72:	60eb      	str	r3, [r5, #12]
            tickstart = HAL_GetTick();
 8004c74:	f7fd fe0e 	bl	8002894 <HAL_GetTick>
 8004c78:	4604      	mov	r4, r0
            while(READ_BIT(RCC->CR, RCC_CR_PLLRDY) == 0U)
 8004c7a:	e005      	b.n	8004c88 <HAL_RCC_OscConfig+0x58c>
              if((HAL_GetTick() - tickstart) > PLL_TIMEOUT_VALUE)
 8004c7c:	f7fd fe0a 	bl	8002894 <HAL_GetTick>
 8004c80:	1b00      	subs	r0, r0, r4
 8004c82:	2802      	cmp	r0, #2
 8004c84:	f63f aef7 	bhi.w	8004a76 <HAL_RCC_OscConfig+0x37a>
            while(READ_BIT(RCC->CR, RCC_CR_PLLRDY) == 0U)
 8004c88:	6833      	ldr	r3, [r6, #0]
 8004c8a:	0198      	lsls	r0, r3, #6
 8004c8c:	d5f6      	bpl.n	8004c7c <HAL_RCC_OscConfig+0x580>
 8004c8e:	e635      	b.n	80048fc <HAL_RCC_OscConfig+0x200>
         (READ_BIT(pll_config, RCC_PLLCFGR_PLLM)    != ((RCC_OscInitStruct->PLL.PLLM - 1U) << RCC_PLLCFGR_PLLM_Pos)) ||
 8004c90:	6b21      	ldr	r1, [r4, #48]	@ 0x30
 8004c92:	f003 0270 	and.w	r2, r3, #112	@ 0x70
 8004c96:	3901      	subs	r1, #1
      if((READ_BIT(pll_config, RCC_PLLCFGR_PLLSRC)  != RCC_OscInitStruct->PLL.PLLSource) ||
 8004c98:	ebb2 1f01 	cmp.w	r2, r1, lsl #4
 8004c9c:	d1a2      	bne.n	8004be4 <HAL_RCC_OscConfig+0x4e8>
         (READ_BIT(pll_config, RCC_PLLCFGR_PLLN)    != (RCC_OscInitStruct->PLL.PLLN << RCC_PLLCFGR_PLLN_Pos)) ||
 8004c9e:	6b61      	ldr	r1, [r4, #52]	@ 0x34
 8004ca0:	f403 42fe 	and.w	r2, r3, #32512	@ 0x7f00
         (READ_BIT(pll_config, RCC_PLLCFGR_PLLM)    != ((RCC_OscInitStruct->PLL.PLLM - 1U) << RCC_PLLCFGR_PLLM_Pos)) ||
 8004ca4:	ebb2 2f01 	cmp.w	r2, r1, lsl #8
 8004ca8:	d19c      	bne.n	8004be4 <HAL_RCC_OscConfig+0x4e8>
         (READ_BIT(pll_config, RCC_PLLCFGR_PLLPDIV) != (RCC_OscInitStruct->PLL.PLLP << RCC_PLLCFGR_PLLPDIV_Pos)) ||
 8004caa:	6ba1      	ldr	r1, [r4, #56]	@ 0x38
 8004cac:	f003 4278 	and.w	r2, r3, #4160749568	@ 0xf8000000
         (READ_BIT(pll_config, RCC_PLLCFGR_PLLN)    != (RCC_OscInitStruct->PLL.PLLN << RCC_PLLCFGR_PLLN_Pos)) ||
 8004cb0:	ebb2 6fc1 	cmp.w	r2, r1, lsl #27
 8004cb4:	d196      	bne.n	8004be4 <HAL_RCC_OscConfig+0x4e8>
         (READ_BIT(pll_config, RCC_PLLCFGR_PLLQ)    != ((((RCC_OscInitStruct->PLL.PLLQ) >> 1U) - 1U) << RCC_PLLCFGR_PLLQ_Pos)) ||
 8004cb6:	6be2      	ldr	r2, [r4, #60]	@ 0x3c
 8004cb8:	0852      	lsrs	r2, r2, #1
 8004cba:	f403 01c0 	and.w	r1, r3, #6291456	@ 0x600000
 8004cbe:	3a01      	subs	r2, #1
         (READ_BIT(pll_config, RCC_PLLCFGR_PLLPDIV) != (RCC_OscInitStruct->PLL.PLLP << RCC_PLLCFGR_PLLPDIV_Pos)) ||
 8004cc0:	ebb1 5f42 	cmp.w	r1, r2, lsl #21
 8004cc4:	d18e      	bne.n	8004be4 <HAL_RCC_OscConfig+0x4e8>
         (READ_BIT(pll_config, RCC_PLLCFGR_PLLR)    != ((((RCC_OscInitStruct->PLL.PLLR) >> 1U) - 1U) << RCC_PLLCFGR_PLLR_Pos)))
 8004cc6:	6c22      	ldr	r2, [r4, #64]	@ 0x40
 8004cc8:	0852      	lsrs	r2, r2, #1
 8004cca:	f003 63c0 	and.w	r3, r3, #100663296	@ 0x6000000
 8004cce:	3a01      	subs	r2, #1
         (READ_BIT(pll_config, RCC_PLLCFGR_PLLQ)    != ((((RCC_OscInitStruct->PLL.PLLQ) >> 1U) - 1U) << RCC_PLLCFGR_PLLQ_Pos)) ||
 8004cd0:	ebb3 6f42 	cmp.w	r3, r2, lsl #25
 8004cd4:	d186      	bne.n	8004be4 <HAL_RCC_OscConfig+0x4e8>
        if(READ_BIT(RCC->CR, RCC_CR_PLLRDY) == 0U)
 8004cd6:	6833      	ldr	r3, [r6, #0]
 8004cd8:	0199      	lsls	r1, r3, #6
 8004cda:	f53f ae0f 	bmi.w	80048fc <HAL_RCC_OscConfig+0x200>
          __HAL_RCC_PLL_ENABLE();
 8004cde:	6833      	ldr	r3, [r6, #0]
 8004ce0:	f043 7380 	orr.w	r3, r3, #16777216	@ 0x1000000
 8004ce4:	6033      	str	r3, [r6, #0]
          __HAL_RCC_PLLCLKOUT_ENABLE(RCC_PLL_SYSCLK);
 8004ce6:	68f3      	ldr	r3, [r6, #12]
 8004ce8:	f043 7380 	orr.w	r3, r3, #16777216	@ 0x1000000
 8004cec:	60f3      	str	r3, [r6, #12]
          tickstart = HAL_GetTick();
 8004cee:	f7fd fdd1 	bl	8002894 <HAL_GetTick>
 8004cf2:	4604      	mov	r4, r0
          while(READ_BIT(RCC->CR, RCC_CR_PLLRDY) == 0U)
 8004cf4:	e005      	b.n	8004d02 <HAL_RCC_OscConfig+0x606>
            if((HAL_GetTick() - tickstart) > PLL_TIMEOUT_VALUE)
 8004cf6:	f7fd fdcd 	bl	8002894 <HAL_GetTick>
 8004cfa:	1b03      	subs	r3, r0, r4
 8004cfc:	2b02      	cmp	r3, #2
 8004cfe:	f63f aeba 	bhi.w	8004a76 <HAL_RCC_OscConfig+0x37a>
          while(READ_BIT(RCC->CR, RCC_CR_PLLRDY) == 0U)
 8004d02:	6833      	ldr	r3, [r6, #0]
 8004d04:	019a      	lsls	r2, r3, #6
 8004d06:	d5f6      	bpl.n	8004cf6 <HAL_RCC_OscConfig+0x5fa>
 8004d08:	e5f8      	b.n	80048fc <HAL_RCC_OscConfig+0x200>
 8004d0a:	bf00      	nop
 8004d0c:	019d808c 	.word	0x019d808c
 8004d10:	40021000 	.word	0x40021000

08004d14 <HAL_RCC_ClockConfig>:
  if(RCC_ClkInitStruct == NULL)
 8004d14:	2800      	cmp	r0, #0
 8004d16:	f000 80a0 	beq.w	8004e5a <HAL_RCC_ClockConfig+0x146>
  if(FLatency > __HAL_FLASH_GET_LATENCY())
 8004d1a:	4a54      	ldr	r2, [pc, #336]	@ (8004e6c <HAL_RCC_ClockConfig+0x158>)
 8004d1c:	6813      	ldr	r3, [r2, #0]
 8004d1e:	f003 0307 	and.w	r3, r3, #7
 8004d22:	428b      	cmp	r3, r1
{
 8004d24:	e92d 41f0 	stmdb	sp!, {r4, r5, r6, r7, r8, lr}
 8004d28:	460d      	mov	r5, r1
 8004d2a:	4604      	mov	r4, r0
  if(FLatency > __HAL_FLASH_GET_LATENCY())
 8004d2c:	d20c      	bcs.n	8004d48 <HAL_RCC_ClockConfig+0x34>
    __HAL_FLASH_SET_LATENCY(FLatency);
 8004d2e:	6813      	ldr	r3, [r2, #0]
 8004d30:	f023 0307 	bic.w	r3, r3, #7
 8004d34:	430b      	orrs	r3, r1
 8004d36:	6013      	str	r3, [r2, #0]
    if(__HAL_FLASH_GET_LATENCY() != FLatency)
 8004d38:	6813      	ldr	r3, [r2, #0]
 8004d3a:	f003 0307 	and.w	r3, r3, #7
 8004d3e:	428b      	cmp	r3, r1
 8004d40:	d002      	beq.n	8004d48 <HAL_RCC_ClockConfig+0x34>
    return HAL_ERROR;
 8004d42:	2001      	movs	r0, #1
}
 8004d44:	e8bd 81f0 	ldmia.w	sp!, {r4, r5, r6, r7, r8, pc}
  if(((RCC_ClkInitStruct->ClockType) & RCC_CLOCKTYPE_HCLK) == RCC_CLOCKTYPE_HCLK)
 8004d48:	6823      	ldr	r3, [r4, #0]
 8004d4a:	0799      	lsls	r1, r3, #30
  if(((RCC_ClkInitStruct->ClockType) & RCC_CLOCKTYPE_SYSCLK) == RCC_CLOCKTYPE_SYSCLK)
 8004d4c:	f003 0201 	and.w	r2, r3, #1
  if(((RCC_ClkInitStruct->ClockType) & RCC_CLOCKTYPE_HCLK) == RCC_CLOCKTYPE_HCLK)
 8004d50:	d570      	bpl.n	8004e34 <HAL_RCC_ClockConfig+0x120>
    if(RCC_ClkInitStruct->AHBCLKDivider > READ_BIT(RCC->CFGR, RCC_CFGR_HPRE))
 8004d52:	4e47      	ldr	r6, [pc, #284]	@ (8004e70 <HAL_RCC_ClockConfig+0x15c>)
 8004d54:	68a0      	ldr	r0, [r4, #8]
 8004d56:	68b1      	ldr	r1, [r6, #8]
 8004d58:	f001 01f0 	and.w	r1, r1, #240	@ 0xf0
 8004d5c:	4288      	cmp	r0, r1
 8004d5e:	d904      	bls.n	8004d6a <HAL_RCC_ClockConfig+0x56>
      MODIFY_REG(RCC->CFGR, RCC_CFGR_HPRE, RCC_ClkInitStruct->AHBCLKDivider);
 8004d60:	68b1      	ldr	r1, [r6, #8]
 8004d62:	f021 01f0 	bic.w	r1, r1, #240	@ 0xf0
 8004d66:	4301      	orrs	r1, r0
 8004d68:	60b1      	str	r1, [r6, #8]
  if(((RCC_ClkInitStruct->ClockType) & RCC_CLOCKTYPE_SYSCLK) == RCC_CLOCKTYPE_SYSCLK)
 8004d6a:	b332      	cbz	r2, 8004dba <HAL_RCC_ClockConfig+0xa6>
    if(RCC_ClkInitStruct->SYSCLKSource == RCC_SYSCLKSOURCE_PLLCLK)
 8004d6c:	6862      	ldr	r2, [r4, #4]
      if(READ_BIT(RCC->CR, RCC_CR_PLLRDY) == 0U)
 8004d6e:	4b40      	ldr	r3, [pc, #256]	@ (8004e70 <HAL_RCC_ClockConfig+0x15c>)
    if(RCC_ClkInitStruct->SYSCLKSource == RCC_SYSCLKSOURCE_PLLCLK)
 8004d70:	2a03      	cmp	r2, #3
      if(READ_BIT(RCC->CR, RCC_CR_PLLRDY) == 0U)
 8004d72:	681b      	ldr	r3, [r3, #0]
    if(RCC_ClkInitStruct->SYSCLKSource == RCC_SYSCLKSOURCE_PLLCLK)
 8004d74:	d065      	beq.n	8004e42 <HAL_RCC_ClockConfig+0x12e>
      if(RCC_ClkInitStruct->SYSCLKSource == RCC_SYSCLKSOURCE_HSE)
 8004d76:	2a02      	cmp	r2, #2
 8004d78:	d06c      	beq.n	8004e54 <HAL_RCC_ClockConfig+0x140>
      else if(RCC_ClkInitStruct->SYSCLKSource == RCC_SYSCLKSOURCE_MSI)
 8004d7a:	2a00      	cmp	r2, #0
 8004d7c:	d171      	bne.n	8004e62 <HAL_RCC_ClockConfig+0x14e>
        if(READ_BIT(RCC->CR, RCC_CR_MSIRDY) == 0U)
 8004d7e:	079e      	lsls	r6, r3, #30
 8004d80:	d5df      	bpl.n	8004d42 <HAL_RCC_ClockConfig+0x2e>
    MODIFY_REG(RCC->CFGR, RCC_CFGR_SW, RCC_ClkInitStruct->SYSCLKSource);
 8004d82:	4e3b      	ldr	r6, [pc, #236]	@ (8004e70 <HAL_RCC_ClockConfig+0x15c>)
 8004d84:	68b3      	ldr	r3, [r6, #8]
 8004d86:	f023 0303 	bic.w	r3, r3, #3
 8004d8a:	4313      	orrs	r3, r2
 8004d8c:	60b3      	str	r3, [r6, #8]
    tickstart = HAL_GetTick();
 8004d8e:	f7fd fd81 	bl	8002894 <HAL_GetTick>
      if((HAL_GetTick() - tickstart) > CLOCKSWITCH_TIMEOUT_VALUE)
 8004d92:	f241 3888 	movw	r8, #5000	@ 0x1388
    tickstart = HAL_GetTick();
 8004d96:	4607      	mov	r7, r0
    while(__HAL_RCC_GET_SYSCLK_SOURCE() != (RCC_ClkInitStruct->SYSCLKSource << RCC_CFGR_SWS_Pos))
 8004d98:	e004      	b.n	8004da4 <HAL_RCC_ClockConfig+0x90>
      if((HAL_GetTick() - tickstart) > CLOCKSWITCH_TIMEOUT_VALUE)
 8004d9a:	f7fd fd7b 	bl	8002894 <HAL_GetTick>
 8004d9e:	1bc0      	subs	r0, r0, r7
 8004da0:	4540      	cmp	r0, r8
 8004da2:	d85c      	bhi.n	8004e5e <HAL_RCC_ClockConfig+0x14a>
    while(__HAL_RCC_GET_SYSCLK_SOURCE() != (RCC_ClkInitStruct->SYSCLKSource << RCC_CFGR_SWS_Pos))
 8004da4:	68b3      	ldr	r3, [r6, #8]
 8004da6:	6862      	ldr	r2, [r4, #4]
 8004da8:	f003 030c 	and.w	r3, r3, #12
 8004dac:	ebb3 0f82 	cmp.w	r3, r2, lsl #2
 8004db0:	d1f3      	bne.n	8004d9a <HAL_RCC_ClockConfig+0x86>
  if(((RCC_ClkInitStruct->ClockType) & RCC_CLOCKTYPE_HCLK) == RCC_CLOCKTYPE_HCLK)
 8004db2:	6823      	ldr	r3, [r4, #0]
 8004db4:	0799      	lsls	r1, r3, #30
 8004db6:	d506      	bpl.n	8004dc6 <HAL_RCC_ClockConfig+0xb2>
    if(RCC_ClkInitStruct->AHBCLKDivider < READ_BIT(RCC->CFGR, RCC_CFGR_HPRE))
 8004db8:	68a0      	ldr	r0, [r4, #8]
 8004dba:	492d      	ldr	r1, [pc, #180]	@ (8004e70 <HAL_RCC_ClockConfig+0x15c>)
 8004dbc:	688a      	ldr	r2, [r1, #8]
 8004dbe:	f002 02f0 	and.w	r2, r2, #240	@ 0xf0
 8004dc2:	4282      	cmp	r2, r0
 8004dc4:	d840      	bhi.n	8004e48 <HAL_RCC_ClockConfig+0x134>
  if(FLatency < __HAL_FLASH_GET_LATENCY())
 8004dc6:	4929      	ldr	r1, [pc, #164]	@ (8004e6c <HAL_RCC_ClockConfig+0x158>)
 8004dc8:	680a      	ldr	r2, [r1, #0]
 8004dca:	f002 0207 	and.w	r2, r2, #7
 8004dce:	42aa      	cmp	r2, r5
 8004dd0:	d909      	bls.n	8004de6 <HAL_RCC_ClockConfig+0xd2>
    __HAL_FLASH_SET_LATENCY(FLatency);
 8004dd2:	680a      	ldr	r2, [r1, #0]
 8004dd4:	f022 0207 	bic.w	r2, r2, #7
 8004dd8:	432a      	orrs	r2, r5
 8004dda:	600a      	str	r2, [r1, #0]
    if(__HAL_FLASH_GET_LATENCY() != FLatency)
 8004ddc:	680a      	ldr	r2, [r1, #0]
 8004dde:	f002 0207 	and.w	r2, r2, #7
 8004de2:	42aa      	cmp	r2, r5
 8004de4:	d1ad      	bne.n	8004d42 <HAL_RCC_ClockConfig+0x2e>
  if(((RCC_ClkInitStruct->ClockType) & RCC_CLOCKTYPE_PCLK1) == RCC_CLOCKTYPE_PCLK1)
 8004de6:	075a      	lsls	r2, r3, #29
 8004de8:	d506      	bpl.n	8004df8 <HAL_RCC_ClockConfig+0xe4>
    MODIFY_REG(RCC->CFGR, RCC_CFGR_PPRE1, RCC_ClkInitStruct->APB1CLKDivider);
 8004dea:	4921      	ldr	r1, [pc, #132]	@ (8004e70 <HAL_RCC_ClockConfig+0x15c>)
 8004dec:	68e0      	ldr	r0, [r4, #12]
 8004dee:	688a      	ldr	r2, [r1, #8]
 8004df0:	f422 62e0 	bic.w	r2, r2, #1792	@ 0x700
 8004df4:	4302      	orrs	r2, r0
 8004df6:	608a      	str	r2, [r1, #8]
  if(((RCC_ClkInitStruct->ClockType) & RCC_CLOCKTYPE_PCLK2) == RCC_CLOCKTYPE_PCLK2)
 8004df8:	071b      	lsls	r3, r3, #28
 8004dfa:	d507      	bpl.n	8004e0c <HAL_RCC_ClockConfig+0xf8>
    MODIFY_REG(RCC->CFGR, RCC_CFGR_PPRE2, ((RCC_ClkInitStruct->APB2CLKDivider) << 3U));
 8004dfc:	4a1c      	ldr	r2, [pc, #112]	@ (8004e70 <HAL_RCC_ClockConfig+0x15c>)
 8004dfe:	6921      	ldr	r1, [r4, #16]
 8004e00:	6893      	ldr	r3, [r2, #8]
 8004e02:	f423 5360 	bic.w	r3, r3, #14336	@ 0x3800
 8004e06:	ea43 03c1 	orr.w	r3, r3, r1, lsl #3
 8004e0a:	6093      	str	r3, [r2, #8]
  SystemCoreClock = HAL_RCC_GetSysClockFreq() >> (AHBPrescTable[READ_BIT(RCC->CFGR, RCC_CFGR_HPRE) >> RCC_CFGR_HPRE_Pos] & 0x1FU);
 8004e0c:	f7ff fc1c 	bl	8004648 <HAL_RCC_GetSysClockFreq>
 8004e10:	4a17      	ldr	r2, [pc, #92]	@ (8004e70 <HAL_RCC_ClockConfig+0x15c>)
 8004e12:	4c18      	ldr	r4, [pc, #96]	@ (8004e74 <HAL_RCC_ClockConfig+0x160>)
 8004e14:	6892      	ldr	r2, [r2, #8]
 8004e16:	4918      	ldr	r1, [pc, #96]	@ (8004e78 <HAL_RCC_ClockConfig+0x164>)
 8004e18:	f3c2 1203 	ubfx	r2, r2, #4, #4
 8004e1c:	4603      	mov	r3, r0
 8004e1e:	5ca2      	ldrb	r2, [r4, r2]
  status = HAL_InitTick(uwTickPrio);
 8004e20:	4816      	ldr	r0, [pc, #88]	@ (8004e7c <HAL_RCC_ClockConfig+0x168>)
  SystemCoreClock = HAL_RCC_GetSysClockFreq() >> (AHBPrescTable[READ_BIT(RCC->CFGR, RCC_CFGR_HPRE) >> RCC_CFGR_HPRE_Pos] & 0x1FU);
 8004e22:	f002 021f 	and.w	r2, r2, #31
 8004e26:	40d3      	lsrs	r3, r2
}
 8004e28:	e8bd 41f0 	ldmia.w	sp!, {r4, r5, r6, r7, r8, lr}
  status = HAL_InitTick(uwTickPrio);
 8004e2c:	6800      	ldr	r0, [r0, #0]
  SystemCoreClock = HAL_RCC_GetSysClockFreq() >> (AHBPrescTable[READ_BIT(RCC->CFGR, RCC_CFGR_HPRE) >> RCC_CFGR_HPRE_Pos] & 0x1FU);
 8004e2e:	600b      	str	r3, [r1, #0]
  status = HAL_InitTick(uwTickPrio);
 8004e30:	f7fd bcee 	b.w	8002810 <HAL_InitTick>
  if(((RCC_ClkInitStruct->ClockType) & RCC_CLOCKTYPE_SYSCLK) == RCC_CLOCKTYPE_SYSCLK)
 8004e34:	2a00      	cmp	r2, #0
 8004e36:	d0c6      	beq.n	8004dc6 <HAL_RCC_ClockConfig+0xb2>
    if(RCC_ClkInitStruct->SYSCLKSource == RCC_SYSCLKSOURCE_PLLCLK)
 8004e38:	6862      	ldr	r2, [r4, #4]
      if(READ_BIT(RCC->CR, RCC_CR_PLLRDY) == 0U)
 8004e3a:	4b0d      	ldr	r3, [pc, #52]	@ (8004e70 <HAL_RCC_ClockConfig+0x15c>)
    if(RCC_ClkInitStruct->SYSCLKSource == RCC_SYSCLKSOURCE_PLLCLK)
 8004e3c:	2a03      	cmp	r2, #3
      if(READ_BIT(RCC->CR, RCC_CR_PLLRDY) == 0U)
 8004e3e:	681b      	ldr	r3, [r3, #0]
    if(RCC_ClkInitStruct->SYSCLKSource == RCC_SYSCLKSOURCE_PLLCLK)
 8004e40:	d199      	bne.n	8004d76 <HAL_RCC_ClockConfig+0x62>
      if(READ_BIT(RCC->CR, RCC_CR_PLLRDY) == 0U)
 8004e42:	019b      	lsls	r3, r3, #6
 8004e44:	d49d      	bmi.n	8004d82 <HAL_RCC_ClockConfig+0x6e>
 8004e46:	e77c      	b.n	8004d42 <HAL_RCC_ClockConfig+0x2e>
      MODIFY_REG(RCC->CFGR, RCC_CFGR_HPRE, RCC_ClkInitStruct->AHBCLKDivider);
 8004e48:	688a      	ldr	r2, [r1, #8]
 8004e4a:	f022 02f0 	bic.w	r2, r2, #240	@ 0xf0
 8004e4e:	4302      	orrs	r2, r0
 8004e50:	608a      	str	r2, [r1, #8]
 8004e52:	e7b8      	b.n	8004dc6 <HAL_RCC_ClockConfig+0xb2>
        if(READ_BIT(RCC->CR, RCC_CR_HSERDY) == 0U)
 8004e54:	039f      	lsls	r7, r3, #14
 8004e56:	d494      	bmi.n	8004d82 <HAL_RCC_ClockConfig+0x6e>
 8004e58:	e773      	b.n	8004d42 <HAL_RCC_ClockConfig+0x2e>
    return HAL_ERROR;
 8004e5a:	2001      	movs	r0, #1
}
 8004e5c:	4770      	bx	lr
        return HAL_TIMEOUT;
 8004e5e:	2003      	movs	r0, #3
 8004e60:	e770      	b.n	8004d44 <HAL_RCC_ClockConfig+0x30>
        if(READ_BIT(RCC->CR, RCC_CR_HSIRDY) == 0U)
 8004e62:	0558      	lsls	r0, r3, #21
 8004e64:	f57f af6d 	bpl.w	8004d42 <HAL_RCC_ClockConfig+0x2e>
 8004e68:	e78b      	b.n	8004d82 <HAL_RCC_ClockConfig+0x6e>
 8004e6a:	bf00      	nop
 8004e6c:	40022000 	.word	0x40022000
 8004e70:	40021000 	.word	0x40021000
 8004e74:	080097e4 	.word	0x080097e4
 8004e78:	20000400 	.word	0x20000400
 8004e7c:	20000408 	.word	0x20000408

08004e80 <HAL_RCC_GetHCLKFreq>:
  return SystemCoreClock;
 8004e80:	4b01      	ldr	r3, [pc, #4]	@ (8004e88 <HAL_RCC_GetHCLKFreq+0x8>)
}
 8004e82:	6818      	ldr	r0, [r3, #0]
 8004e84:	4770      	bx	lr
 8004e86:	bf00      	nop
 8004e88:	20000400 	.word	0x20000400

08004e8c <HAL_RCC_GetPCLK1Freq>:
  return (HAL_RCC_GetHCLKFreq() >> (APBPrescTable[READ_BIT(RCC->CFGR, RCC_CFGR_PPRE1) >> RCC_CFGR_PPRE1_Pos] & 0x1FU));
 8004e8c:	4b05      	ldr	r3, [pc, #20]	@ (8004ea4 <HAL_RCC_GetPCLK1Freq+0x18>)
 8004e8e:	4a06      	ldr	r2, [pc, #24]	@ (8004ea8 <HAL_RCC_GetPCLK1Freq+0x1c>)
 8004e90:	689b      	ldr	r3, [r3, #8]
  return SystemCoreClock;
 8004e92:	4906      	ldr	r1, [pc, #24]	@ (8004eac <HAL_RCC_GetPCLK1Freq+0x20>)
  return (HAL_RCC_GetHCLKFreq() >> (APBPrescTable[READ_BIT(RCC->CFGR, RCC_CFGR_PPRE1) >> RCC_CFGR_PPRE1_Pos] & 0x1FU));
 8004e94:	f3c3 2302 	ubfx	r3, r3, #8, #3
 8004e98:	6808      	ldr	r0, [r1, #0]
 8004e9a:	5cd3      	ldrb	r3, [r2, r3]
 8004e9c:	f003 031f 	and.w	r3, r3, #31
}
 8004ea0:	40d8      	lsrs	r0, r3
 8004ea2:	4770      	bx	lr
 8004ea4:	40021000 	.word	0x40021000
 8004ea8:	080097dc 	.word	0x080097dc
 8004eac:	20000400 	.word	0x20000400

08004eb0 <HAL_RCC_GetPCLK2Freq>:
  return (HAL_RCC_GetHCLKFreq()>> (APBPrescTable[READ_BIT(RCC->CFGR, RCC_CFGR_PPRE2) >> RCC_CFGR_PPRE2_Pos] & 0x1FU));
 8004eb0:	4b05      	ldr	r3, [pc, #20]	@ (8004ec8 <HAL_RCC_GetPCLK2Freq+0x18>)
 8004eb2:	4a06      	ldr	r2, [pc, #24]	@ (8004ecc <HAL_RCC_GetPCLK2Freq+0x1c>)
 8004eb4:	689b      	ldr	r3, [r3, #8]
  return SystemCoreClock;
 8004eb6:	4906      	ldr	r1, [pc, #24]	@ (8004ed0 <HAL_RCC_GetPCLK2Freq+0x20>)
  return (HAL_RCC_GetHCLKFreq()>> (APBPrescTable[READ_BIT(RCC->CFGR, RCC_CFGR_PPRE2) >> RCC_CFGR_PPRE2_Pos] & 0x1FU));
 8004eb8:	f3c3 23c2 	ubfx	r3, r3, #11, #3
 8004ebc:	6808      	ldr	r0, [r1, #0]
 8004ebe:	5cd3      	ldrb	r3, [r2, r3]
 8004ec0:	f003 031f 	and.w	r3, r3, #31
}
 8004ec4:	40d8      	lsrs	r0, r3
 8004ec6:	4770      	bx	lr
 8004ec8:	40021000 	.word	0x40021000
 8004ecc:	080097dc 	.word	0x080097dc
 8004ed0:	20000400 	.word	0x20000400

08004ed4 <RCCEx_PLLSAI1_Config>:
  assert_param(IS_RCC_PLLSAI1M_VALUE(PllSai1->PLLSAI1M));
  assert_param(IS_RCC_PLLSAI1N_VALUE(PllSai1->PLLSAI1N));
  assert_param(IS_RCC_PLLSAI1CLOCKOUT_VALUE(PllSai1->PLLSAI1ClockOut));

  /* Check that PLLSAI1 clock source and divider M can be applied */
  if(__HAL_RCC_GET_PLL_OSCSOURCE() != RCC_PLLSOURCE_NONE)
 8004ed4:	4a45      	ldr	r2, [pc, #276]	@ (8004fec <RCCEx_PLLSAI1_Config+0x118>)
{
 8004ed6:	b5f8      	push	{r3, r4, r5, r6, r7, lr}
  if(__HAL_RCC_GET_PLL_OSCSOURCE() != RCC_PLLSOURCE_NONE)
 8004ed8:	68d6      	ldr	r6, [r2, #12]
{
 8004eda:	460d      	mov	r5, r1
  if(__HAL_RCC_GET_PLL_OSCSOURCE() != RCC_PLLSOURCE_NONE)
 8004edc:	07b1      	lsls	r1, r6, #30
{
 8004ede:	4604      	mov	r4, r0
  {
    /* PLL clock source and divider M already set, check that no request for change  */
    if((__HAL_RCC_GET_PLL_OSCSOURCE() != PllSai1->PLLSAI1Source)
 8004ee0:	6800      	ldr	r0, [r0, #0]
  if(__HAL_RCC_GET_PLL_OSCSOURCE() != RCC_PLLSOURCE_NONE)
 8004ee2:	d006      	beq.n	8004ef2 <RCCEx_PLLSAI1_Config+0x1e>
    if((__HAL_RCC_GET_PLL_OSCSOURCE() != PllSai1->PLLSAI1Source)
 8004ee4:	68d1      	ldr	r1, [r2, #12]
 8004ee6:	f001 0103 	and.w	r1, r1, #3
 8004eea:	4281      	cmp	r1, r0
 8004eec:	d04b      	beq.n	8004f86 <RCCEx_PLLSAI1_Config+0xb2>
 8004eee:	2001      	movs	r0, #1
      }
    }
  }

  return status;
}
 8004ef0:	bdf8      	pop	{r3, r4, r5, r6, r7, pc}
    switch(PllSai1->PLLSAI1Source)
 8004ef2:	2802      	cmp	r0, #2
 8004ef4:	d058      	beq.n	8004fa8 <RCCEx_PLLSAI1_Config+0xd4>
 8004ef6:	2803      	cmp	r0, #3
 8004ef8:	d04f      	beq.n	8004f9a <RCCEx_PLLSAI1_Config+0xc6>
 8004efa:	2801      	cmp	r0, #1
 8004efc:	d1f7      	bne.n	8004eee <RCCEx_PLLSAI1_Config+0x1a>
      if(HAL_IS_BIT_CLR(RCC->CR, RCC_CR_MSIRDY))
 8004efe:	6812      	ldr	r2, [r2, #0]
 8004f00:	0793      	lsls	r3, r2, #30
 8004f02:	d5f5      	bpl.n	8004ef0 <RCCEx_PLLSAI1_Config+0x1c>
      MODIFY_REG(RCC->PLLCFGR, RCC_PLLCFGR_PLLSRC | RCC_PLLCFGR_PLLM, PllSai1->PLLSAI1Source | (PllSai1->PLLSAI1M - 1U) << RCC_PLLCFGR_PLLM_Pos);
 8004f04:	4939      	ldr	r1, [pc, #228]	@ (8004fec <RCCEx_PLLSAI1_Config+0x118>)
 8004f06:	68ca      	ldr	r2, [r1, #12]
 8004f08:	f022 0273 	bic.w	r2, r2, #115	@ 0x73
 8004f0c:	ea42 0300 	orr.w	r3, r2, r0
 8004f10:	6862      	ldr	r2, [r4, #4]
 8004f12:	3a01      	subs	r2, #1
 8004f14:	ea43 1302 	orr.w	r3, r3, r2, lsl #4
 8004f18:	60cb      	str	r3, [r1, #12]
    __HAL_RCC_PLLSAI1_DISABLE();
 8004f1a:	4e34      	ldr	r6, [pc, #208]	@ (8004fec <RCCEx_PLLSAI1_Config+0x118>)
 8004f1c:	6833      	ldr	r3, [r6, #0]
 8004f1e:	f023 6380 	bic.w	r3, r3, #67108864	@ 0x4000000
 8004f22:	6033      	str	r3, [r6, #0]
    tickstart = HAL_GetTick();
 8004f24:	f7fd fcb6 	bl	8002894 <HAL_GetTick>
 8004f28:	4607      	mov	r7, r0
    while(READ_BIT(RCC->CR, RCC_CR_PLLSAI1RDY) != 0U)
 8004f2a:	e004      	b.n	8004f36 <RCCEx_PLLSAI1_Config+0x62>
      if((HAL_GetTick() - tickstart) > PLLSAI1_TIMEOUT_VALUE)
 8004f2c:	f7fd fcb2 	bl	8002894 <HAL_GetTick>
 8004f30:	1bc3      	subs	r3, r0, r7
 8004f32:	2b02      	cmp	r3, #2
 8004f34:	d83c      	bhi.n	8004fb0 <RCCEx_PLLSAI1_Config+0xdc>
    while(READ_BIT(RCC->CR, RCC_CR_PLLSAI1RDY) != 0U)
 8004f36:	6833      	ldr	r3, [r6, #0]
 8004f38:	011a      	lsls	r2, r3, #4
 8004f3a:	d4f7      	bmi.n	8004f2c <RCCEx_PLLSAI1_Config+0x58>
        MODIFY_REG(RCC->PLLSAI1CFGR,
 8004f3c:	68a3      	ldr	r3, [r4, #8]
 8004f3e:	0219      	lsls	r1, r3, #8
      if(Divider == DIVIDER_P_UPDATE)
 8004f40:	2d00      	cmp	r5, #0
 8004f42:	d137      	bne.n	8004fb4 <RCCEx_PLLSAI1_Config+0xe0>
        MODIFY_REG(RCC->PLLSAI1CFGR,
 8004f44:	6932      	ldr	r2, [r6, #16]
 8004f46:	68e3      	ldr	r3, [r4, #12]
 8004f48:	f022 4278 	bic.w	r2, r2, #4160749568	@ 0xf8000000
 8004f4c:	ea41 63c3 	orr.w	r3, r1, r3, lsl #27
 8004f50:	f422 42fe 	bic.w	r2, r2, #32512	@ 0x7f00
 8004f54:	4313      	orrs	r3, r2
 8004f56:	6133      	str	r3, [r6, #16]
      __HAL_RCC_PLLSAI1_ENABLE();
 8004f58:	4d24      	ldr	r5, [pc, #144]	@ (8004fec <RCCEx_PLLSAI1_Config+0x118>)
 8004f5a:	682b      	ldr	r3, [r5, #0]
 8004f5c:	f043 6380 	orr.w	r3, r3, #67108864	@ 0x4000000
 8004f60:	602b      	str	r3, [r5, #0]
      tickstart = HAL_GetTick();
 8004f62:	f7fd fc97 	bl	8002894 <HAL_GetTick>
 8004f66:	4606      	mov	r6, r0
      while(READ_BIT(RCC->CR, RCC_CR_PLLSAI1RDY) == 0U)
 8004f68:	e004      	b.n	8004f74 <RCCEx_PLLSAI1_Config+0xa0>
        if((HAL_GetTick() - tickstart) > PLLSAI1_TIMEOUT_VALUE)
 8004f6a:	f7fd fc93 	bl	8002894 <HAL_GetTick>
 8004f6e:	1b80      	subs	r0, r0, r6
 8004f70:	2802      	cmp	r0, #2
 8004f72:	d81d      	bhi.n	8004fb0 <RCCEx_PLLSAI1_Config+0xdc>
      while(READ_BIT(RCC->CR, RCC_CR_PLLSAI1RDY) == 0U)
 8004f74:	682b      	ldr	r3, [r5, #0]
 8004f76:	011b      	lsls	r3, r3, #4
 8004f78:	d5f7      	bpl.n	8004f6a <RCCEx_PLLSAI1_Config+0x96>
        __HAL_RCC_PLLSAI1CLKOUT_ENABLE(PllSai1->PLLSAI1ClockOut);
 8004f7a:	692b      	ldr	r3, [r5, #16]
 8004f7c:	69a2      	ldr	r2, [r4, #24]
 8004f7e:	4313      	orrs	r3, r2
 8004f80:	2000      	movs	r0, #0
 8004f82:	612b      	str	r3, [r5, #16]
}
 8004f84:	bdf8      	pop	{r3, r4, r5, r6, r7, pc}
       ||
 8004f86:	2900      	cmp	r1, #0
 8004f88:	d0b1      	beq.n	8004eee <RCCEx_PLLSAI1_Config+0x1a>
       (((READ_BIT(RCC->PLLCFGR, RCC_PLLCFGR_PLLM) >> RCC_PLLCFGR_PLLM_Pos) + 1U) != PllSai1->PLLSAI1M)
 8004f8a:	68d3      	ldr	r3, [r2, #12]
       ||
 8004f8c:	6862      	ldr	r2, [r4, #4]
       (((READ_BIT(RCC->PLLCFGR, RCC_PLLCFGR_PLLM) >> RCC_PLLCFGR_PLLM_Pos) + 1U) != PllSai1->PLLSAI1M)
 8004f8e:	f3c3 1302 	ubfx	r3, r3, #4, #3
 8004f92:	3301      	adds	r3, #1
       ||
 8004f94:	4293      	cmp	r3, r2
 8004f96:	d1aa      	bne.n	8004eee <RCCEx_PLLSAI1_Config+0x1a>
 8004f98:	e7bf      	b.n	8004f1a <RCCEx_PLLSAI1_Config+0x46>
      if(HAL_IS_BIT_CLR(RCC->CR, RCC_CR_HSERDY))
 8004f9a:	6811      	ldr	r1, [r2, #0]
 8004f9c:	038e      	lsls	r6, r1, #14
 8004f9e:	d4b1      	bmi.n	8004f04 <RCCEx_PLLSAI1_Config+0x30>
        if(HAL_IS_BIT_CLR(RCC->CR, RCC_CR_HSEBYP))
 8004fa0:	6812      	ldr	r2, [r2, #0]
 8004fa2:	0351      	lsls	r1, r2, #13
 8004fa4:	d5a3      	bpl.n	8004eee <RCCEx_PLLSAI1_Config+0x1a>
 8004fa6:	e7ad      	b.n	8004f04 <RCCEx_PLLSAI1_Config+0x30>
      if(HAL_IS_BIT_CLR(RCC->CR, RCC_CR_HSIRDY))
 8004fa8:	6812      	ldr	r2, [r2, #0]
 8004faa:	0557      	lsls	r7, r2, #21
 8004fac:	d59f      	bpl.n	8004eee <RCCEx_PLLSAI1_Config+0x1a>
 8004fae:	e7a9      	b.n	8004f04 <RCCEx_PLLSAI1_Config+0x30>
 8004fb0:	2003      	movs	r0, #3
}
 8004fb2:	bdf8      	pop	{r3, r4, r5, r6, r7, pc}
      else if(Divider == DIVIDER_Q_UPDATE)
 8004fb4:	2d01      	cmp	r5, #1
        MODIFY_REG(RCC->PLLSAI1CFGR,
 8004fb6:	6933      	ldr	r3, [r6, #16]
      else if(Divider == DIVIDER_Q_UPDATE)
 8004fb8:	d00b      	beq.n	8004fd2 <RCCEx_PLLSAI1_Config+0xfe>
        MODIFY_REG(RCC->PLLSAI1CFGR,
 8004fba:	6962      	ldr	r2, [r4, #20]
 8004fbc:	f023 63c0 	bic.w	r3, r3, #100663296	@ 0x6000000
 8004fc0:	0852      	lsrs	r2, r2, #1
 8004fc2:	f423 43fe 	bic.w	r3, r3, #32512	@ 0x7f00
 8004fc6:	3a01      	subs	r2, #1
 8004fc8:	430b      	orrs	r3, r1
 8004fca:	ea43 6342 	orr.w	r3, r3, r2, lsl #25
 8004fce:	6133      	str	r3, [r6, #16]
 8004fd0:	e7c2      	b.n	8004f58 <RCCEx_PLLSAI1_Config+0x84>
        MODIFY_REG(RCC->PLLSAI1CFGR,
 8004fd2:	6922      	ldr	r2, [r4, #16]
 8004fd4:	f423 03c0 	bic.w	r3, r3, #6291456	@ 0x600000
 8004fd8:	0852      	lsrs	r2, r2, #1
 8004fda:	f423 43fe 	bic.w	r3, r3, #32512	@ 0x7f00
 8004fde:	3a01      	subs	r2, #1
 8004fe0:	430b      	orrs	r3, r1
 8004fe2:	ea43 5342 	orr.w	r3, r3, r2, lsl #21
 8004fe6:	6133      	str	r3, [r6, #16]
 8004fe8:	e7b6      	b.n	8004f58 <RCCEx_PLLSAI1_Config+0x84>
 8004fea:	bf00      	nop
 8004fec:	40021000 	.word	0x40021000

08004ff0 <RCCEx_PLLSAI2_Config>:
  assert_param(IS_RCC_PLLSAI2M_VALUE(PllSai2->PLLSAI2M));
  assert_param(IS_RCC_PLLSAI2N_VALUE(PllSai2->PLLSAI2N));
  assert_param(IS_RCC_PLLSAI2CLOCKOUT_VALUE(PllSai2->PLLSAI2ClockOut));

  /* Check that PLLSAI2 clock source and divider M can be applied */
  if(__HAL_RCC_GET_PLL_OSCSOURCE() != RCC_PLLSOURCE_NONE)
 8004ff0:	4a3e      	ldr	r2, [pc, #248]	@ (80050ec <RCCEx_PLLSAI2_Config+0xfc>)
{
 8004ff2:	b5f8      	push	{r3, r4, r5, r6, r7, lr}
  if(__HAL_RCC_GET_PLL_OSCSOURCE() != RCC_PLLSOURCE_NONE)
 8004ff4:	68d6      	ldr	r6, [r2, #12]
{
 8004ff6:	460d      	mov	r5, r1
  if(__HAL_RCC_GET_PLL_OSCSOURCE() != RCC_PLLSOURCE_NONE)
 8004ff8:	07b1      	lsls	r1, r6, #30
{
 8004ffa:	4604      	mov	r4, r0
  {
    /* PLL clock source and divider M already set, check that no request for change  */
    if((__HAL_RCC_GET_PLL_OSCSOURCE() != PllSai2->PLLSAI2Source)
 8004ffc:	6800      	ldr	r0, [r0, #0]
  if(__HAL_RCC_GET_PLL_OSCSOURCE() != RCC_PLLSOURCE_NONE)
 8004ffe:	d006      	beq.n	800500e <RCCEx_PLLSAI2_Config+0x1e>
    if((__HAL_RCC_GET_PLL_OSCSOURCE() != PllSai2->PLLSAI2Source)
 8005000:	68d1      	ldr	r1, [r2, #12]
 8005002:	f001 0103 	and.w	r1, r1, #3
 8005006:	4281      	cmp	r1, r0
 8005008:	d04b      	beq.n	80050a2 <RCCEx_PLLSAI2_Config+0xb2>
 800500a:	2001      	movs	r0, #1
      }
    }
  }

  return status;
}
 800500c:	bdf8      	pop	{r3, r4, r5, r6, r7, pc}
    switch(PllSai2->PLLSAI2Source)
 800500e:	2802      	cmp	r0, #2
 8005010:	d058      	beq.n	80050c4 <RCCEx_PLLSAI2_Config+0xd4>
 8005012:	2803      	cmp	r0, #3
 8005014:	d04f      	beq.n	80050b6 <RCCEx_PLLSAI2_Config+0xc6>
 8005016:	2801      	cmp	r0, #1
 8005018:	d1f7      	bne.n	800500a <RCCEx_PLLSAI2_Config+0x1a>
      if(HAL_IS_BIT_CLR(RCC->CR, RCC_CR_MSIRDY))
 800501a:	6812      	ldr	r2, [r2, #0]
 800501c:	0793      	lsls	r3, r2, #30
 800501e:	d5f5      	bpl.n	800500c <RCCEx_PLLSAI2_Config+0x1c>
      MODIFY_REG(RCC->PLLCFGR, RCC_PLLCFGR_PLLSRC | RCC_PLLCFGR_PLLM, PllSai2->PLLSAI2Source | (PllSai2->PLLSAI2M - 1U) << RCC_PLLCFGR_PLLM_Pos);
 8005020:	4932      	ldr	r1, [pc, #200]	@ (80050ec <RCCEx_PLLSAI2_Config+0xfc>)
 8005022:	68ca      	ldr	r2, [r1, #12]
 8005024:	f022 0273 	bic.w	r2, r2, #115	@ 0x73
 8005028:	ea42 0300 	orr.w	r3, r2, r0
 800502c:	6862      	ldr	r2, [r4, #4]
 800502e:	3a01      	subs	r2, #1
 8005030:	ea43 1302 	orr.w	r3, r3, r2, lsl #4
 8005034:	60cb      	str	r3, [r1, #12]
    __HAL_RCC_PLLSAI2_DISABLE();
 8005036:	4e2d      	ldr	r6, [pc, #180]	@ (80050ec <RCCEx_PLLSAI2_Config+0xfc>)
 8005038:	6833      	ldr	r3, [r6, #0]
 800503a:	f023 5380 	bic.w	r3, r3, #268435456	@ 0x10000000
 800503e:	6033      	str	r3, [r6, #0]
    tickstart = HAL_GetTick();
 8005040:	f7fd fc28 	bl	8002894 <HAL_GetTick>
 8005044:	4607      	mov	r7, r0
    while(READ_BIT(RCC->CR, RCC_CR_PLLSAI2RDY) != 0U)
 8005046:	e004      	b.n	8005052 <RCCEx_PLLSAI2_Config+0x62>
      if((HAL_GetTick() - tickstart) > PLLSAI2_TIMEOUT_VALUE)
 8005048:	f7fd fc24 	bl	8002894 <HAL_GetTick>
 800504c:	1bc3      	subs	r3, r0, r7
 800504e:	2b02      	cmp	r3, #2
 8005050:	d83c      	bhi.n	80050cc <RCCEx_PLLSAI2_Config+0xdc>
    while(READ_BIT(RCC->CR, RCC_CR_PLLSAI2RDY) != 0U)
 8005052:	6833      	ldr	r3, [r6, #0]
 8005054:	009a      	lsls	r2, r3, #2
 8005056:	d4f7      	bmi.n	8005048 <RCCEx_PLLSAI2_Config+0x58>
        MODIFY_REG(RCC->PLLSAI2CFGR,
 8005058:	68a3      	ldr	r3, [r4, #8]
 800505a:	021b      	lsls	r3, r3, #8
      if(Divider == DIVIDER_P_UPDATE)
 800505c:	2d00      	cmp	r5, #0
 800505e:	d137      	bne.n	80050d0 <RCCEx_PLLSAI2_Config+0xe0>
        MODIFY_REG(RCC->PLLSAI2CFGR,
 8005060:	6972      	ldr	r2, [r6, #20]
 8005062:	68e1      	ldr	r1, [r4, #12]
 8005064:	f022 4278 	bic.w	r2, r2, #4160749568	@ 0xf8000000
 8005068:	ea43 63c1 	orr.w	r3, r3, r1, lsl #27
 800506c:	f422 42fe 	bic.w	r2, r2, #32512	@ 0x7f00
 8005070:	4313      	orrs	r3, r2
 8005072:	6173      	str	r3, [r6, #20]
      __HAL_RCC_PLLSAI2_ENABLE();
 8005074:	4d1d      	ldr	r5, [pc, #116]	@ (80050ec <RCCEx_PLLSAI2_Config+0xfc>)
 8005076:	682b      	ldr	r3, [r5, #0]
 8005078:	f043 5380 	orr.w	r3, r3, #268435456	@ 0x10000000
 800507c:	602b      	str	r3, [r5, #0]
      tickstart = HAL_GetTick();
 800507e:	f7fd fc09 	bl	8002894 <HAL_GetTick>
 8005082:	4606      	mov	r6, r0
      while(READ_BIT(RCC->CR, RCC_CR_PLLSAI2RDY) == 0U)
 8005084:	e004      	b.n	8005090 <RCCEx_PLLSAI2_Config+0xa0>
        if((HAL_GetTick() - tickstart) > PLLSAI2_TIMEOUT_VALUE)
 8005086:	f7fd fc05 	bl	8002894 <HAL_GetTick>
 800508a:	1b80      	subs	r0, r0, r6
 800508c:	2802      	cmp	r0, #2
 800508e:	d81d      	bhi.n	80050cc <RCCEx_PLLSAI2_Config+0xdc>
      while(READ_BIT(RCC->CR, RCC_CR_PLLSAI2RDY) == 0U)
 8005090:	682b      	ldr	r3, [r5, #0]
 8005092:	009b      	lsls	r3, r3, #2
 8005094:	d5f7      	bpl.n	8005086 <RCCEx_PLLSAI2_Config+0x96>
        __HAL_RCC_PLLSAI2CLKOUT_ENABLE(PllSai2->PLLSAI2ClockOut);
 8005096:	696b      	ldr	r3, [r5, #20]
 8005098:	6962      	ldr	r2, [r4, #20]
 800509a:	4313      	orrs	r3, r2
 800509c:	2000      	movs	r0, #0
 800509e:	616b      	str	r3, [r5, #20]
}
 80050a0:	bdf8      	pop	{r3, r4, r5, r6, r7, pc}
       ||
 80050a2:	2900      	cmp	r1, #0
 80050a4:	d0b1      	beq.n	800500a <RCCEx_PLLSAI2_Config+0x1a>
       (((READ_BIT(RCC->PLLCFGR, RCC_PLLCFGR_PLLM) >> RCC_PLLCFGR_PLLM_Pos) + 1U) != PllSai2->PLLSAI2M)
 80050a6:	68d3      	ldr	r3, [r2, #12]
       ||
 80050a8:	6862      	ldr	r2, [r4, #4]
       (((READ_BIT(RCC->PLLCFGR, RCC_PLLCFGR_PLLM) >> RCC_PLLCFGR_PLLM_Pos) + 1U) != PllSai2->PLLSAI2M)
 80050aa:	f3c3 1302 	ubfx	r3, r3, #4, #3
 80050ae:	3301      	adds	r3, #1
       ||
 80050b0:	4293      	cmp	r3, r2
 80050b2:	d1aa      	bne.n	800500a <RCCEx_PLLSAI2_Config+0x1a>
 80050b4:	e7bf      	b.n	8005036 <RCCEx_PLLSAI2_Config+0x46>
      if(HAL_IS_BIT_CLR(RCC->CR, RCC_CR_HSERDY))
 80050b6:	6811      	ldr	r1, [r2, #0]
 80050b8:	038e      	lsls	r6, r1, #14
 80050ba:	d4b1      	bmi.n	8005020 <RCCEx_PLLSAI2_Config+0x30>
        if(HAL_IS_BIT_CLR(RCC->CR, RCC_CR_HSEBYP))
 80050bc:	6812      	ldr	r2, [r2, #0]
 80050be:	0351      	lsls	r1, r2, #13
 80050c0:	d5a3      	bpl.n	800500a <RCCEx_PLLSAI2_Config+0x1a>
 80050c2:	e7ad      	b.n	8005020 <RCCEx_PLLSAI2_Config+0x30>
      if(HAL_IS_BIT_CLR(RCC->CR, RCC_CR_HSIRDY))
 80050c4:	6812      	ldr	r2, [r2, #0]
 80050c6:	0557      	lsls	r7, r2, #21
 80050c8:	d59f      	bpl.n	800500a <RCCEx_PLLSAI2_Config+0x1a>
 80050ca:	e7a9      	b.n	8005020 <RCCEx_PLLSAI2_Config+0x30>
 80050cc:	2003      	movs	r0, #3
}
 80050ce:	bdf8      	pop	{r3, r4, r5, r6, r7, pc}
        MODIFY_REG(RCC->PLLSAI2CFGR,
 80050d0:	6972      	ldr	r2, [r6, #20]
 80050d2:	6921      	ldr	r1, [r4, #16]
 80050d4:	f022 62c0 	bic.w	r2, r2, #100663296	@ 0x6000000
 80050d8:	0849      	lsrs	r1, r1, #1
 80050da:	f422 42fe 	bic.w	r2, r2, #32512	@ 0x7f00
 80050de:	3901      	subs	r1, #1
 80050e0:	431a      	orrs	r2, r3
 80050e2:	ea42 6241 	orr.w	r2, r2, r1, lsl #25
 80050e6:	6172      	str	r2, [r6, #20]
 80050e8:	e7c4      	b.n	8005074 <RCCEx_PLLSAI2_Config+0x84>
 80050ea:	bf00      	nop
 80050ec:	40021000 	.word	0x40021000

080050f0 <HAL_RCCEx_PeriphCLKConfig>:
{
 80050f0:	e92d 43f0 	stmdb	sp!, {r4, r5, r6, r7, r8, r9, lr}
  if((((PeriphClkInit->PeriphClockSelection) & RCC_PERIPHCLK_SAI1) == RCC_PERIPHCLK_SAI1))
 80050f4:	6803      	ldr	r3, [r0, #0]
 80050f6:	f413 6600 	ands.w	r6, r3, #2048	@ 0x800
{
 80050fa:	b083      	sub	sp, #12
 80050fc:	4604      	mov	r4, r0
  if((((PeriphClkInit->PeriphClockSelection) & RCC_PERIPHCLK_SAI1) == RCC_PERIPHCLK_SAI1))
 80050fe:	d016      	beq.n	800512e <HAL_RCCEx_PeriphCLKConfig+0x3e>
    switch(PeriphClkInit->Sai1ClockSelection)
 8005100:	6e81      	ldr	r1, [r0, #104]	@ 0x68
 8005102:	f5b1 0f00 	cmp.w	r1, #8388608	@ 0x800000
 8005106:	f000 81e8 	beq.w	80054da <HAL_RCCEx_PeriphCLKConfig+0x3ea>
 800510a:	f200 8123 	bhi.w	8005354 <HAL_RCCEx_PeriphCLKConfig+0x264>
 800510e:	2900      	cmp	r1, #0
 8005110:	f000 81b7 	beq.w	8005482 <HAL_RCCEx_PeriphCLKConfig+0x392>
 8005114:	f5b1 0f80 	cmp.w	r1, #4194304	@ 0x400000
 8005118:	f040 81d1 	bne.w	80054be <HAL_RCCEx_PeriphCLKConfig+0x3ce>
      ret = RCCEx_PLLSAI2_Config(&(PeriphClkInit->PLLSAI2), DIVIDER_P_UPDATE);
 800511c:	2100      	movs	r1, #0
 800511e:	3020      	adds	r0, #32
 8005120:	f7ff ff66 	bl	8004ff0 <RCCEx_PLLSAI2_Config>
 8005124:	4606      	mov	r6, r0
  if((((PeriphClkInit->PeriphClockSelection) & RCC_PERIPHCLK_SAI2) == RCC_PERIPHCLK_SAI2))
 8005126:	6823      	ldr	r3, [r4, #0]
    if(ret == HAL_OK)
 8005128:	2e00      	cmp	r6, #0
 800512a:	f000 81e3 	beq.w	80054f4 <HAL_RCCEx_PeriphCLKConfig+0x404>
  if((((PeriphClkInit->PeriphClockSelection) & RCC_PERIPHCLK_SAI2) == RCC_PERIPHCLK_SAI2))
 800512e:	04d8      	lsls	r0, r3, #19
 8005130:	f140 8121 	bpl.w	8005376 <HAL_RCCEx_PeriphCLKConfig+0x286>
    switch(PeriphClkInit->Sai2ClockSelection)
 8005134:	6ee1      	ldr	r1, [r4, #108]	@ 0x6c
 8005136:	f1b1 7f00 	cmp.w	r1, #33554432	@ 0x2000000
 800513a:	f000 81d4 	beq.w	80054e6 <HAL_RCCEx_PeriphCLKConfig+0x3f6>
 800513e:	f200 817f 	bhi.w	8005440 <HAL_RCCEx_PeriphCLKConfig+0x350>
 8005142:	2900      	cmp	r1, #0
 8005144:	f000 81a6 	beq.w	8005494 <HAL_RCCEx_PeriphCLKConfig+0x3a4>
 8005148:	f1b1 7f80 	cmp.w	r1, #16777216	@ 0x1000000
 800514c:	f040 81b9 	bne.w	80054c2 <HAL_RCCEx_PeriphCLKConfig+0x3d2>
      ret = RCCEx_PLLSAI2_Config(&(PeriphClkInit->PLLSAI2), DIVIDER_P_UPDATE);
 8005150:	2100      	movs	r1, #0
 8005152:	f104 0020 	add.w	r0, r4, #32
 8005156:	f7ff ff4b 	bl	8004ff0 <RCCEx_PLLSAI2_Config>
  if((PeriphClkInit->PeriphClockSelection & RCC_PERIPHCLK_RTC) == RCC_PERIPHCLK_RTC)
 800515a:	6823      	ldr	r3, [r4, #0]
      ret = RCCEx_PLLSAI2_Config(&(PeriphClkInit->PLLSAI2), DIVIDER_P_UPDATE);
 800515c:	4607      	mov	r7, r0
    if(ret == HAL_OK)
 800515e:	2f00      	cmp	r7, #0
 8005160:	f040 8175 	bne.w	800544e <HAL_RCCEx_PeriphCLKConfig+0x35e>
      __HAL_RCC_SAI2_CONFIG(PeriphClkInit->Sai2ClockSelection);
 8005164:	49b4      	ldr	r1, [pc, #720]	@ (8005438 <HAL_RCCEx_PeriphCLKConfig+0x348>)
 8005166:	6ee0      	ldr	r0, [r4, #108]	@ 0x6c
 8005168:	f8d1 2088 	ldr.w	r2, [r1, #136]	@ 0x88
 800516c:	f022 7240 	bic.w	r2, r2, #50331648	@ 0x3000000
 8005170:	4302      	orrs	r2, r0
 8005172:	f8c1 2088 	str.w	r2, [r1, #136]	@ 0x88
  if((PeriphClkInit->PeriphClockSelection & RCC_PERIPHCLK_RTC) == RCC_PERIPHCLK_RTC)
 8005176:	0399      	lsls	r1, r3, #14
 8005178:	f100 8101 	bmi.w	800537e <HAL_RCCEx_PeriphCLKConfig+0x28e>
  if(((PeriphClkInit->PeriphClockSelection) & RCC_PERIPHCLK_USART1) == RCC_PERIPHCLK_USART1)
 800517c:	07d9      	lsls	r1, r3, #31
 800517e:	d508      	bpl.n	8005192 <HAL_RCCEx_PeriphCLKConfig+0xa2>
    __HAL_RCC_USART1_CONFIG(PeriphClkInit->Usart1ClockSelection);
 8005180:	49ad      	ldr	r1, [pc, #692]	@ (8005438 <HAL_RCCEx_PeriphCLKConfig+0x348>)
 8005182:	6ba0      	ldr	r0, [r4, #56]	@ 0x38
 8005184:	f8d1 2088 	ldr.w	r2, [r1, #136]	@ 0x88
 8005188:	f022 0203 	bic.w	r2, r2, #3
 800518c:	4302      	orrs	r2, r0
 800518e:	f8c1 2088 	str.w	r2, [r1, #136]	@ 0x88
  if(((PeriphClkInit->PeriphClockSelection) & RCC_PERIPHCLK_USART2) == RCC_PERIPHCLK_USART2)
 8005192:	079a      	lsls	r2, r3, #30
 8005194:	d508      	bpl.n	80051a8 <HAL_RCCEx_PeriphCLKConfig+0xb8>
    __HAL_RCC_USART2_CONFIG(PeriphClkInit->Usart2ClockSelection);
 8005196:	49a8      	ldr	r1, [pc, #672]	@ (8005438 <HAL_RCCEx_PeriphCLKConfig+0x348>)
 8005198:	6be0      	ldr	r0, [r4, #60]	@ 0x3c
 800519a:	f8d1 2088 	ldr.w	r2, [r1, #136]	@ 0x88
 800519e:	f022 020c 	bic.w	r2, r2, #12
 80051a2:	4302      	orrs	r2, r0
 80051a4:	f8c1 2088 	str.w	r2, [r1, #136]	@ 0x88
  if(((PeriphClkInit->PeriphClockSelection) & RCC_PERIPHCLK_USART3) == RCC_PERIPHCLK_USART3)
 80051a8:	075f      	lsls	r7, r3, #29
 80051aa:	d508      	bpl.n	80051be <HAL_RCCEx_PeriphCLKConfig+0xce>
    __HAL_RCC_USART3_CONFIG(PeriphClkInit->Usart3ClockSelection);
 80051ac:	49a2      	ldr	r1, [pc, #648]	@ (8005438 <HAL_RCCEx_PeriphCLKConfig+0x348>)
 80051ae:	6c20      	ldr	r0, [r4, #64]	@ 0x40
 80051b0:	f8d1 2088 	ldr.w	r2, [r1, #136]	@ 0x88
 80051b4:	f022 0230 	bic.w	r2, r2, #48	@ 0x30
 80051b8:	4302      	orrs	r2, r0
 80051ba:	f8c1 2088 	str.w	r2, [r1, #136]	@ 0x88
  if(((PeriphClkInit->PeriphClockSelection) & RCC_PERIPHCLK_UART4) == RCC_PERIPHCLK_UART4)
 80051be:	071d      	lsls	r5, r3, #28
 80051c0:	d508      	bpl.n	80051d4 <HAL_RCCEx_PeriphCLKConfig+0xe4>
    __HAL_RCC_UART4_CONFIG(PeriphClkInit->Uart4ClockSelection);
 80051c2:	499d      	ldr	r1, [pc, #628]	@ (8005438 <HAL_RCCEx_PeriphCLKConfig+0x348>)
 80051c4:	6c60      	ldr	r0, [r4, #68]	@ 0x44
 80051c6:	f8d1 2088 	ldr.w	r2, [r1, #136]	@ 0x88
 80051ca:	f022 02c0 	bic.w	r2, r2, #192	@ 0xc0
 80051ce:	4302      	orrs	r2, r0
 80051d0:	f8c1 2088 	str.w	r2, [r1, #136]	@ 0x88
  if(((PeriphClkInit->PeriphClockSelection) & RCC_PERIPHCLK_UART5) == RCC_PERIPHCLK_UART5)
 80051d4:	06d8      	lsls	r0, r3, #27
 80051d6:	d508      	bpl.n	80051ea <HAL_RCCEx_PeriphCLKConfig+0xfa>
    __HAL_RCC_UART5_CONFIG(PeriphClkInit->Uart5ClockSelection);
 80051d8:	4997      	ldr	r1, [pc, #604]	@ (8005438 <HAL_RCCEx_PeriphCLKConfig+0x348>)
 80051da:	6ca0      	ldr	r0, [r4, #72]	@ 0x48
 80051dc:	f8d1 2088 	ldr.w	r2, [r1, #136]	@ 0x88
 80051e0:	f422 7240 	bic.w	r2, r2, #768	@ 0x300
 80051e4:	4302      	orrs	r2, r0
 80051e6:	f8c1 2088 	str.w	r2, [r1, #136]	@ 0x88
  if(((PeriphClkInit->PeriphClockSelection) & RCC_PERIPHCLK_LPUART1) == RCC_PERIPHCLK_LPUART1)
 80051ea:	0699      	lsls	r1, r3, #26
 80051ec:	d508      	bpl.n	8005200 <HAL_RCCEx_PeriphCLKConfig+0x110>
    __HAL_RCC_LPUART1_CONFIG(PeriphClkInit->Lpuart1ClockSelection);
 80051ee:	4992      	ldr	r1, [pc, #584]	@ (8005438 <HAL_RCCEx_PeriphCLKConfig+0x348>)
 80051f0:	6ce0      	ldr	r0, [r4, #76]	@ 0x4c
 80051f2:	f8d1 2088 	ldr.w	r2, [r1, #136]	@ 0x88
 80051f6:	f422 6240 	bic.w	r2, r2, #3072	@ 0xc00
 80051fa:	4302      	orrs	r2, r0
 80051fc:	f8c1 2088 	str.w	r2, [r1, #136]	@ 0x88
  if(((PeriphClkInit->PeriphClockSelection) & RCC_PERIPHCLK_LPTIM1) == (RCC_PERIPHCLK_LPTIM1))
 8005200:	059a      	lsls	r2, r3, #22
 8005202:	d508      	bpl.n	8005216 <HAL_RCCEx_PeriphCLKConfig+0x126>
    __HAL_RCC_LPTIM1_CONFIG(PeriphClkInit->Lptim1ClockSelection);
 8005204:	498c      	ldr	r1, [pc, #560]	@ (8005438 <HAL_RCCEx_PeriphCLKConfig+0x348>)
 8005206:	6e20      	ldr	r0, [r4, #96]	@ 0x60
 8005208:	f8d1 2088 	ldr.w	r2, [r1, #136]	@ 0x88
 800520c:	f422 2240 	bic.w	r2, r2, #786432	@ 0xc0000
 8005210:	4302      	orrs	r2, r0
 8005212:	f8c1 2088 	str.w	r2, [r1, #136]	@ 0x88
  if(((PeriphClkInit->PeriphClockSelection) & RCC_PERIPHCLK_LPTIM2) == (RCC_PERIPHCLK_LPTIM2))
 8005216:	055f      	lsls	r7, r3, #21
 8005218:	d508      	bpl.n	800522c <HAL_RCCEx_PeriphCLKConfig+0x13c>
    __HAL_RCC_LPTIM2_CONFIG(PeriphClkInit->Lptim2ClockSelection);
 800521a:	4987      	ldr	r1, [pc, #540]	@ (8005438 <HAL_RCCEx_PeriphCLKConfig+0x348>)
 800521c:	6e60      	ldr	r0, [r4, #100]	@ 0x64
 800521e:	f8d1 2088 	ldr.w	r2, [r1, #136]	@ 0x88
 8005222:	f422 1240 	bic.w	r2, r2, #3145728	@ 0x300000
 8005226:	4302      	orrs	r2, r0
 8005228:	f8c1 2088 	str.w	r2, [r1, #136]	@ 0x88
  if(((PeriphClkInit->PeriphClockSelection) & RCC_PERIPHCLK_I2C1) == RCC_PERIPHCLK_I2C1)
 800522c:	065d      	lsls	r5, r3, #25
 800522e:	d508      	bpl.n	8005242 <HAL_RCCEx_PeriphCLKConfig+0x152>
    __HAL_RCC_I2C1_CONFIG(PeriphClkInit->I2c1ClockSelection);
 8005230:	4981      	ldr	r1, [pc, #516]	@ (8005438 <HAL_RCCEx_PeriphCLKConfig+0x348>)
 8005232:	6d20      	ldr	r0, [r4, #80]	@ 0x50
 8005234:	f8d1 2088 	ldr.w	r2, [r1, #136]	@ 0x88
 8005238:	f422 5240 	bic.w	r2, r2, #12288	@ 0x3000
 800523c:	4302      	orrs	r2, r0
 800523e:	f8c1 2088 	str.w	r2, [r1, #136]	@ 0x88
  if(((PeriphClkInit->PeriphClockSelection) & RCC_PERIPHCLK_I2C2) == RCC_PERIPHCLK_I2C2)
 8005242:	0618      	lsls	r0, r3, #24
 8005244:	d508      	bpl.n	8005258 <HAL_RCCEx_PeriphCLKConfig+0x168>
    __HAL_RCC_I2C2_CONFIG(PeriphClkInit->I2c2ClockSelection);
 8005246:	497c      	ldr	r1, [pc, #496]	@ (8005438 <HAL_RCCEx_PeriphCLKConfig+0x348>)
 8005248:	6d60      	ldr	r0, [r4, #84]	@ 0x54
 800524a:	f8d1 2088 	ldr.w	r2, [r1, #136]	@ 0x88
 800524e:	f422 4240 	bic.w	r2, r2, #49152	@ 0xc000
 8005252:	4302      	orrs	r2, r0
 8005254:	f8c1 2088 	str.w	r2, [r1, #136]	@ 0x88
  if(((PeriphClkInit->PeriphClockSelection) & RCC_PERIPHCLK_I2C3) == RCC_PERIPHCLK_I2C3)
 8005258:	05d9      	lsls	r1, r3, #23
 800525a:	d508      	bpl.n	800526e <HAL_RCCEx_PeriphCLKConfig+0x17e>
    __HAL_RCC_I2C3_CONFIG(PeriphClkInit->I2c3ClockSelection);
 800525c:	4976      	ldr	r1, [pc, #472]	@ (8005438 <HAL_RCCEx_PeriphCLKConfig+0x348>)
 800525e:	6da0      	ldr	r0, [r4, #88]	@ 0x58
 8005260:	f8d1 2088 	ldr.w	r2, [r1, #136]	@ 0x88
 8005264:	f422 3240 	bic.w	r2, r2, #196608	@ 0x30000
 8005268:	4302      	orrs	r2, r0
 800526a:	f8c1 2088 	str.w	r2, [r1, #136]	@ 0x88
  if(((PeriphClkInit->PeriphClockSelection) & RCC_PERIPHCLK_I2C4) == RCC_PERIPHCLK_I2C4)
 800526e:	02da      	lsls	r2, r3, #11
 8005270:	d508      	bpl.n	8005284 <HAL_RCCEx_PeriphCLKConfig+0x194>
    __HAL_RCC_I2C4_CONFIG(PeriphClkInit->I2c4ClockSelection);
 8005272:	4971      	ldr	r1, [pc, #452]	@ (8005438 <HAL_RCCEx_PeriphCLKConfig+0x348>)
 8005274:	6de0      	ldr	r0, [r4, #92]	@ 0x5c
 8005276:	f8d1 209c 	ldr.w	r2, [r1, #156]	@ 0x9c
 800527a:	f022 0203 	bic.w	r2, r2, #3
 800527e:	4302      	orrs	r2, r0
 8005280:	f8c1 209c 	str.w	r2, [r1, #156]	@ 0x9c
  if(((PeriphClkInit->PeriphClockSelection) & RCC_PERIPHCLK_USB) == (RCC_PERIPHCLK_USB))
 8005284:	049f      	lsls	r7, r3, #18
 8005286:	d510      	bpl.n	80052aa <HAL_RCCEx_PeriphCLKConfig+0x1ba>
    __HAL_RCC_USB_CONFIG(PeriphClkInit->UsbClockSelection);
 8005288:	496b      	ldr	r1, [pc, #428]	@ (8005438 <HAL_RCCEx_PeriphCLKConfig+0x348>)
 800528a:	6f20      	ldr	r0, [r4, #112]	@ 0x70
 800528c:	f8d1 2088 	ldr.w	r2, [r1, #136]	@ 0x88
 8005290:	f022 6240 	bic.w	r2, r2, #201326592	@ 0xc000000
 8005294:	4302      	orrs	r2, r0
    if(PeriphClkInit->UsbClockSelection == RCC_USBCLKSOURCE_PLL)
 8005296:	f1b0 6f00 	cmp.w	r0, #134217728	@ 0x8000000
    __HAL_RCC_USB_CONFIG(PeriphClkInit->UsbClockSelection);
 800529a:	f8c1 2088 	str.w	r2, [r1, #136]	@ 0x88
    if(PeriphClkInit->UsbClockSelection == RCC_USBCLKSOURCE_PLL)
 800529e:	f000 8104 	beq.w	80054aa <HAL_RCCEx_PeriphCLKConfig+0x3ba>
      if(PeriphClkInit->UsbClockSelection == RCC_USBCLKSOURCE_PLLSAI1)
 80052a2:	f1b0 6f80 	cmp.w	r0, #67108864	@ 0x4000000
 80052a6:	f000 8132 	beq.w	800550e <HAL_RCCEx_PeriphCLKConfig+0x41e>
  if(((PeriphClkInit->PeriphClockSelection) & RCC_PERIPHCLK_SDMMC1) == (RCC_PERIPHCLK_SDMMC1))
 80052aa:	031d      	lsls	r5, r3, #12
 80052ac:	d510      	bpl.n	80052d0 <HAL_RCCEx_PeriphCLKConfig+0x1e0>
    __HAL_RCC_SDMMC1_CONFIG(PeriphClkInit->Sdmmc1ClockSelection);
 80052ae:	4962      	ldr	r1, [pc, #392]	@ (8005438 <HAL_RCCEx_PeriphCLKConfig+0x348>)
 80052b0:	6f60      	ldr	r0, [r4, #116]	@ 0x74
 80052b2:	f8d1 2088 	ldr.w	r2, [r1, #136]	@ 0x88
 80052b6:	f022 6240 	bic.w	r2, r2, #201326592	@ 0xc000000
 80052ba:	4302      	orrs	r2, r0
    if(PeriphClkInit->Sdmmc1ClockSelection == RCC_SDMMC1CLKSOURCE_PLL)   /* PLL "Q" ? */
 80052bc:	f1b0 6f00 	cmp.w	r0, #134217728	@ 0x8000000
    __HAL_RCC_SDMMC1_CONFIG(PeriphClkInit->Sdmmc1ClockSelection);
 80052c0:	f8c1 2088 	str.w	r2, [r1, #136]	@ 0x88
    if(PeriphClkInit->Sdmmc1ClockSelection == RCC_SDMMC1CLKSOURCE_PLL)   /* PLL "Q" ? */
 80052c4:	f000 80f6 	beq.w	80054b4 <HAL_RCCEx_PeriphCLKConfig+0x3c4>
    else if(PeriphClkInit->Sdmmc1ClockSelection == RCC_SDMMC1CLKSOURCE_PLLSAI1)
 80052c8:	f1b0 6f80 	cmp.w	r0, #67108864	@ 0x4000000
 80052cc:	f000 8129 	beq.w	8005522 <HAL_RCCEx_PeriphCLKConfig+0x432>
  if(((PeriphClkInit->PeriphClockSelection) & RCC_PERIPHCLK_RNG) == (RCC_PERIPHCLK_RNG))
 80052d0:	0358      	lsls	r0, r3, #13
 80052d2:	d510      	bpl.n	80052f6 <HAL_RCCEx_PeriphCLKConfig+0x206>
    __HAL_RCC_RNG_CONFIG(PeriphClkInit->RngClockSelection);
 80052d4:	4958      	ldr	r1, [pc, #352]	@ (8005438 <HAL_RCCEx_PeriphCLKConfig+0x348>)
 80052d6:	6fa0      	ldr	r0, [r4, #120]	@ 0x78
 80052d8:	f8d1 2088 	ldr.w	r2, [r1, #136]	@ 0x88
 80052dc:	f022 6240 	bic.w	r2, r2, #201326592	@ 0xc000000
 80052e0:	4302      	orrs	r2, r0
    if(PeriphClkInit->RngClockSelection == RCC_RNGCLKSOURCE_PLL)
 80052e2:	f1b0 6f00 	cmp.w	r0, #134217728	@ 0x8000000
    __HAL_RCC_RNG_CONFIG(PeriphClkInit->RngClockSelection);
 80052e6:	f8c1 2088 	str.w	r2, [r1, #136]	@ 0x88
    if(PeriphClkInit->RngClockSelection == RCC_RNGCLKSOURCE_PLL)
 80052ea:	f000 80d9 	beq.w	80054a0 <HAL_RCCEx_PeriphCLKConfig+0x3b0>
    else if(PeriphClkInit->RngClockSelection == RCC_RNGCLKSOURCE_PLLSAI1)
 80052ee:	f1b0 6f80 	cmp.w	r0, #67108864	@ 0x4000000
 80052f2:	f000 8120 	beq.w	8005536 <HAL_RCCEx_PeriphCLKConfig+0x446>
  if(((PeriphClkInit->PeriphClockSelection) & RCC_PERIPHCLK_ADC) == RCC_PERIPHCLK_ADC)
 80052f6:	0459      	lsls	r1, r3, #17
 80052f8:	d510      	bpl.n	800531c <HAL_RCCEx_PeriphCLKConfig+0x22c>
    __HAL_RCC_ADC_CONFIG(PeriphClkInit->AdcClockSelection);
 80052fa:	484f      	ldr	r0, [pc, #316]	@ (8005438 <HAL_RCCEx_PeriphCLKConfig+0x348>)
 80052fc:	6fe1      	ldr	r1, [r4, #124]	@ 0x7c
 80052fe:	f8d0 2088 	ldr.w	r2, [r0, #136]	@ 0x88
 8005302:	f022 5240 	bic.w	r2, r2, #805306368	@ 0x30000000
 8005306:	430a      	orrs	r2, r1
    if(PeriphClkInit->AdcClockSelection == RCC_ADCCLKSOURCE_PLLSAI1)
 8005308:	f1b1 5f80 	cmp.w	r1, #268435456	@ 0x10000000
    __HAL_RCC_ADC_CONFIG(PeriphClkInit->AdcClockSelection);
 800530c:	f8c0 2088 	str.w	r2, [r0, #136]	@ 0x88
    if(PeriphClkInit->AdcClockSelection == RCC_ADCCLKSOURCE_PLLSAI1)
 8005310:	f000 80d9 	beq.w	80054c6 <HAL_RCCEx_PeriphCLKConfig+0x3d6>
    else if(PeriphClkInit->AdcClockSelection == RCC_ADCCLKSOURCE_PLLSAI2)
 8005314:	f1b1 5f00 	cmp.w	r1, #536870912	@ 0x20000000
 8005318:	f000 80ee 	beq.w	80054f8 <HAL_RCCEx_PeriphCLKConfig+0x408>
  if(((PeriphClkInit->PeriphClockSelection) & RCC_PERIPHCLK_SWPMI1) == RCC_PERIPHCLK_SWPMI1)
 800531c:	041a      	lsls	r2, r3, #16
 800531e:	d509      	bpl.n	8005334 <HAL_RCCEx_PeriphCLKConfig+0x244>
    __HAL_RCC_SWPMI1_CONFIG(PeriphClkInit->Swpmi1ClockSelection);
 8005320:	4945      	ldr	r1, [pc, #276]	@ (8005438 <HAL_RCCEx_PeriphCLKConfig+0x348>)
 8005322:	f8d4 0080 	ldr.w	r0, [r4, #128]	@ 0x80
 8005326:	f8d1 2088 	ldr.w	r2, [r1, #136]	@ 0x88
 800532a:	f022 4280 	bic.w	r2, r2, #1073741824	@ 0x40000000
 800532e:	4302      	orrs	r2, r0
 8005330:	f8c1 2088 	str.w	r2, [r1, #136]	@ 0x88
  if(((PeriphClkInit->PeriphClockSelection) & RCC_PERIPHCLK_DFSDM1) == RCC_PERIPHCLK_DFSDM1)
 8005334:	03db      	lsls	r3, r3, #15
 8005336:	d509      	bpl.n	800534c <HAL_RCCEx_PeriphCLKConfig+0x25c>
    __HAL_RCC_DFSDM1_CONFIG(PeriphClkInit->Dfsdm1ClockSelection);
 8005338:	4a3f      	ldr	r2, [pc, #252]	@ (8005438 <HAL_RCCEx_PeriphCLKConfig+0x348>)
 800533a:	f8d4 1084 	ldr.w	r1, [r4, #132]	@ 0x84
 800533e:	f8d2 3088 	ldr.w	r3, [r2, #136]	@ 0x88
 8005342:	f023 4300 	bic.w	r3, r3, #2147483648	@ 0x80000000
 8005346:	430b      	orrs	r3, r1
 8005348:	f8c2 3088 	str.w	r3, [r2, #136]	@ 0x88
}
 800534c:	4630      	mov	r0, r6
 800534e:	b003      	add	sp, #12
 8005350:	e8bd 83f0 	ldmia.w	sp!, {r4, r5, r6, r7, r8, r9, pc}
    switch(PeriphClkInit->Sai1ClockSelection)
 8005354:	f5b1 0f40 	cmp.w	r1, #12582912	@ 0xc00000
 8005358:	f040 80b1 	bne.w	80054be <HAL_RCCEx_PeriphCLKConfig+0x3ce>
      __HAL_RCC_SAI1_CONFIG(PeriphClkInit->Sai1ClockSelection);
 800535c:	4836      	ldr	r0, [pc, #216]	@ (8005438 <HAL_RCCEx_PeriphCLKConfig+0x348>)
 800535e:	f8d0 2088 	ldr.w	r2, [r0, #136]	@ 0x88
 8005362:	f422 0240 	bic.w	r2, r2, #12582912	@ 0xc00000
 8005366:	430a      	orrs	r2, r1
 8005368:	f8c0 2088 	str.w	r2, [r0, #136]	@ 0x88
  if((((PeriphClkInit->PeriphClockSelection) & RCC_PERIPHCLK_SAI2) == RCC_PERIPHCLK_SAI2))
 800536c:	04d8      	lsls	r0, r3, #19
  HAL_StatusTypeDef ret = HAL_OK;      /* Intermediate status */
 800536e:	f04f 0600 	mov.w	r6, #0
  if((((PeriphClkInit->PeriphClockSelection) & RCC_PERIPHCLK_SAI2) == RCC_PERIPHCLK_SAI2))
 8005372:	f53f aedf 	bmi.w	8005134 <HAL_RCCEx_PeriphCLKConfig+0x44>
    switch(PeriphClkInit->Sai2ClockSelection)
 8005376:	4637      	mov	r7, r6
  if((PeriphClkInit->PeriphClockSelection & RCC_PERIPHCLK_RTC) == RCC_PERIPHCLK_RTC)
 8005378:	0399      	lsls	r1, r3, #14
 800537a:	f57f aeff 	bpl.w	800517c <HAL_RCCEx_PeriphCLKConfig+0x8c>
    if(__HAL_RCC_PWR_IS_CLK_DISABLED() != 0U)
 800537e:	4b2e      	ldr	r3, [pc, #184]	@ (8005438 <HAL_RCCEx_PeriphCLKConfig+0x348>)
 8005380:	6d9a      	ldr	r2, [r3, #88]	@ 0x58
 8005382:	00d2      	lsls	r2, r2, #3
 8005384:	d565      	bpl.n	8005452 <HAL_RCCEx_PeriphCLKConfig+0x362>
    FlagStatus       pwrclkchanged = RESET;
 8005386:	f04f 0800 	mov.w	r8, #0
    SET_BIT(PWR->CR1, PWR_CR1_DBP);
 800538a:	4d2c      	ldr	r5, [pc, #176]	@ (800543c <HAL_RCCEx_PeriphCLKConfig+0x34c>)
 800538c:	682b      	ldr	r3, [r5, #0]
 800538e:	f443 7380 	orr.w	r3, r3, #256	@ 0x100
 8005392:	602b      	str	r3, [r5, #0]
    tickstart = HAL_GetTick();
 8005394:	f7fd fa7e 	bl	8002894 <HAL_GetTick>
 8005398:	4681      	mov	r9, r0
    while(READ_BIT(PWR->CR1, PWR_CR1_DBP) == 0U)
 800539a:	e005      	b.n	80053a8 <HAL_RCCEx_PeriphCLKConfig+0x2b8>
      if((HAL_GetTick() - tickstart) > RCC_DBP_TIMEOUT_VALUE)
 800539c:	f7fd fa7a 	bl	8002894 <HAL_GetTick>
 80053a0:	eba0 0309 	sub.w	r3, r0, r9
 80053a4:	2b02      	cmp	r3, #2
 80053a6:	d860      	bhi.n	800546a <HAL_RCCEx_PeriphCLKConfig+0x37a>
    while(READ_BIT(PWR->CR1, PWR_CR1_DBP) == 0U)
 80053a8:	682b      	ldr	r3, [r5, #0]
 80053aa:	05db      	lsls	r3, r3, #23
 80053ac:	d5f6      	bpl.n	800539c <HAL_RCCEx_PeriphCLKConfig+0x2ac>
    if(ret == HAL_OK)
 80053ae:	2f00      	cmp	r7, #0
 80053b0:	f040 80cb 	bne.w	800554a <HAL_RCCEx_PeriphCLKConfig+0x45a>
      tmpregister = READ_BIT(RCC->BDCR, RCC_BDCR_RTCSEL);
 80053b4:	4d20      	ldr	r5, [pc, #128]	@ (8005438 <HAL_RCCEx_PeriphCLKConfig+0x348>)
      if((tmpregister != RCC_RTCCLKSOURCE_NONE) && (tmpregister != PeriphClkInit->RTCClockSelection))
 80053b6:	f8d4 2088 	ldr.w	r2, [r4, #136]	@ 0x88
      tmpregister = READ_BIT(RCC->BDCR, RCC_BDCR_RTCSEL);
 80053ba:	f8d5 3090 	ldr.w	r3, [r5, #144]	@ 0x90
      if((tmpregister != RCC_RTCCLKSOURCE_NONE) && (tmpregister != PeriphClkInit->RTCClockSelection))
 80053be:	f413 7340 	ands.w	r3, r3, #768	@ 0x300
 80053c2:	d026      	beq.n	8005412 <HAL_RCCEx_PeriphCLKConfig+0x322>
 80053c4:	4293      	cmp	r3, r2
 80053c6:	d024      	beq.n	8005412 <HAL_RCCEx_PeriphCLKConfig+0x322>
        tmpregister = READ_BIT(RCC->BDCR, ~(RCC_BDCR_RTCSEL));
 80053c8:	f8d5 1090 	ldr.w	r1, [r5, #144]	@ 0x90
        __HAL_RCC_BACKUPRESET_FORCE();
 80053cc:	f8d5 3090 	ldr.w	r3, [r5, #144]	@ 0x90
 80053d0:	f443 3380 	orr.w	r3, r3, #65536	@ 0x10000
 80053d4:	f8c5 3090 	str.w	r3, [r5, #144]	@ 0x90
        __HAL_RCC_BACKUPRESET_RELEASE();
 80053d8:	f8d5 3090 	ldr.w	r3, [r5, #144]	@ 0x90
 80053dc:	f423 3380 	bic.w	r3, r3, #65536	@ 0x10000
 80053e0:	f8c5 3090 	str.w	r3, [r5, #144]	@ 0x90
      if (HAL_IS_BIT_SET(tmpregister, RCC_BDCR_LSEON))
 80053e4:	07cf      	lsls	r7, r1, #31
        tmpregister = READ_BIT(RCC->BDCR, ~(RCC_BDCR_RTCSEL));
 80053e6:	f421 7340 	bic.w	r3, r1, #768	@ 0x300
        RCC->BDCR = tmpregister;
 80053ea:	f8c5 3090 	str.w	r3, [r5, #144]	@ 0x90
      if (HAL_IS_BIT_SET(tmpregister, RCC_BDCR_LSEON))
 80053ee:	d510      	bpl.n	8005412 <HAL_RCCEx_PeriphCLKConfig+0x322>
        tickstart = HAL_GetTick();
 80053f0:	f7fd fa50 	bl	8002894 <HAL_GetTick>
          if((HAL_GetTick() - tickstart) > RCC_LSE_TIMEOUT_VALUE)
 80053f4:	f241 3988 	movw	r9, #5000	@ 0x1388
        tickstart = HAL_GetTick();
 80053f8:	4607      	mov	r7, r0
        while(READ_BIT(RCC->BDCR, RCC_BDCR_LSERDY) == 0U)
 80053fa:	e004      	b.n	8005406 <HAL_RCCEx_PeriphCLKConfig+0x316>
          if((HAL_GetTick() - tickstart) > RCC_LSE_TIMEOUT_VALUE)
 80053fc:	f7fd fa4a 	bl	8002894 <HAL_GetTick>
 8005400:	1bc0      	subs	r0, r0, r7
 8005402:	4548      	cmp	r0, r9
 8005404:	d831      	bhi.n	800546a <HAL_RCCEx_PeriphCLKConfig+0x37a>
        while(READ_BIT(RCC->BDCR, RCC_BDCR_LSERDY) == 0U)
 8005406:	f8d5 3090 	ldr.w	r3, [r5, #144]	@ 0x90
 800540a:	0798      	lsls	r0, r3, #30
 800540c:	d5f6      	bpl.n	80053fc <HAL_RCCEx_PeriphCLKConfig+0x30c>
        __HAL_RCC_RTC_CONFIG(PeriphClkInit->RTCClockSelection);
 800540e:	f8d4 2088 	ldr.w	r2, [r4, #136]	@ 0x88
 8005412:	4909      	ldr	r1, [pc, #36]	@ (8005438 <HAL_RCCEx_PeriphCLKConfig+0x348>)
 8005414:	f8d1 3090 	ldr.w	r3, [r1, #144]	@ 0x90
 8005418:	f423 7340 	bic.w	r3, r3, #768	@ 0x300
 800541c:	4313      	orrs	r3, r2
 800541e:	f8c1 3090 	str.w	r3, [r1, #144]	@ 0x90
  if(((PeriphClkInit->PeriphClockSelection) & RCC_PERIPHCLK_USART1) == RCC_PERIPHCLK_USART1)
 8005422:	6823      	ldr	r3, [r4, #0]
    if(pwrclkchanged == SET)
 8005424:	f1b8 0f00 	cmp.w	r8, #0
 8005428:	f43f aea8 	beq.w	800517c <HAL_RCCEx_PeriphCLKConfig+0x8c>
      __HAL_RCC_PWR_CLK_DISABLE();
 800542c:	4902      	ldr	r1, [pc, #8]	@ (8005438 <HAL_RCCEx_PeriphCLKConfig+0x348>)
 800542e:	6d8a      	ldr	r2, [r1, #88]	@ 0x58
 8005430:	f022 5280 	bic.w	r2, r2, #268435456	@ 0x10000000
 8005434:	658a      	str	r2, [r1, #88]	@ 0x58
 8005436:	e6a1      	b.n	800517c <HAL_RCCEx_PeriphCLKConfig+0x8c>
 8005438:	40021000 	.word	0x40021000
 800543c:	40007000 	.word	0x40007000
    switch(PeriphClkInit->Sai2ClockSelection)
 8005440:	f1b1 7f40 	cmp.w	r1, #50331648	@ 0x3000000
 8005444:	d13d      	bne.n	80054c2 <HAL_RCCEx_PeriphCLKConfig+0x3d2>
    switch(PeriphClkInit->Sai1ClockSelection)
 8005446:	4637      	mov	r7, r6
    if(ret == HAL_OK)
 8005448:	2f00      	cmp	r7, #0
 800544a:	f43f ae8b 	beq.w	8005164 <HAL_RCCEx_PeriphCLKConfig+0x74>
 800544e:	463e      	mov	r6, r7
 8005450:	e792      	b.n	8005378 <HAL_RCCEx_PeriphCLKConfig+0x288>
      __HAL_RCC_PWR_CLK_ENABLE();
 8005452:	6d9a      	ldr	r2, [r3, #88]	@ 0x58
 8005454:	f042 5280 	orr.w	r2, r2, #268435456	@ 0x10000000
 8005458:	659a      	str	r2, [r3, #88]	@ 0x58
 800545a:	6d9b      	ldr	r3, [r3, #88]	@ 0x58
 800545c:	f003 5380 	and.w	r3, r3, #268435456	@ 0x10000000
 8005460:	9301      	str	r3, [sp, #4]
 8005462:	9b01      	ldr	r3, [sp, #4]
      pwrclkchanged = SET;
 8005464:	f04f 0801 	mov.w	r8, #1
 8005468:	e78f      	b.n	800538a <HAL_RCCEx_PeriphCLKConfig+0x29a>
        ret = HAL_TIMEOUT;
 800546a:	2603      	movs	r6, #3
  if(((PeriphClkInit->PeriphClockSelection) & RCC_PERIPHCLK_USART1) == RCC_PERIPHCLK_USART1)
 800546c:	6823      	ldr	r3, [r4, #0]
    if(pwrclkchanged == SET)
 800546e:	f1b8 0f00 	cmp.w	r8, #0
 8005472:	f43f ae83 	beq.w	800517c <HAL_RCCEx_PeriphCLKConfig+0x8c>
      __HAL_RCC_PWR_CLK_DISABLE();
 8005476:	4936      	ldr	r1, [pc, #216]	@ (8005550 <HAL_RCCEx_PeriphCLKConfig+0x460>)
 8005478:	6d8a      	ldr	r2, [r1, #88]	@ 0x58
 800547a:	f022 5280 	bic.w	r2, r2, #268435456	@ 0x10000000
 800547e:	658a      	str	r2, [r1, #88]	@ 0x58
 8005480:	e67c      	b.n	800517c <HAL_RCCEx_PeriphCLKConfig+0x8c>
      ret = RCCEx_PLLSAI1_Config(&(PeriphClkInit->PLLSAI1), DIVIDER_P_UPDATE);
 8005482:	3004      	adds	r0, #4
 8005484:	f7ff fd26 	bl	8004ed4 <RCCEx_PLLSAI1_Config>
 8005488:	4606      	mov	r6, r0
  if((((PeriphClkInit->PeriphClockSelection) & RCC_PERIPHCLK_SAI2) == RCC_PERIPHCLK_SAI2))
 800548a:	6823      	ldr	r3, [r4, #0]
    if(ret == HAL_OK)
 800548c:	2e00      	cmp	r6, #0
 800548e:	f47f ae4e 	bne.w	800512e <HAL_RCCEx_PeriphCLKConfig+0x3e>
 8005492:	e02f      	b.n	80054f4 <HAL_RCCEx_PeriphCLKConfig+0x404>
      ret = RCCEx_PLLSAI1_Config(&(PeriphClkInit->PLLSAI1), DIVIDER_P_UPDATE);
 8005494:	1d20      	adds	r0, r4, #4
 8005496:	f7ff fd1d 	bl	8004ed4 <RCCEx_PLLSAI1_Config>
  if((PeriphClkInit->PeriphClockSelection & RCC_PERIPHCLK_RTC) == RCC_PERIPHCLK_RTC)
 800549a:	6823      	ldr	r3, [r4, #0]
      ret = RCCEx_PLLSAI1_Config(&(PeriphClkInit->PLLSAI1), DIVIDER_P_UPDATE);
 800549c:	4607      	mov	r7, r0
      break;
 800549e:	e65e      	b.n	800515e <HAL_RCCEx_PeriphCLKConfig+0x6e>
      __HAL_RCC_PLLCLKOUT_ENABLE(RCC_PLL_48M1CLK);
 80054a0:	68ca      	ldr	r2, [r1, #12]
 80054a2:	f442 1280 	orr.w	r2, r2, #1048576	@ 0x100000
 80054a6:	60ca      	str	r2, [r1, #12]
 80054a8:	e725      	b.n	80052f6 <HAL_RCCEx_PeriphCLKConfig+0x206>
      __HAL_RCC_PLLCLKOUT_ENABLE(RCC_PLL_48M1CLK);
 80054aa:	68ca      	ldr	r2, [r1, #12]
 80054ac:	f442 1280 	orr.w	r2, r2, #1048576	@ 0x100000
 80054b0:	60ca      	str	r2, [r1, #12]
 80054b2:	e6fa      	b.n	80052aa <HAL_RCCEx_PeriphCLKConfig+0x1ba>
      __HAL_RCC_PLLCLKOUT_ENABLE(RCC_PLL_48M1CLK);
 80054b4:	68ca      	ldr	r2, [r1, #12]
 80054b6:	f442 1280 	orr.w	r2, r2, #1048576	@ 0x100000
 80054ba:	60ca      	str	r2, [r1, #12]
 80054bc:	e708      	b.n	80052d0 <HAL_RCCEx_PeriphCLKConfig+0x1e0>
    switch(PeriphClkInit->Sai1ClockSelection)
 80054be:	2601      	movs	r6, #1
 80054c0:	e635      	b.n	800512e <HAL_RCCEx_PeriphCLKConfig+0x3e>
    switch(PeriphClkInit->Sai2ClockSelection)
 80054c2:	2601      	movs	r6, #1
 80054c4:	e757      	b.n	8005376 <HAL_RCCEx_PeriphCLKConfig+0x286>
      ret = RCCEx_PLLSAI1_Config(&(PeriphClkInit->PLLSAI1), DIVIDER_R_UPDATE);
 80054c6:	2102      	movs	r1, #2
 80054c8:	1d20      	adds	r0, r4, #4
 80054ca:	f7ff fd03 	bl	8004ed4 <RCCEx_PLLSAI1_Config>
  if(((PeriphClkInit->PeriphClockSelection) & RCC_PERIPHCLK_SWPMI1) == RCC_PERIPHCLK_SWPMI1)
 80054ce:	6823      	ldr	r3, [r4, #0]
      if(ret != HAL_OK)
 80054d0:	2800      	cmp	r0, #0
 80054d2:	f43f af23 	beq.w	800531c <HAL_RCCEx_PeriphCLKConfig+0x22c>
  if(((PeriphClkInit->PeriphClockSelection) & RCC_PERIPHCLK_SWPMI1) == RCC_PERIPHCLK_SWPMI1)
 80054d6:	4606      	mov	r6, r0
 80054d8:	e720      	b.n	800531c <HAL_RCCEx_PeriphCLKConfig+0x22c>
      __HAL_RCC_PLLCLKOUT_ENABLE(RCC_PLL_SAI3CLK);
 80054da:	481d      	ldr	r0, [pc, #116]	@ (8005550 <HAL_RCCEx_PeriphCLKConfig+0x460>)
 80054dc:	68c2      	ldr	r2, [r0, #12]
 80054de:	f442 3280 	orr.w	r2, r2, #65536	@ 0x10000
 80054e2:	60c2      	str	r2, [r0, #12]
    if(ret == HAL_OK)
 80054e4:	e73a      	b.n	800535c <HAL_RCCEx_PeriphCLKConfig+0x26c>
      __HAL_RCC_PLLCLKOUT_ENABLE(RCC_PLL_SAI3CLK);
 80054e6:	491a      	ldr	r1, [pc, #104]	@ (8005550 <HAL_RCCEx_PeriphCLKConfig+0x460>)
 80054e8:	68ca      	ldr	r2, [r1, #12]
 80054ea:	f442 3280 	orr.w	r2, r2, #65536	@ 0x10000
 80054ee:	60ca      	str	r2, [r1, #12]
    switch(PeriphClkInit->Sai1ClockSelection)
 80054f0:	4637      	mov	r7, r6
 80054f2:	e7a9      	b.n	8005448 <HAL_RCCEx_PeriphCLKConfig+0x358>
      __HAL_RCC_SAI1_CONFIG(PeriphClkInit->Sai1ClockSelection);
 80054f4:	6ea1      	ldr	r1, [r4, #104]	@ 0x68
 80054f6:	e731      	b.n	800535c <HAL_RCCEx_PeriphCLKConfig+0x26c>
      ret = RCCEx_PLLSAI2_Config(&(PeriphClkInit->PLLSAI2), DIVIDER_R_UPDATE);
 80054f8:	2102      	movs	r1, #2
 80054fa:	f104 0020 	add.w	r0, r4, #32
 80054fe:	f7ff fd77 	bl	8004ff0 <RCCEx_PLLSAI2_Config>
  if(((PeriphClkInit->PeriphClockSelection) & RCC_PERIPHCLK_SWPMI1) == RCC_PERIPHCLK_SWPMI1)
 8005502:	6823      	ldr	r3, [r4, #0]
      if(ret != HAL_OK)
 8005504:	2800      	cmp	r0, #0
 8005506:	f43f af09 	beq.w	800531c <HAL_RCCEx_PeriphCLKConfig+0x22c>
  if(((PeriphClkInit->PeriphClockSelection) & RCC_PERIPHCLK_SWPMI1) == RCC_PERIPHCLK_SWPMI1)
 800550a:	4606      	mov	r6, r0
 800550c:	e706      	b.n	800531c <HAL_RCCEx_PeriphCLKConfig+0x22c>
        ret = RCCEx_PLLSAI1_Config(&(PeriphClkInit->PLLSAI1), DIVIDER_Q_UPDATE);
 800550e:	2101      	movs	r1, #1
 8005510:	1d20      	adds	r0, r4, #4
 8005512:	f7ff fcdf 	bl	8004ed4 <RCCEx_PLLSAI1_Config>
  if(((PeriphClkInit->PeriphClockSelection) & RCC_PERIPHCLK_SDMMC1) == (RCC_PERIPHCLK_SDMMC1))
 8005516:	6823      	ldr	r3, [r4, #0]
        if(ret != HAL_OK)
 8005518:	2800      	cmp	r0, #0
 800551a:	f43f aec6 	beq.w	80052aa <HAL_RCCEx_PeriphCLKConfig+0x1ba>
  if(((PeriphClkInit->PeriphClockSelection) & RCC_PERIPHCLK_SDMMC1) == (RCC_PERIPHCLK_SDMMC1))
 800551e:	4606      	mov	r6, r0
 8005520:	e6c3      	b.n	80052aa <HAL_RCCEx_PeriphCLKConfig+0x1ba>
      ret = RCCEx_PLLSAI1_Config(&(PeriphClkInit->PLLSAI1), DIVIDER_Q_UPDATE);
 8005522:	2101      	movs	r1, #1
 8005524:	1d20      	adds	r0, r4, #4
 8005526:	f7ff fcd5 	bl	8004ed4 <RCCEx_PLLSAI1_Config>
  if(((PeriphClkInit->PeriphClockSelection) & RCC_PERIPHCLK_RNG) == (RCC_PERIPHCLK_RNG))
 800552a:	6823      	ldr	r3, [r4, #0]
      if(ret != HAL_OK)
 800552c:	2800      	cmp	r0, #0
 800552e:	f43f aecf 	beq.w	80052d0 <HAL_RCCEx_PeriphCLKConfig+0x1e0>
  if(((PeriphClkInit->PeriphClockSelection) & RCC_PERIPHCLK_RNG) == (RCC_PERIPHCLK_RNG))
 8005532:	4606      	mov	r6, r0
 8005534:	e6cc      	b.n	80052d0 <HAL_RCCEx_PeriphCLKConfig+0x1e0>
      ret = RCCEx_PLLSAI1_Config(&(PeriphClkInit->PLLSAI1), DIVIDER_Q_UPDATE);
 8005536:	2101      	movs	r1, #1
 8005538:	1d20      	adds	r0, r4, #4
 800553a:	f7ff fccb 	bl	8004ed4 <RCCEx_PLLSAI1_Config>
  if(((PeriphClkInit->PeriphClockSelection) & RCC_PERIPHCLK_ADC) == RCC_PERIPHCLK_ADC)
 800553e:	6823      	ldr	r3, [r4, #0]
      if(ret != HAL_OK)
 8005540:	2800      	cmp	r0, #0
 8005542:	f43f aed8 	beq.w	80052f6 <HAL_RCCEx_PeriphCLKConfig+0x206>
  if(((PeriphClkInit->PeriphClockSelection) & RCC_PERIPHCLK_ADC) == RCC_PERIPHCLK_ADC)
 8005546:	4606      	mov	r6, r0
 8005548:	e6d5      	b.n	80052f6 <HAL_RCCEx_PeriphCLKConfig+0x206>
 800554a:	463e      	mov	r6, r7
 800554c:	e78e      	b.n	800546c <HAL_RCCEx_PeriphCLKConfig+0x37c>
 800554e:	bf00      	nop
 8005550:	40021000 	.word	0x40021000

08005554 <SPI_WaitFifoStateUntilTimeout.constprop.0>:
  * @param  State Fifo state to check
  * @param  Timeout Timeout duration
  * @param  Tickstart tick start value
  * @retval HAL status
  */
static HAL_StatusTypeDef SPI_WaitFifoStateUntilTimeout(SPI_HandleTypeDef *hspi, uint32_t Fifo, uint32_t State,
 8005554:	e92d 41f0 	stmdb	sp!, {r4, r5, r6, r7, r8, lr}
 8005558:	b082      	sub	sp, #8
{
  __IO uint32_t count;
  uint32_t tmp_timeout;
  uint32_t tmp_tickstart;
  __IO const uint8_t  *ptmpreg8;
  __IO uint8_t  tmpreg8 = 0;
 800555a:	2300      	movs	r3, #0
static HAL_StatusTypeDef SPI_WaitFifoStateUntilTimeout(SPI_HandleTypeDef *hspi, uint32_t Fifo, uint32_t State,
 800555c:	460e      	mov	r6, r1
 800555e:	4617      	mov	r7, r2
  __IO uint8_t  tmpreg8 = 0;
 8005560:	f88d 3003 	strb.w	r3, [sp, #3]
static HAL_StatusTypeDef SPI_WaitFifoStateUntilTimeout(SPI_HandleTypeDef *hspi, uint32_t Fifo, uint32_t State,
 8005564:	4605      	mov	r5, r0

  /* Adjust Timeout value  in case of end of transfer */
  tmp_timeout = Timeout - (HAL_GetTick() - Tickstart);
 8005566:	f7fd f995 	bl	8002894 <HAL_GetTick>
 800556a:	4437      	add	r7, r6
 800556c:	1a3f      	subs	r7, r7, r0
  tmp_tickstart = HAL_GetTick();
 800556e:	f7fd f991 	bl	8002894 <HAL_GetTick>

  /* Initialize the 8bit temporary pointer */
  ptmpreg8 = (__IO uint8_t *)&hspi->Instance->DR;

  /* Calculate Timeout based on a software loop to avoid blocking issue if Systick is disabled */
  count = tmp_timeout * ((SystemCoreClock * 35U) >> 20U);
 8005572:	4b32      	ldr	r3, [pc, #200]	@ (800563c <SPI_WaitFifoStateUntilTimeout.constprop.0+0xe8>)
  ptmpreg8 = (__IO uint8_t *)&hspi->Instance->DR;
 8005574:	682c      	ldr	r4, [r5, #0]
  count = tmp_timeout * ((SystemCoreClock * 35U) >> 20U);
 8005576:	681b      	ldr	r3, [r3, #0]
 8005578:	eb03 0383 	add.w	r3, r3, r3, lsl #2
 800557c:	ebc3 03c3 	rsb	r3, r3, r3, lsl #3
 8005580:	0d1b      	lsrs	r3, r3, #20
 8005582:	fb07 f303 	mul.w	r3, r7, r3
 8005586:	3601      	adds	r6, #1
 8005588:	9301      	str	r3, [sp, #4]

  while ((hspi->Instance->SR & Fifo) != State)
 800558a:	d111      	bne.n	80055b0 <SPI_WaitFifoStateUntilTimeout.constprop.0+0x5c>
 800558c:	68a3      	ldr	r3, [r4, #8]
 800558e:	f413 6fc0 	tst.w	r3, #1536	@ 0x600
 8005592:	d009      	beq.n	80055a8 <SPI_WaitFifoStateUntilTimeout.constprop.0+0x54>
  {
    if ((Fifo == SPI_SR_FRLVL) && (State == SPI_FRLVL_EMPTY))
    {
      /* Flush Data Register by a blank read */
      tmpreg8 = *ptmpreg8;
 8005594:	7b23      	ldrb	r3, [r4, #12]
 8005596:	b2db      	uxtb	r3, r3
 8005598:	f88d 3003 	strb.w	r3, [sp, #3]
      /* To avoid GCC warning */
      UNUSED(tmpreg8);
 800559c:	f89d 3003 	ldrb.w	r3, [sp, #3]
  while ((hspi->Instance->SR & Fifo) != State)
 80055a0:	68a3      	ldr	r3, [r4, #8]
 80055a2:	f413 6fc0 	tst.w	r3, #1536	@ 0x600
 80055a6:	d1f5      	bne.n	8005594 <SPI_WaitFifoStateUntilTimeout.constprop.0+0x40>
      }
      count--;
    }
  }

  return HAL_OK;
 80055a8:	2000      	movs	r0, #0
}
 80055aa:	b002      	add	sp, #8
 80055ac:	e8bd 81f0 	ldmia.w	sp!, {r4, r5, r6, r7, r8, pc}
 80055b0:	4680      	mov	r8, r0
  count = tmp_timeout * ((SystemCoreClock * 35U) >> 20U);
 80055b2:	4623      	mov	r3, r4
 80055b4:	e013      	b.n	80055de <SPI_WaitFifoStateUntilTimeout.constprop.0+0x8a>
      tmpreg8 = *ptmpreg8;
 80055b6:	7b23      	ldrb	r3, [r4, #12]
 80055b8:	b2db      	uxtb	r3, r3
 80055ba:	f88d 3003 	strb.w	r3, [sp, #3]
      UNUSED(tmpreg8);
 80055be:	f89d 3003 	ldrb.w	r3, [sp, #3]
      if (((HAL_GetTick() - tmp_tickstart) >= tmp_timeout) || (tmp_timeout == 0U))
 80055c2:	f7fd f967 	bl	8002894 <HAL_GetTick>
 80055c6:	eba0 0008 	sub.w	r0, r0, r8
 80055ca:	42b8      	cmp	r0, r7
 80055cc:	d20c      	bcs.n	80055e8 <SPI_WaitFifoStateUntilTimeout.constprop.0+0x94>
      if (count == 0U)
 80055ce:	9a01      	ldr	r2, [sp, #4]
      count--;
 80055d0:	9b01      	ldr	r3, [sp, #4]
 80055d2:	3b01      	subs	r3, #1
        tmp_timeout = 0U;
 80055d4:	2a00      	cmp	r2, #0
      count--;
 80055d6:	9301      	str	r3, [sp, #4]
        __HAL_SPI_DISABLE_IT(hspi, (SPI_IT_TXE | SPI_IT_RXNE | SPI_IT_ERR));
 80055d8:	682b      	ldr	r3, [r5, #0]
        tmp_timeout = 0U;
 80055da:	bf08      	it	eq
 80055dc:	2700      	moveq	r7, #0
  while ((hspi->Instance->SR & Fifo) != State)
 80055de:	689b      	ldr	r3, [r3, #8]
 80055e0:	f413 6fc0 	tst.w	r3, #1536	@ 0x600
 80055e4:	d1e7      	bne.n	80055b6 <SPI_WaitFifoStateUntilTimeout.constprop.0+0x62>
 80055e6:	e7df      	b.n	80055a8 <SPI_WaitFifoStateUntilTimeout.constprop.0+0x54>
        if ((hspi->Init.Mode == SPI_MODE_MASTER) && ((hspi->Init.Direction == SPI_DIRECTION_1LINE)
 80055e8:	e9d5 3100 	ldrd	r3, r1, [r5]
        __HAL_SPI_DISABLE_IT(hspi, (SPI_IT_TXE | SPI_IT_RXNE | SPI_IT_ERR));
 80055ec:	685a      	ldr	r2, [r3, #4]
        if ((hspi->Init.Mode == SPI_MODE_MASTER) && ((hspi->Init.Direction == SPI_DIRECTION_1LINE)
 80055ee:	f5b1 7f82 	cmp.w	r1, #260	@ 0x104
        __HAL_SPI_DISABLE_IT(hspi, (SPI_IT_TXE | SPI_IT_RXNE | SPI_IT_ERR));
 80055f2:	f022 02e0 	bic.w	r2, r2, #224	@ 0xe0
 80055f6:	605a      	str	r2, [r3, #4]
        if ((hspi->Init.Mode == SPI_MODE_MASTER) && ((hspi->Init.Direction == SPI_DIRECTION_1LINE)
 80055f8:	d013      	beq.n	8005622 <SPI_WaitFifoStateUntilTimeout.constprop.0+0xce>
        if (hspi->Init.CRCCalculation == SPI_CRCCALCULATION_ENABLE)
 80055fa:	6aaa      	ldr	r2, [r5, #40]	@ 0x28
 80055fc:	f5b2 5f00 	cmp.w	r2, #8192	@ 0x2000
 8005600:	d107      	bne.n	8005612 <SPI_WaitFifoStateUntilTimeout.constprop.0+0xbe>
          SPI_RESET_CRC(hspi);
 8005602:	681a      	ldr	r2, [r3, #0]
 8005604:	f422 5200 	bic.w	r2, r2, #8192	@ 0x2000
 8005608:	601a      	str	r2, [r3, #0]
 800560a:	681a      	ldr	r2, [r3, #0]
 800560c:	f442 5200 	orr.w	r2, r2, #8192	@ 0x2000
 8005610:	601a      	str	r2, [r3, #0]
        hspi->State = HAL_SPI_STATE_READY;
 8005612:	2201      	movs	r2, #1
        __HAL_UNLOCK(hspi);
 8005614:	2300      	movs	r3, #0
        hspi->State = HAL_SPI_STATE_READY;
 8005616:	f885 205d 	strb.w	r2, [r5, #93]	@ 0x5d
        __HAL_UNLOCK(hspi);
 800561a:	f885 305c 	strb.w	r3, [r5, #92]	@ 0x5c
        return HAL_TIMEOUT;
 800561e:	2003      	movs	r0, #3
 8005620:	e7c3      	b.n	80055aa <SPI_WaitFifoStateUntilTimeout.constprop.0+0x56>
        if ((hspi->Init.Mode == SPI_MODE_MASTER) && ((hspi->Init.Direction == SPI_DIRECTION_1LINE)
 8005622:	68aa      	ldr	r2, [r5, #8]
 8005624:	f5b2 4f00 	cmp.w	r2, #32768	@ 0x8000
 8005628:	d002      	beq.n	8005630 <SPI_WaitFifoStateUntilTimeout.constprop.0+0xdc>
                                                     || (hspi->Init.Direction == SPI_DIRECTION_2LINES_RXONLY)))
 800562a:	f5b2 6f80 	cmp.w	r2, #1024	@ 0x400
 800562e:	d1e4      	bne.n	80055fa <SPI_WaitFifoStateUntilTimeout.constprop.0+0xa6>
          __HAL_SPI_DISABLE(hspi);
 8005630:	681a      	ldr	r2, [r3, #0]
 8005632:	f022 0240 	bic.w	r2, r2, #64	@ 0x40
 8005636:	601a      	str	r2, [r3, #0]
 8005638:	e7df      	b.n	80055fa <SPI_WaitFifoStateUntilTimeout.constprop.0+0xa6>
 800563a:	bf00      	nop
 800563c:	20000400 	.word	0x20000400

08005640 <SPI_EndRxTxTransaction>:
  * @param  Timeout Timeout duration
  * @param  Tickstart tick start value
  * @retval HAL status
  */
static HAL_StatusTypeDef SPI_EndRxTxTransaction(SPI_HandleTypeDef *hspi, uint32_t Timeout, uint32_t Tickstart)
{
 8005640:	e92d 4ff0 	stmdb	sp!, {r4, r5, r6, r7, r8, r9, sl, fp, lr}
 8005644:	b085      	sub	sp, #20
  __IO uint8_t  tmpreg8 = 0;
 8005646:	2300      	movs	r3, #0
{
 8005648:	460e      	mov	r6, r1
  __IO uint8_t  tmpreg8 = 0;
 800564a:	f88d 3007 	strb.w	r3, [sp, #7]
 800564e:	eb01 0902 	add.w	r9, r1, r2
{
 8005652:	4617      	mov	r7, r2
 8005654:	4605      	mov	r5, r0
  tmp_timeout = Timeout - (HAL_GetTick() - Tickstart);
 8005656:	f7fd f91d 	bl	8002894 <HAL_GetTick>
  count = tmp_timeout * ((SystemCoreClock * 35U) >> 20U);
 800565a:	f8df 8124 	ldr.w	r8, [pc, #292]	@ 8005780 <SPI_EndRxTxTransaction+0x140>
  tmp_timeout = Timeout - (HAL_GetTick() - Tickstart);
 800565e:	eba9 0a00 	sub.w	sl, r9, r0
  tmp_tickstart = HAL_GetTick();
 8005662:	f7fd f917 	bl	8002894 <HAL_GetTick>
  count = tmp_timeout * ((SystemCoreClock * 35U) >> 20U);
 8005666:	f8d8 3000 	ldr.w	r3, [r8]
  while ((hspi->Instance->SR & Fifo) != State)
 800566a:	682c      	ldr	r4, [r5, #0]
  count = tmp_timeout * ((SystemCoreClock * 35U) >> 20U);
 800566c:	eb03 0383 	add.w	r3, r3, r3, lsl #2
 8005670:	ebc3 03c3 	rsb	r3, r3, r3, lsl #3
 8005674:	0d1b      	lsrs	r3, r3, #20
 8005676:	fb0a f303 	mul.w	r3, sl, r3
 800567a:	9302      	str	r3, [sp, #8]
  while ((hspi->Instance->SR & Fifo) != State)
 800567c:	1c73      	adds	r3, r6, #1
 800567e:	bf18      	it	ne
 8005680:	4683      	movne	fp, r0
 8005682:	d130      	bne.n	80056e6 <SPI_EndRxTxTransaction+0xa6>
 8005684:	68a3      	ldr	r3, [r4, #8]
 8005686:	f413 5fc0 	tst.w	r3, #6144	@ 0x1800
 800568a:	d1fb      	bne.n	8005684 <SPI_EndRxTxTransaction+0x44>
  tmp_timeout   = Timeout - (HAL_GetTick() - Tickstart);
 800568c:	f7fd f902 	bl	8002894 <HAL_GetTick>
 8005690:	eba9 0900 	sub.w	r9, r9, r0
  tmp_tickstart = HAL_GetTick();
 8005694:	f7fd f8fe 	bl	8002894 <HAL_GetTick>
  count = tmp_timeout * ((SystemCoreClock * 32U) >> 20U);
 8005698:	f8d8 3000 	ldr.w	r3, [r8]
  while ((__HAL_SPI_GET_FLAG(hspi, Flag) ? SET : RESET) != State)
 800569c:	682c      	ldr	r4, [r5, #0]
  count = tmp_timeout * ((SystemCoreClock * 32U) >> 20U);
 800569e:	f3c3 33cb 	ubfx	r3, r3, #15, #12
 80056a2:	fb09 f303 	mul.w	r3, r9, r3
 80056a6:	1c71      	adds	r1, r6, #1
  tmp_tickstart = HAL_GetTick();
 80056a8:	4680      	mov	r8, r0
  count = tmp_timeout * ((SystemCoreClock * 32U) >> 20U);
 80056aa:	9303      	str	r3, [sp, #12]
  while ((__HAL_SPI_GET_FLAG(hspi, Flag) ? SET : RESET) != State)
 80056ac:	d130      	bne.n	8005710 <SPI_EndRxTxTransaction+0xd0>
 80056ae:	68a3      	ldr	r3, [r4, #8]
 80056b0:	061a      	lsls	r2, r3, #24
 80056b2:	d4fc      	bmi.n	80056ae <SPI_EndRxTxTransaction+0x6e>
    SET_BIT(hspi->ErrorCode, HAL_SPI_ERROR_FLAG);
    return HAL_TIMEOUT;
  }

  /* Control if the RX fifo is empty */
  if (SPI_WaitFifoStateUntilTimeout(hspi, SPI_FLAG_FRLVL, SPI_FRLVL_EMPTY, Timeout, Tickstart) != HAL_OK)
 80056b4:	463a      	mov	r2, r7
 80056b6:	4631      	mov	r1, r6
 80056b8:	4628      	mov	r0, r5
 80056ba:	f7ff ff4b 	bl	8005554 <SPI_WaitFifoStateUntilTimeout.constprop.0>
 80056be:	bb58      	cbnz	r0, 8005718 <SPI_EndRxTxTransaction+0xd8>
    SET_BIT(hspi->ErrorCode, HAL_SPI_ERROR_FLAG);
    return HAL_TIMEOUT;
  }

  return HAL_OK;
}
 80056c0:	b005      	add	sp, #20
 80056c2:	e8bd 8ff0 	ldmia.w	sp!, {r4, r5, r6, r7, r8, r9, sl, fp, pc}
      if (((HAL_GetTick() - tmp_tickstart) >= tmp_timeout) || (tmp_timeout == 0U))
 80056c6:	f7fd f8e5 	bl	8002894 <HAL_GetTick>
 80056ca:	eba0 000b 	sub.w	r0, r0, fp
 80056ce:	4582      	cmp	sl, r0
 80056d0:	d92a      	bls.n	8005728 <SPI_EndRxTxTransaction+0xe8>
      if (count == 0U)
 80056d2:	9a02      	ldr	r2, [sp, #8]
      count--;
 80056d4:	9b02      	ldr	r3, [sp, #8]
  while ((hspi->Instance->SR & Fifo) != State)
 80056d6:	682c      	ldr	r4, [r5, #0]
        tmp_timeout = 0U;
 80056d8:	2a00      	cmp	r2, #0
      count--;
 80056da:	f103 33ff 	add.w	r3, r3, #4294967295
        tmp_timeout = 0U;
 80056de:	bf08      	it	eq
 80056e0:	f04f 0a00 	moveq.w	sl, #0
      count--;
 80056e4:	9302      	str	r3, [sp, #8]
  while ((hspi->Instance->SR & Fifo) != State)
 80056e6:	68a3      	ldr	r3, [r4, #8]
 80056e8:	f413 5fc0 	tst.w	r3, #6144	@ 0x1800
 80056ec:	d1eb      	bne.n	80056c6 <SPI_EndRxTxTransaction+0x86>
 80056ee:	e7cd      	b.n	800568c <SPI_EndRxTxTransaction+0x4c>
      if (((HAL_GetTick() - tmp_tickstart) >= tmp_timeout) || (tmp_timeout == 0U))
 80056f0:	f7fd f8d0 	bl	8002894 <HAL_GetTick>
 80056f4:	eba0 0008 	sub.w	r0, r0, r8
 80056f8:	4581      	cmp	r9, r0
 80056fa:	d915      	bls.n	8005728 <SPI_EndRxTxTransaction+0xe8>
      if (count == 0U)
 80056fc:	9a03      	ldr	r2, [sp, #12]
      count--;
 80056fe:	9b03      	ldr	r3, [sp, #12]
  while ((__HAL_SPI_GET_FLAG(hspi, Flag) ? SET : RESET) != State)
 8005700:	682c      	ldr	r4, [r5, #0]
        tmp_timeout = 0U;
 8005702:	2a00      	cmp	r2, #0
      count--;
 8005704:	f103 33ff 	add.w	r3, r3, #4294967295
        tmp_timeout = 0U;
 8005708:	bf08      	it	eq
 800570a:	f04f 0900 	moveq.w	r9, #0
      count--;
 800570e:	9303      	str	r3, [sp, #12]
  while ((__HAL_SPI_GET_FLAG(hspi, Flag) ? SET : RESET) != State)
 8005710:	68a3      	ldr	r3, [r4, #8]
 8005712:	061b      	lsls	r3, r3, #24
 8005714:	d4ec      	bmi.n	80056f0 <SPI_EndRxTxTransaction+0xb0>
 8005716:	e7cd      	b.n	80056b4 <SPI_EndRxTxTransaction+0x74>
    SET_BIT(hspi->ErrorCode, HAL_SPI_ERROR_FLAG);
 8005718:	6e2b      	ldr	r3, [r5, #96]	@ 0x60
 800571a:	f043 0320 	orr.w	r3, r3, #32
 800571e:	662b      	str	r3, [r5, #96]	@ 0x60
    return HAL_TIMEOUT;
 8005720:	2003      	movs	r0, #3
}
 8005722:	b005      	add	sp, #20
 8005724:	e8bd 8ff0 	ldmia.w	sp!, {r4, r5, r6, r7, r8, r9, sl, fp, pc}
        if ((hspi->Init.Mode == SPI_MODE_MASTER) && ((hspi->Init.Direction == SPI_DIRECTION_1LINE)
 8005728:	e9d5 3100 	ldrd	r3, r1, [r5]
        __HAL_SPI_DISABLE_IT(hspi, (SPI_IT_TXE | SPI_IT_RXNE | SPI_IT_ERR));
 800572c:	685a      	ldr	r2, [r3, #4]
        if ((hspi->Init.Mode == SPI_MODE_MASTER) && ((hspi->Init.Direction == SPI_DIRECTION_1LINE)
 800572e:	f5b1 7f82 	cmp.w	r1, #260	@ 0x104
        __HAL_SPI_DISABLE_IT(hspi, (SPI_IT_TXE | SPI_IT_RXNE | SPI_IT_ERR));
 8005732:	f022 02e0 	bic.w	r2, r2, #224	@ 0xe0
 8005736:	605a      	str	r2, [r3, #4]
        if ((hspi->Init.Mode == SPI_MODE_MASTER) && ((hspi->Init.Direction == SPI_DIRECTION_1LINE)
 8005738:	d016      	beq.n	8005768 <SPI_EndRxTxTransaction+0x128>
        if (hspi->Init.CRCCalculation == SPI_CRCCALCULATION_ENABLE)
 800573a:	6aaa      	ldr	r2, [r5, #40]	@ 0x28
 800573c:	f5b2 5f00 	cmp.w	r2, #8192	@ 0x2000
 8005740:	d107      	bne.n	8005752 <SPI_EndRxTxTransaction+0x112>
          SPI_RESET_CRC(hspi);
 8005742:	681a      	ldr	r2, [r3, #0]
 8005744:	f422 5200 	bic.w	r2, r2, #8192	@ 0x2000
 8005748:	601a      	str	r2, [r3, #0]
 800574a:	681a      	ldr	r2, [r3, #0]
 800574c:	f442 5200 	orr.w	r2, r2, #8192	@ 0x2000
 8005750:	601a      	str	r2, [r3, #0]
        hspi->State = HAL_SPI_STATE_READY;
 8005752:	2301      	movs	r3, #1
 8005754:	f885 305d 	strb.w	r3, [r5, #93]	@ 0x5d
    SET_BIT(hspi->ErrorCode, HAL_SPI_ERROR_FLAG);
 8005758:	6e2b      	ldr	r3, [r5, #96]	@ 0x60
        __HAL_UNLOCK(hspi);
 800575a:	2200      	movs	r2, #0
    SET_BIT(hspi->ErrorCode, HAL_SPI_ERROR_FLAG);
 800575c:	f043 0320 	orr.w	r3, r3, #32
        __HAL_UNLOCK(hspi);
 8005760:	f885 205c 	strb.w	r2, [r5, #92]	@ 0x5c
    SET_BIT(hspi->ErrorCode, HAL_SPI_ERROR_FLAG);
 8005764:	662b      	str	r3, [r5, #96]	@ 0x60
    return HAL_TIMEOUT;
 8005766:	e7db      	b.n	8005720 <SPI_EndRxTxTransaction+0xe0>
        if ((hspi->Init.Mode == SPI_MODE_MASTER) && ((hspi->Init.Direction == SPI_DIRECTION_1LINE)
 8005768:	68aa      	ldr	r2, [r5, #8]
 800576a:	f5b2 4f00 	cmp.w	r2, #32768	@ 0x8000
 800576e:	d002      	beq.n	8005776 <SPI_EndRxTxTransaction+0x136>
                                                     || (hspi->Init.Direction == SPI_DIRECTION_2LINES_RXONLY)))
 8005770:	f5b2 6f80 	cmp.w	r2, #1024	@ 0x400
 8005774:	d1e1      	bne.n	800573a <SPI_EndRxTxTransaction+0xfa>
          __HAL_SPI_DISABLE(hspi);
 8005776:	681a      	ldr	r2, [r3, #0]
 8005778:	f022 0240 	bic.w	r2, r2, #64	@ 0x40
 800577c:	601a      	str	r2, [r3, #0]
 800577e:	e7dc      	b.n	800573a <SPI_EndRxTxTransaction+0xfa>
 8005780:	20000400 	.word	0x20000400

08005784 <HAL_SPI_Init>:
  if (hspi == NULL)
 8005784:	2800      	cmp	r0, #0
 8005786:	d074      	beq.n	8005872 <HAL_SPI_Init+0xee>
{
 8005788:	e92d 41f0 	stmdb	sp!, {r4, r5, r6, r7, r8, lr}
 800578c:	4604      	mov	r4, r0
  if (hspi->Init.TIMode == SPI_TIMODE_DISABLE)
 800578e:	6a40      	ldr	r0, [r0, #36]	@ 0x24
 8005790:	2800      	cmp	r0, #0
 8005792:	d053      	beq.n	800583c <HAL_SPI_Init+0xb8>
    hspi->Init.CLKPolarity = SPI_POLARITY_LOW;
 8005794:	2300      	movs	r3, #0
 8005796:	e9c4 3304 	strd	r3, r3, [r4, #16]
  if (hspi->State == HAL_SPI_STATE_RESET)
 800579a:	f894 305d 	ldrb.w	r3, [r4, #93]	@ 0x5d
  hspi->Init.CRCCalculation = SPI_CRCCALCULATION_DISABLE;
 800579e:	2200      	movs	r2, #0
 80057a0:	62a2      	str	r2, [r4, #40]	@ 0x28
  if (hspi->State == HAL_SPI_STATE_RESET)
 80057a2:	f003 02ff 	and.w	r2, r3, #255	@ 0xff
 80057a6:	2b00      	cmp	r3, #0
 80057a8:	d057      	beq.n	800585a <HAL_SPI_Init+0xd6>
  __HAL_SPI_DISABLE(hspi);
 80057aa:	6821      	ldr	r1, [r4, #0]
  if (hspi->Init.DataSize > SPI_DATASIZE_8BIT)
 80057ac:	68e7      	ldr	r7, [r4, #12]
  hspi->State = HAL_SPI_STATE_BUSY;
 80057ae:	2302      	movs	r3, #2
 80057b0:	f884 305d 	strb.w	r3, [r4, #93]	@ 0x5d
  __HAL_SPI_DISABLE(hspi);
 80057b4:	680b      	ldr	r3, [r1, #0]
  if (hspi->Init.DataSize > SPI_DATASIZE_8BIT)
 80057b6:	f5b7 6fe0 	cmp.w	r7, #1792	@ 0x700
  __HAL_SPI_DISABLE(hspi);
 80057ba:	f023 0340 	bic.w	r3, r3, #64	@ 0x40
 80057be:	600b      	str	r3, [r1, #0]
  if (hspi->Init.DataSize > SPI_DATASIZE_8BIT)
 80057c0:	d842      	bhi.n	8005848 <HAL_SPI_Init+0xc4>
  if ((hspi->Init.DataSize != SPI_DATASIZE_16BIT) && (hspi->Init.DataSize != SPI_DATASIZE_8BIT))
 80057c2:	d151      	bne.n	8005868 <HAL_SPI_Init+0xe4>
  WRITE_REG(hspi->Instance->CR1, ((hspi->Init.Mode & (SPI_CR1_MSTR | SPI_CR1_SSI)) |
 80057c4:	6aa5      	ldr	r5, [r4, #40]	@ 0x28
    frxth = SPI_RXFIFO_THRESHOLD_QF;
 80057c6:	f44f 5c80 	mov.w	ip, #4096	@ 0x1000
  WRITE_REG(hspi->Instance->CR1, ((hspi->Init.Mode & (SPI_CR1_MSTR | SPI_CR1_SSI)) |
 80057ca:	f405 5500 	and.w	r5, r5, #8192	@ 0x2000
 80057ce:	6862      	ldr	r2, [r4, #4]
 80057d0:	68a3      	ldr	r3, [r4, #8]
 80057d2:	69a6      	ldr	r6, [r4, #24]
 80057d4:	f403 4304 	and.w	r3, r3, #33792	@ 0x8400
 80057d8:	f402 7282 	and.w	r2, r2, #260	@ 0x104
 80057dc:	431a      	orrs	r2, r3
 80057de:	6923      	ldr	r3, [r4, #16]
 80057e0:	f003 0302 	and.w	r3, r3, #2
 80057e4:	4313      	orrs	r3, r2
 80057e6:	6962      	ldr	r2, [r4, #20]
 80057e8:	f002 0201 	and.w	r2, r2, #1
 80057ec:	431a      	orrs	r2, r3
  WRITE_REG(hspi->Instance->CR2, (((hspi->Init.NSS >> 16U) & SPI_CR2_SSOE) |
 80057ee:	6b63      	ldr	r3, [r4, #52]	@ 0x34
 80057f0:	f407 6770 	and.w	r7, r7, #3840	@ 0xf00
 80057f4:	f003 0308 	and.w	r3, r3, #8
 80057f8:	ea43 0e07 	orr.w	lr, r3, r7
  WRITE_REG(hspi->Instance->CR1, ((hspi->Init.Mode & (SPI_CR1_MSTR | SPI_CR1_SSI)) |
 80057fc:	69e3      	ldr	r3, [r4, #28]
 80057fe:	f003 0838 	and.w	r8, r3, #56	@ 0x38
 8005802:	6a23      	ldr	r3, [r4, #32]
 8005804:	f003 0780 	and.w	r7, r3, #128	@ 0x80
 8005808:	f406 7300 	and.w	r3, r6, #512	@ 0x200
 800580c:	4313      	orrs	r3, r2
 800580e:	ea43 0308 	orr.w	r3, r3, r8
 8005812:	433b      	orrs	r3, r7
  WRITE_REG(hspi->Instance->CR2, (((hspi->Init.NSS >> 16U) & SPI_CR2_SSOE) |
 8005814:	0c36      	lsrs	r6, r6, #16
  WRITE_REG(hspi->Instance->CR1, ((hspi->Init.Mode & (SPI_CR1_MSTR | SPI_CR1_SSI)) |
 8005816:	432b      	orrs	r3, r5
  WRITE_REG(hspi->Instance->CR2, (((hspi->Init.NSS >> 16U) & SPI_CR2_SSOE) |
 8005818:	f006 0604 	and.w	r6, r6, #4
  WRITE_REG(hspi->Instance->CR1, ((hspi->Init.Mode & (SPI_CR1_MSTR | SPI_CR1_SSI)) |
 800581c:	600b      	str	r3, [r1, #0]
  WRITE_REG(hspi->Instance->CR2, (((hspi->Init.NSS >> 16U) & SPI_CR2_SSOE) |
 800581e:	f000 0010 	and.w	r0, r0, #16
 8005822:	ea4e 0306 	orr.w	r3, lr, r6
 8005826:	4303      	orrs	r3, r0
 8005828:	ea43 030c 	orr.w	r3, r3, ip
 800582c:	604b      	str	r3, [r1, #4]
  hspi->ErrorCode = HAL_SPI_ERROR_NONE;
 800582e:	2000      	movs	r0, #0
  hspi->State     = HAL_SPI_STATE_READY;
 8005830:	2301      	movs	r3, #1
  hspi->ErrorCode = HAL_SPI_ERROR_NONE;
 8005832:	6620      	str	r0, [r4, #96]	@ 0x60
  hspi->State     = HAL_SPI_STATE_READY;
 8005834:	f884 305d 	strb.w	r3, [r4, #93]	@ 0x5d
}
 8005838:	e8bd 81f0 	ldmia.w	sp!, {r4, r5, r6, r7, r8, pc}
    if (hspi->Init.Mode == SPI_MODE_MASTER)
 800583c:	6863      	ldr	r3, [r4, #4]
 800583e:	f5b3 7f82 	cmp.w	r3, #260	@ 0x104
 8005842:	d0aa      	beq.n	800579a <HAL_SPI_Init+0x16>
      hspi->Init.BaudRatePrescaler = SPI_BAUDRATEPRESCALER_2;
 8005844:	61e0      	str	r0, [r4, #28]
 8005846:	e7a8      	b.n	800579a <HAL_SPI_Init+0x16>
  if ((hspi->Init.DataSize != SPI_DATASIZE_16BIT) && (hspi->Init.DataSize != SPI_DATASIZE_8BIT))
 8005848:	f5b7 6f70 	cmp.w	r7, #3840	@ 0xf00
 800584c:	d113      	bne.n	8005876 <HAL_SPI_Init+0xf2>
  WRITE_REG(hspi->Instance->CR1, ((hspi->Init.Mode & (SPI_CR1_MSTR | SPI_CR1_SSI)) |
 800584e:	6aa5      	ldr	r5, [r4, #40]	@ 0x28
    frxth = SPI_RXFIFO_THRESHOLD_HF;
 8005850:	f04f 0c00 	mov.w	ip, #0
  WRITE_REG(hspi->Instance->CR1, ((hspi->Init.Mode & (SPI_CR1_MSTR | SPI_CR1_SSI)) |
 8005854:	f405 5500 	and.w	r5, r5, #8192	@ 0x2000
 8005858:	e7b9      	b.n	80057ce <HAL_SPI_Init+0x4a>
    HAL_SPI_MspInit(hspi);
 800585a:	4620      	mov	r0, r4
    hspi->Lock = HAL_UNLOCKED;
 800585c:	f884 205c 	strb.w	r2, [r4, #92]	@ 0x5c
    HAL_SPI_MspInit(hspi);
 8005860:	f7fc fdba 	bl	80023d8 <HAL_SPI_MspInit>
  WRITE_REG(hspi->Instance->CR2, (((hspi->Init.NSS >> 16U) & SPI_CR2_SSOE) |
 8005864:	6a60      	ldr	r0, [r4, #36]	@ 0x24
 8005866:	e7a0      	b.n	80057aa <HAL_SPI_Init+0x26>
    frxth = SPI_RXFIFO_THRESHOLD_QF;
 8005868:	f44f 5c80 	mov.w	ip, #4096	@ 0x1000
    hspi->Init.CRCCalculation = SPI_CRCCALCULATION_DISABLE;
 800586c:	2500      	movs	r5, #0
 800586e:	62a5      	str	r5, [r4, #40]	@ 0x28
 8005870:	e7ad      	b.n	80057ce <HAL_SPI_Init+0x4a>
    return HAL_ERROR;
 8005872:	2001      	movs	r0, #1
}
 8005874:	4770      	bx	lr
    frxth = SPI_RXFIFO_THRESHOLD_HF;
 8005876:	f04f 0c00 	mov.w	ip, #0
 800587a:	e7f7      	b.n	800586c <HAL_SPI_Init+0xe8>

0800587c <HAL_SPI_TransmitReceive>:
{
 800587c:	e92d 43f8 	stmdb	sp!, {r3, r4, r5, r6, r7, r8, r9, lr}
 8005880:	4604      	mov	r4, r0
 8005882:	4691      	mov	r9, r2
 8005884:	461f      	mov	r7, r3
 8005886:	9e08      	ldr	r6, [sp, #32]
 8005888:	4688      	mov	r8, r1
  tickstart = HAL_GetTick();
 800588a:	f7fd f803 	bl	8002894 <HAL_GetTick>
  tmp_state           = hspi->State;
 800588e:	f894 305d 	ldrb.w	r3, [r4, #93]	@ 0x5d
  tmp_mode            = hspi->Init.Mode;
 8005892:	6862      	ldr	r2, [r4, #4]
  if (!((tmp_state == HAL_SPI_STATE_READY) || \
 8005894:	2b01      	cmp	r3, #1
  tickstart = HAL_GetTick();
 8005896:	4605      	mov	r5, r0
  if (!((tmp_state == HAL_SPI_STATE_READY) || \
 8005898:	d00b      	beq.n	80058b2 <HAL_SPI_TransmitReceive+0x36>
 800589a:	f5b2 7f82 	cmp.w	r2, #260	@ 0x104
 800589e:	f040 808d 	bne.w	80059bc <HAL_SPI_TransmitReceive+0x140>
 80058a2:	b2d9      	uxtb	r1, r3
        ((tmp_mode == SPI_MODE_MASTER) && (hspi->Init.Direction == SPI_DIRECTION_2LINES) &&
 80058a4:	68a3      	ldr	r3, [r4, #8]
 80058a6:	2b00      	cmp	r3, #0
 80058a8:	f040 8088 	bne.w	80059bc <HAL_SPI_TransmitReceive+0x140>
 80058ac:	2904      	cmp	r1, #4
 80058ae:	f040 8085 	bne.w	80059bc <HAL_SPI_TransmitReceive+0x140>
  if ((pTxData == NULL) || (pRxData == NULL) || (Size == 0U))
 80058b2:	f1b8 0f00 	cmp.w	r8, #0
 80058b6:	f000 8146 	beq.w	8005b46 <HAL_SPI_TransmitReceive+0x2ca>
 80058ba:	f1b9 0f00 	cmp.w	r9, #0
 80058be:	f000 8142 	beq.w	8005b46 <HAL_SPI_TransmitReceive+0x2ca>
 80058c2:	2f00      	cmp	r7, #0
 80058c4:	f000 813f 	beq.w	8005b46 <HAL_SPI_TransmitReceive+0x2ca>
  __HAL_LOCK(hspi);
 80058c8:	f894 305c 	ldrb.w	r3, [r4, #92]	@ 0x5c
 80058cc:	2b01      	cmp	r3, #1
 80058ce:	d075      	beq.n	80059bc <HAL_SPI_TransmitReceive+0x140>
  if (hspi->State != HAL_SPI_STATE_BUSY_RX)
 80058d0:	f894 305d 	ldrb.w	r3, [r4, #93]	@ 0x5d
  hspi->pRxBuffPtr  = (uint8_t *)pRxData;
 80058d4:	f8c4 9040 	str.w	r9, [r4, #64]	@ 0x40
  __HAL_LOCK(hspi);
 80058d8:	2101      	movs	r1, #1
  if (hspi->State != HAL_SPI_STATE_BUSY_RX)
 80058da:	2b04      	cmp	r3, #4
  __HAL_LOCK(hspi);
 80058dc:	f884 105c 	strb.w	r1, [r4, #92]	@ 0x5c
  if ((hspi->Init.DataSize > SPI_DATASIZE_8BIT) || (initial_RxXferCount > 1U))
 80058e0:	68e1      	ldr	r1, [r4, #12]
  hspi->RxXferSize  = Size;
 80058e2:	f8a4 7044 	strh.w	r7, [r4, #68]	@ 0x44
    hspi->State = HAL_SPI_STATE_BUSY_TX_RX;
 80058e6:	bf1c      	itt	ne
 80058e8:	2305      	movne	r3, #5
 80058ea:	f884 305d 	strbne.w	r3, [r4, #93]	@ 0x5d
  hspi->ErrorCode   = HAL_SPI_ERROR_NONE;
 80058ee:	2300      	movs	r3, #0
  if ((hspi->Init.DataSize > SPI_DATASIZE_8BIT) || (initial_RxXferCount > 1U))
 80058f0:	f5b1 6fe0 	cmp.w	r1, #1792	@ 0x700
  hspi->ErrorCode   = HAL_SPI_ERROR_NONE;
 80058f4:	6623      	str	r3, [r4, #96]	@ 0x60
  hspi->RxISR       = NULL;
 80058f6:	e9c4 3313 	strd	r3, r3, [r4, #76]	@ 0x4c
  hspi->RxXferCount = Size;
 80058fa:	f8a4 7046 	strh.w	r7, [r4, #70]	@ 0x46
    SET_BIT(hspi->Instance->CR2, SPI_RXFIFO_THRESHOLD);
 80058fe:	6823      	ldr	r3, [r4, #0]
  hspi->pTxBuffPtr  = (const uint8_t *)pTxData;
 8005900:	f8c4 8038 	str.w	r8, [r4, #56]	@ 0x38
  hspi->TxXferSize  = Size;
 8005904:	87a7      	strh	r7, [r4, #60]	@ 0x3c
  hspi->TxXferCount = Size;
 8005906:	87e7      	strh	r7, [r4, #62]	@ 0x3e
  if ((hspi->Init.DataSize > SPI_DATASIZE_8BIT) || (initial_RxXferCount > 1U))
 8005908:	d95b      	bls.n	80059c2 <HAL_SPI_TransmitReceive+0x146>
    CLEAR_BIT(hspi->Instance->CR2, SPI_RXFIFO_THRESHOLD);
 800590a:	6859      	ldr	r1, [r3, #4]
 800590c:	f421 5180 	bic.w	r1, r1, #4096	@ 0x1000
 8005910:	6059      	str	r1, [r3, #4]
  if ((hspi->Instance->CR1 & SPI_CR1_SPE) != SPI_CR1_SPE)
 8005912:	6819      	ldr	r1, [r3, #0]
 8005914:	0648      	lsls	r0, r1, #25
 8005916:	d403      	bmi.n	8005920 <HAL_SPI_TransmitReceive+0xa4>
    __HAL_SPI_ENABLE(hspi);
 8005918:	6819      	ldr	r1, [r3, #0]
 800591a:	f041 0140 	orr.w	r1, r1, #64	@ 0x40
 800591e:	6019      	str	r1, [r3, #0]
    if ((hspi->Init.Mode == SPI_MODE_SLAVE) || (initial_TxXferCount == 0x01U))
 8005920:	2a00      	cmp	r2, #0
 8005922:	f000 80dc 	beq.w	8005ade <HAL_SPI_TransmitReceive+0x262>
 8005926:	2f01      	cmp	r7, #1
 8005928:	f000 80d9 	beq.w	8005ade <HAL_SPI_TransmitReceive+0x262>
 800592c:	1c73      	adds	r3, r6, #1
        txallowed = 1U;
 800592e:	f04f 0701 	mov.w	r7, #1
 8005932:	d028      	beq.n	8005986 <HAL_SPI_TransmitReceive+0x10a>
 8005934:	e0bc      	b.n	8005ab0 <HAL_SPI_TransmitReceive+0x234>
      if ((__HAL_SPI_GET_FLAG(hspi, SPI_FLAG_TXE)) && (hspi->TxXferCount > 0U) && (txallowed == 1U))
 8005936:	6822      	ldr	r2, [r4, #0]
 8005938:	6893      	ldr	r3, [r2, #8]
 800593a:	0798      	lsls	r0, r3, #30
 800593c:	d50d      	bpl.n	800595a <HAL_SPI_TransmitReceive+0xde>
 800593e:	8fe3      	ldrh	r3, [r4, #62]	@ 0x3e
 8005940:	b29b      	uxth	r3, r3
 8005942:	b153      	cbz	r3, 800595a <HAL_SPI_TransmitReceive+0xde>
 8005944:	b147      	cbz	r7, 8005958 <HAL_SPI_TransmitReceive+0xdc>
        hspi->Instance->DR = *((const uint16_t *)hspi->pTxBuffPtr);
 8005946:	6ba3      	ldr	r3, [r4, #56]	@ 0x38
 8005948:	f833 1b02 	ldrh.w	r1, [r3], #2
 800594c:	60d1      	str	r1, [r2, #12]
        hspi->pTxBuffPtr += sizeof(uint16_t);
 800594e:	63a3      	str	r3, [r4, #56]	@ 0x38
        hspi->TxXferCount--;
 8005950:	8fe3      	ldrh	r3, [r4, #62]	@ 0x3e
 8005952:	3b01      	subs	r3, #1
 8005954:	b29b      	uxth	r3, r3
 8005956:	87e3      	strh	r3, [r4, #62]	@ 0x3e
        txallowed = 1U;
 8005958:	2700      	movs	r7, #0
      if ((__HAL_SPI_GET_FLAG(hspi, SPI_FLAG_RXNE)) && (hspi->RxXferCount > 0U))
 800595a:	6893      	ldr	r3, [r2, #8]
 800595c:	f013 0301 	ands.w	r3, r3, #1
 8005960:	d00f      	beq.n	8005982 <HAL_SPI_TransmitReceive+0x106>
 8005962:	f8b4 1046 	ldrh.w	r1, [r4, #70]	@ 0x46
 8005966:	b289      	uxth	r1, r1
 8005968:	b159      	cbz	r1, 8005982 <HAL_SPI_TransmitReceive+0x106>
        txallowed = 1U;
 800596a:	461f      	mov	r7, r3
        *((uint16_t *)hspi->pRxBuffPtr) = (uint16_t)hspi->Instance->DR;
 800596c:	6c23      	ldr	r3, [r4, #64]	@ 0x40
 800596e:	68d2      	ldr	r2, [r2, #12]
 8005970:	f823 2b02 	strh.w	r2, [r3], #2
        hspi->pRxBuffPtr += sizeof(uint16_t);
 8005974:	6423      	str	r3, [r4, #64]	@ 0x40
        hspi->RxXferCount--;
 8005976:	f8b4 3046 	ldrh.w	r3, [r4, #70]	@ 0x46
 800597a:	3b01      	subs	r3, #1
 800597c:	b29b      	uxth	r3, r3
 800597e:	f8a4 3046 	strh.w	r3, [r4, #70]	@ 0x46
      if (((HAL_GetTick() - tickstart) >=  Timeout) && (Timeout != HAL_MAX_DELAY))
 8005982:	f7fc ff87 	bl	8002894 <HAL_GetTick>
    while ((hspi->TxXferCount > 0U) || (hspi->RxXferCount > 0U))
 8005986:	8fe3      	ldrh	r3, [r4, #62]	@ 0x3e
 8005988:	b29b      	uxth	r3, r3
 800598a:	2b00      	cmp	r3, #0
 800598c:	d1d3      	bne.n	8005936 <HAL_SPI_TransmitReceive+0xba>
 800598e:	f8b4 3046 	ldrh.w	r3, [r4, #70]	@ 0x46
 8005992:	b29b      	uxth	r3, r3
 8005994:	2b00      	cmp	r3, #0
 8005996:	d1ce      	bne.n	8005936 <HAL_SPI_TransmitReceive+0xba>
  if (SPI_EndRxTxTransaction(hspi, Timeout, tickstart) != HAL_OK)
 8005998:	462a      	mov	r2, r5
 800599a:	4631      	mov	r1, r6
 800599c:	4620      	mov	r0, r4
 800599e:	f7ff fe4f 	bl	8005640 <SPI_EndRxTxTransaction>
 80059a2:	2800      	cmp	r0, #0
 80059a4:	f040 80ca 	bne.w	8005b3c <HAL_SPI_TransmitReceive+0x2c0>
  hspi->State = HAL_SPI_STATE_READY;
 80059a8:	2301      	movs	r3, #1
 80059aa:	f884 305d 	strb.w	r3, [r4, #93]	@ 0x5d
  if (hspi->ErrorCode != HAL_SPI_ERROR_NONE)
 80059ae:	6e23      	ldr	r3, [r4, #96]	@ 0x60
  __HAL_UNLOCK(hspi);
 80059b0:	f884 005c 	strb.w	r0, [r4, #92]	@ 0x5c
  if (hspi->ErrorCode != HAL_SPI_ERROR_NONE)
 80059b4:	1e18      	subs	r0, r3, #0
 80059b6:	bf18      	it	ne
 80059b8:	2001      	movne	r0, #1
 80059ba:	e000      	b.n	80059be <HAL_SPI_TransmitReceive+0x142>
    return HAL_BUSY;
 80059bc:	2002      	movs	r0, #2
}
 80059be:	e8bd 83f8 	ldmia.w	sp!, {r3, r4, r5, r6, r7, r8, r9, pc}
  if ((hspi->Init.DataSize > SPI_DATASIZE_8BIT) || (initial_RxXferCount > 1U))
 80059c2:	2f01      	cmp	r7, #1
 80059c4:	f000 80d9 	beq.w	8005b7a <HAL_SPI_TransmitReceive+0x2fe>
    CLEAR_BIT(hspi->Instance->CR2, SPI_RXFIFO_THRESHOLD);
 80059c8:	6859      	ldr	r1, [r3, #4]
 80059ca:	f421 5180 	bic.w	r1, r1, #4096	@ 0x1000
 80059ce:	6059      	str	r1, [r3, #4]
  if ((hspi->Instance->CR1 & SPI_CR1_SPE) != SPI_CR1_SPE)
 80059d0:	6819      	ldr	r1, [r3, #0]
 80059d2:	0649      	lsls	r1, r1, #25
 80059d4:	d403      	bmi.n	80059de <HAL_SPI_TransmitReceive+0x162>
    __HAL_SPI_ENABLE(hspi);
 80059d6:	6819      	ldr	r1, [r3, #0]
 80059d8:	f041 0140 	orr.w	r1, r1, #64	@ 0x40
 80059dc:	6019      	str	r1, [r3, #0]
    if ((hspi->Init.Mode == SPI_MODE_SLAVE) || (initial_TxXferCount == 0x01U))
 80059de:	b96a      	cbnz	r2, 80059fc <HAL_SPI_TransmitReceive+0x180>
      if (hspi->TxXferCount > 1U)
 80059e0:	8fe2      	ldrh	r2, [r4, #62]	@ 0x3e
 80059e2:	b292      	uxth	r2, r2
 80059e4:	2a01      	cmp	r2, #1
 80059e6:	f240 80b0 	bls.w	8005b4a <HAL_SPI_TransmitReceive+0x2ce>
        hspi->Instance->DR = *((const uint16_t *)hspi->pTxBuffPtr);
 80059ea:	4642      	mov	r2, r8
 80059ec:	f832 1b02 	ldrh.w	r1, [r2], #2
 80059f0:	60d9      	str	r1, [r3, #12]
        hspi->TxXferCount -= 2U;
 80059f2:	8fe3      	ldrh	r3, [r4, #62]	@ 0x3e
        hspi->pTxBuffPtr += sizeof(uint16_t);
 80059f4:	63a2      	str	r2, [r4, #56]	@ 0x38
        hspi->TxXferCount -= 2U;
 80059f6:	3b02      	subs	r3, #2
 80059f8:	b29b      	uxth	r3, r3
 80059fa:	87e3      	strh	r3, [r4, #62]	@ 0x3e
        txallowed = 1U;
 80059fc:	2701      	movs	r7, #1
    while ((hspi->TxXferCount > 0U) || (hspi->RxXferCount > 0U))
 80059fe:	8fe3      	ldrh	r3, [r4, #62]	@ 0x3e
 8005a00:	b29b      	uxth	r3, r3
 8005a02:	b923      	cbnz	r3, 8005a0e <HAL_SPI_TransmitReceive+0x192>
 8005a04:	f8b4 3046 	ldrh.w	r3, [r4, #70]	@ 0x46
 8005a08:	b29b      	uxth	r3, r3
 8005a0a:	2b00      	cmp	r3, #0
 8005a0c:	d0c4      	beq.n	8005998 <HAL_SPI_TransmitReceive+0x11c>
      if ((__HAL_SPI_GET_FLAG(hspi, SPI_FLAG_TXE)) && (hspi->TxXferCount > 0U) && (txallowed == 1U))
 8005a0e:	6822      	ldr	r2, [r4, #0]
 8005a10:	6893      	ldr	r3, [r2, #8]
 8005a12:	0799      	lsls	r1, r3, #30
 8005a14:	d505      	bpl.n	8005a22 <HAL_SPI_TransmitReceive+0x1a6>
 8005a16:	8fe3      	ldrh	r3, [r4, #62]	@ 0x3e
 8005a18:	b29b      	uxth	r3, r3
 8005a1a:	b113      	cbz	r3, 8005a22 <HAL_SPI_TransmitReceive+0x1a6>
 8005a1c:	2f00      	cmp	r7, #0
 8005a1e:	d174      	bne.n	8005b0a <HAL_SPI_TransmitReceive+0x28e>
        txallowed = 0U;
 8005a20:	2700      	movs	r7, #0
      if ((__HAL_SPI_GET_FLAG(hspi, SPI_FLAG_RXNE)) && (hspi->RxXferCount > 0U))
 8005a22:	6893      	ldr	r3, [r2, #8]
 8005a24:	f013 0301 	ands.w	r3, r3, #1
 8005a28:	d019      	beq.n	8005a5e <HAL_SPI_TransmitReceive+0x1e2>
 8005a2a:	f8b4 1046 	ldrh.w	r1, [r4, #70]	@ 0x46
 8005a2e:	b289      	uxth	r1, r1
 8005a30:	b1a9      	cbz	r1, 8005a5e <HAL_SPI_TransmitReceive+0x1e2>
        if (hspi->RxXferCount > 1U)
 8005a32:	f8b4 0046 	ldrh.w	r0, [r4, #70]	@ 0x46
          *((uint16_t *)hspi->pRxBuffPtr) = (uint16_t)hspi->Instance->DR;
 8005a36:	6c21      	ldr	r1, [r4, #64]	@ 0x40
        if (hspi->RxXferCount > 1U)
 8005a38:	b280      	uxth	r0, r0
 8005a3a:	2801      	cmp	r0, #1
 8005a3c:	d959      	bls.n	8005af2 <HAL_SPI_TransmitReceive+0x276>
          *((uint16_t *)hspi->pRxBuffPtr) = (uint16_t)hspi->Instance->DR;
 8005a3e:	68d0      	ldr	r0, [r2, #12]
 8005a40:	f821 0b02 	strh.w	r0, [r1], #2
          hspi->pRxBuffPtr += sizeof(uint16_t);
 8005a44:	6421      	str	r1, [r4, #64]	@ 0x40
          hspi->RxXferCount -= 2U;
 8005a46:	f8b4 1046 	ldrh.w	r1, [r4, #70]	@ 0x46
 8005a4a:	3902      	subs	r1, #2
 8005a4c:	b289      	uxth	r1, r1
 8005a4e:	f8a4 1046 	strh.w	r1, [r4, #70]	@ 0x46
          if (hspi->RxXferCount <= 1U)
 8005a52:	f8b4 1046 	ldrh.w	r1, [r4, #70]	@ 0x46
 8005a56:	b289      	uxth	r1, r1
 8005a58:	2901      	cmp	r1, #1
 8005a5a:	d93b      	bls.n	8005ad4 <HAL_SPI_TransmitReceive+0x258>
        txallowed = 1U;
 8005a5c:	461f      	mov	r7, r3
      if ((((HAL_GetTick() - tickstart) >=  Timeout) && ((Timeout != HAL_MAX_DELAY))) || (Timeout == 0U))
 8005a5e:	f7fc ff19 	bl	8002894 <HAL_GetTick>
 8005a62:	1b40      	subs	r0, r0, r5
 8005a64:	42b0      	cmp	r0, r6
 8005a66:	d3ca      	bcc.n	80059fe <HAL_SPI_TransmitReceive+0x182>
 8005a68:	1c73      	adds	r3, r6, #1
 8005a6a:	d0c8      	beq.n	80059fe <HAL_SPI_TransmitReceive+0x182>
        hspi->State = HAL_SPI_STATE_READY;
 8005a6c:	2301      	movs	r3, #1
 8005a6e:	f884 305d 	strb.w	r3, [r4, #93]	@ 0x5d
        __HAL_UNLOCK(hspi);
 8005a72:	2300      	movs	r3, #0
 8005a74:	f884 305c 	strb.w	r3, [r4, #92]	@ 0x5c
        return HAL_TIMEOUT;
 8005a78:	2003      	movs	r0, #3
}
 8005a7a:	e8bd 83f8 	ldmia.w	sp!, {r3, r4, r5, r6, r7, r8, r9, pc}
      if ((__HAL_SPI_GET_FLAG(hspi, SPI_FLAG_TXE)) && (hspi->TxXferCount > 0U) && (txallowed == 1U))
 8005a7e:	b147      	cbz	r7, 8005a92 <HAL_SPI_TransmitReceive+0x216>
        hspi->Instance->DR = *((const uint16_t *)hspi->pTxBuffPtr);
 8005a80:	6ba3      	ldr	r3, [r4, #56]	@ 0x38
 8005a82:	f833 1b02 	ldrh.w	r1, [r3], #2
 8005a86:	60d1      	str	r1, [r2, #12]
        hspi->pTxBuffPtr += sizeof(uint16_t);
 8005a88:	63a3      	str	r3, [r4, #56]	@ 0x38
        hspi->TxXferCount--;
 8005a8a:	8fe3      	ldrh	r3, [r4, #62]	@ 0x3e
 8005a8c:	3b01      	subs	r3, #1
 8005a8e:	b29b      	uxth	r3, r3
 8005a90:	87e3      	strh	r3, [r4, #62]	@ 0x3e
        txallowed = 0U;
 8005a92:	2700      	movs	r7, #0
      if ((__HAL_SPI_GET_FLAG(hspi, SPI_FLAG_RXNE)) && (hspi->RxXferCount > 0U))
 8005a94:	6893      	ldr	r3, [r2, #8]
 8005a96:	f013 0301 	ands.w	r3, r3, #1
 8005a9a:	d004      	beq.n	8005aa6 <HAL_SPI_TransmitReceive+0x22a>
 8005a9c:	f8b4 1046 	ldrh.w	r1, [r4, #70]	@ 0x46
 8005aa0:	b289      	uxth	r1, r1
 8005aa2:	2900      	cmp	r1, #0
 8005aa4:	d15c      	bne.n	8005b60 <HAL_SPI_TransmitReceive+0x2e4>
      if (((HAL_GetTick() - tickstart) >=  Timeout) && (Timeout != HAL_MAX_DELAY))
 8005aa6:	f7fc fef5 	bl	8002894 <HAL_GetTick>
 8005aaa:	1b40      	subs	r0, r0, r5
 8005aac:	42b0      	cmp	r0, r6
 8005aae:	d2dd      	bcs.n	8005a6c <HAL_SPI_TransmitReceive+0x1f0>
    while ((hspi->TxXferCount > 0U) || (hspi->RxXferCount > 0U))
 8005ab0:	8fe3      	ldrh	r3, [r4, #62]	@ 0x3e
 8005ab2:	b29b      	uxth	r3, r3
 8005ab4:	b92b      	cbnz	r3, 8005ac2 <HAL_SPI_TransmitReceive+0x246>
 8005ab6:	f8b4 3046 	ldrh.w	r3, [r4, #70]	@ 0x46
 8005aba:	b29b      	uxth	r3, r3
 8005abc:	2b00      	cmp	r3, #0
 8005abe:	f43f af6b 	beq.w	8005998 <HAL_SPI_TransmitReceive+0x11c>
      if ((__HAL_SPI_GET_FLAG(hspi, SPI_FLAG_TXE)) && (hspi->TxXferCount > 0U) && (txallowed == 1U))
 8005ac2:	6822      	ldr	r2, [r4, #0]
 8005ac4:	6893      	ldr	r3, [r2, #8]
 8005ac6:	0799      	lsls	r1, r3, #30
 8005ac8:	d5e4      	bpl.n	8005a94 <HAL_SPI_TransmitReceive+0x218>
 8005aca:	8fe3      	ldrh	r3, [r4, #62]	@ 0x3e
 8005acc:	b29b      	uxth	r3, r3
 8005ace:	2b00      	cmp	r3, #0
 8005ad0:	d0e0      	beq.n	8005a94 <HAL_SPI_TransmitReceive+0x218>
 8005ad2:	e7d4      	b.n	8005a7e <HAL_SPI_TransmitReceive+0x202>
            SET_BIT(hspi->Instance->CR2, SPI_RXFIFO_THRESHOLD);
 8005ad4:	6851      	ldr	r1, [r2, #4]
 8005ad6:	f441 5180 	orr.w	r1, r1, #4096	@ 0x1000
 8005ada:	6051      	str	r1, [r2, #4]
 8005adc:	e7be      	b.n	8005a5c <HAL_SPI_TransmitReceive+0x1e0>
      hspi->Instance->DR = *((const uint16_t *)hspi->pTxBuffPtr);
 8005ade:	4642      	mov	r2, r8
 8005ae0:	f832 1b02 	ldrh.w	r1, [r2], #2
 8005ae4:	60d9      	str	r1, [r3, #12]
      hspi->TxXferCount--;
 8005ae6:	8fe3      	ldrh	r3, [r4, #62]	@ 0x3e
      hspi->pTxBuffPtr += sizeof(uint16_t);
 8005ae8:	63a2      	str	r2, [r4, #56]	@ 0x38
      hspi->TxXferCount--;
 8005aea:	3b01      	subs	r3, #1
 8005aec:	b29b      	uxth	r3, r3
 8005aee:	87e3      	strh	r3, [r4, #62]	@ 0x3e
 8005af0:	e71c      	b.n	800592c <HAL_SPI_TransmitReceive+0xb0>
          (*(uint8_t *)hspi->pRxBuffPtr) = *(__IO uint8_t *)&hspi->Instance->DR;
 8005af2:	7b12      	ldrb	r2, [r2, #12]
 8005af4:	700a      	strb	r2, [r1, #0]
          hspi->pRxBuffPtr++;
 8005af6:	6c22      	ldr	r2, [r4, #64]	@ 0x40
 8005af8:	3201      	adds	r2, #1
 8005afa:	6422      	str	r2, [r4, #64]	@ 0x40
          hspi->RxXferCount--;
 8005afc:	f8b4 2046 	ldrh.w	r2, [r4, #70]	@ 0x46
 8005b00:	3a01      	subs	r2, #1
 8005b02:	b292      	uxth	r2, r2
 8005b04:	f8a4 2046 	strh.w	r2, [r4, #70]	@ 0x46
 8005b08:	e7a8      	b.n	8005a5c <HAL_SPI_TransmitReceive+0x1e0>
        if (hspi->TxXferCount > 1U)
 8005b0a:	8fe1      	ldrh	r1, [r4, #62]	@ 0x3e
          hspi->Instance->DR = *((const uint16_t *)hspi->pTxBuffPtr);
 8005b0c:	6ba3      	ldr	r3, [r4, #56]	@ 0x38
        if (hspi->TxXferCount > 1U)
 8005b0e:	b289      	uxth	r1, r1
 8005b10:	2901      	cmp	r1, #1
 8005b12:	d908      	bls.n	8005b26 <HAL_SPI_TransmitReceive+0x2aa>
          hspi->Instance->DR = *((const uint16_t *)hspi->pTxBuffPtr);
 8005b14:	f833 1b02 	ldrh.w	r1, [r3], #2
 8005b18:	60d1      	str	r1, [r2, #12]
          hspi->pTxBuffPtr += sizeof(uint16_t);
 8005b1a:	63a3      	str	r3, [r4, #56]	@ 0x38
          hspi->TxXferCount -= 2U;
 8005b1c:	8fe3      	ldrh	r3, [r4, #62]	@ 0x3e
 8005b1e:	3b02      	subs	r3, #2
 8005b20:	b29b      	uxth	r3, r3
 8005b22:	87e3      	strh	r3, [r4, #62]	@ 0x3e
 8005b24:	e77c      	b.n	8005a20 <HAL_SPI_TransmitReceive+0x1a4>
          *(__IO uint8_t *)&hspi->Instance->DR = *((const uint8_t *)hspi->pTxBuffPtr);
 8005b26:	781b      	ldrb	r3, [r3, #0]
 8005b28:	7313      	strb	r3, [r2, #12]
          hspi->TxXferCount--;
 8005b2a:	8fe3      	ldrh	r3, [r4, #62]	@ 0x3e
          hspi->pTxBuffPtr++;
 8005b2c:	6ba2      	ldr	r2, [r4, #56]	@ 0x38
          hspi->TxXferCount--;
 8005b2e:	3b01      	subs	r3, #1
          hspi->pTxBuffPtr++;
 8005b30:	3201      	adds	r2, #1
          hspi->TxXferCount--;
 8005b32:	b29b      	uxth	r3, r3
          hspi->pTxBuffPtr++;
 8005b34:	63a2      	str	r2, [r4, #56]	@ 0x38
          hspi->TxXferCount--;
 8005b36:	87e3      	strh	r3, [r4, #62]	@ 0x3e
      if ((__HAL_SPI_GET_FLAG(hspi, SPI_FLAG_RXNE)) && (hspi->RxXferCount > 0U))
 8005b38:	6822      	ldr	r2, [r4, #0]
 8005b3a:	e771      	b.n	8005a20 <HAL_SPI_TransmitReceive+0x1a4>
    hspi->ErrorCode = HAL_SPI_ERROR_FLAG;
 8005b3c:	2220      	movs	r2, #32
    __HAL_UNLOCK(hspi);
 8005b3e:	2300      	movs	r3, #0
    hspi->ErrorCode = HAL_SPI_ERROR_FLAG;
 8005b40:	6622      	str	r2, [r4, #96]	@ 0x60
    __HAL_UNLOCK(hspi);
 8005b42:	f884 305c 	strb.w	r3, [r4, #92]	@ 0x5c
    return HAL_ERROR;
 8005b46:	2001      	movs	r0, #1
 8005b48:	e739      	b.n	80059be <HAL_SPI_TransmitReceive+0x142>
        *(__IO uint8_t *)&hspi->Instance->DR = *((const uint8_t *)hspi->pTxBuffPtr);
 8005b4a:	f898 2000 	ldrb.w	r2, [r8]
 8005b4e:	731a      	strb	r2, [r3, #12]
        hspi->TxXferCount--;
 8005b50:	8fe3      	ldrh	r3, [r4, #62]	@ 0x3e
        hspi->pTxBuffPtr++;
 8005b52:	6ba2      	ldr	r2, [r4, #56]	@ 0x38
        hspi->TxXferCount--;
 8005b54:	3b01      	subs	r3, #1
        hspi->pTxBuffPtr++;
 8005b56:	3201      	adds	r2, #1
        hspi->TxXferCount--;
 8005b58:	b29b      	uxth	r3, r3
        hspi->pTxBuffPtr++;
 8005b5a:	63a2      	str	r2, [r4, #56]	@ 0x38
        hspi->TxXferCount--;
 8005b5c:	87e3      	strh	r3, [r4, #62]	@ 0x3e
 8005b5e:	e74d      	b.n	80059fc <HAL_SPI_TransmitReceive+0x180>
        txallowed = 1U;
 8005b60:	461f      	mov	r7, r3
        *((uint16_t *)hspi->pRxBuffPtr) = (uint16_t)hspi->Instance->DR;
 8005b62:	6c23      	ldr	r3, [r4, #64]	@ 0x40
 8005b64:	68d2      	ldr	r2, [r2, #12]
 8005b66:	f823 2b02 	strh.w	r2, [r3], #2
        hspi->pRxBuffPtr += sizeof(uint16_t);
 8005b6a:	6423      	str	r3, [r4, #64]	@ 0x40
        hspi->RxXferCount--;
 8005b6c:	f8b4 3046 	ldrh.w	r3, [r4, #70]	@ 0x46
 8005b70:	3b01      	subs	r3, #1
 8005b72:	b29b      	uxth	r3, r3
 8005b74:	f8a4 3046 	strh.w	r3, [r4, #70]	@ 0x46
        txallowed = 1U;
 8005b78:	e795      	b.n	8005aa6 <HAL_SPI_TransmitReceive+0x22a>
    SET_BIT(hspi->Instance->CR2, SPI_RXFIFO_THRESHOLD);
 8005b7a:	685a      	ldr	r2, [r3, #4]
 8005b7c:	f442 5280 	orr.w	r2, r2, #4096	@ 0x1000
 8005b80:	605a      	str	r2, [r3, #4]
  if ((hspi->Instance->CR1 & SPI_CR1_SPE) != SPI_CR1_SPE)
 8005b82:	681a      	ldr	r2, [r3, #0]
 8005b84:	0650      	lsls	r0, r2, #25
 8005b86:	f53f af2b 	bmi.w	80059e0 <HAL_SPI_TransmitReceive+0x164>
    __HAL_SPI_ENABLE(hspi);
 8005b8a:	681a      	ldr	r2, [r3, #0]
 8005b8c:	f042 0240 	orr.w	r2, r2, #64	@ 0x40
 8005b90:	601a      	str	r2, [r3, #0]
    if ((hspi->Init.Mode == SPI_MODE_SLAVE) || (initial_TxXferCount == 0x01U))
 8005b92:	e725      	b.n	80059e0 <HAL_SPI_TransmitReceive+0x164>

08005b94 <HAL_TIM_Base_Init>:
  * @retval HAL status
  */
HAL_StatusTypeDef HAL_TIM_Base_Init(TIM_HandleTypeDef *htim)
{
  /* Check the TIM handle allocation */
  if (htim == NULL)
 8005b94:	2800      	cmp	r0, #0
 8005b96:	f000 808c 	beq.w	8005cb2 <HAL_TIM_Base_Init+0x11e>
{
 8005b9a:	b538      	push	{r3, r4, r5, lr}
  assert_param(IS_TIM_COUNTER_MODE(htim->Init.CounterMode));
  assert_param(IS_TIM_CLOCKDIVISION_DIV(htim->Init.ClockDivision));
  assert_param(IS_TIM_PERIOD(htim, htim->Init.Period));
  assert_param(IS_TIM_AUTORELOAD_PRELOAD(htim->Init.AutoReloadPreload));

  if (htim->State == HAL_TIM_STATE_RESET)
 8005b9c:	f890 303d 	ldrb.w	r3, [r0, #61]	@ 0x3d
 8005ba0:	4604      	mov	r4, r0
 8005ba2:	f003 02ff 	and.w	r2, r3, #255	@ 0xff
 8005ba6:	2b00      	cmp	r3, #0
 8005ba8:	d078      	beq.n	8005c9c <HAL_TIM_Base_Init+0x108>

  /* Set the TIM state */
  htim->State = HAL_TIM_STATE_BUSY;

  /* Set the Time Base configuration */
  TIM_Base_SetConfig(htim->Instance, &htim->Init);
 8005baa:	6823      	ldr	r3, [r4, #0]
{
  uint32_t tmpcr1;
  tmpcr1 = TIMx->CR1;

  /* Set TIM Time Base Unit parameters ---------------------------------------*/
  if (IS_TIM_COUNTER_MODE_SELECT_INSTANCE(TIMx))
 8005bac:	4942      	ldr	r1, [pc, #264]	@ (8005cb8 <HAL_TIM_Base_Init+0x124>)
  htim->State = HAL_TIM_STATE_BUSY;
 8005bae:	2202      	movs	r2, #2
 8005bb0:	f884 203d 	strb.w	r2, [r4, #61]	@ 0x3d
  if (IS_TIM_COUNTER_MODE_SELECT_INSTANCE(TIMx))
 8005bb4:	428b      	cmp	r3, r1
  tmpcr1 = TIMx->CR1;
 8005bb6:	681a      	ldr	r2, [r3, #0]
  if (IS_TIM_COUNTER_MODE_SELECT_INSTANCE(TIMx))
 8005bb8:	d05c      	beq.n	8005c74 <HAL_TIM_Base_Init+0xe0>
 8005bba:	f1b3 4f80 	cmp.w	r3, #1073741824	@ 0x40000000
 8005bbe:	d024      	beq.n	8005c0a <HAL_TIM_Base_Init+0x76>
 8005bc0:	f5a1 3194 	sub.w	r1, r1, #75776	@ 0x12800
 8005bc4:	428b      	cmp	r3, r1
 8005bc6:	d020      	beq.n	8005c0a <HAL_TIM_Base_Init+0x76>
 8005bc8:	f501 6180 	add.w	r1, r1, #1024	@ 0x400
 8005bcc:	428b      	cmp	r3, r1
 8005bce:	d01c      	beq.n	8005c0a <HAL_TIM_Base_Init+0x76>
 8005bd0:	f501 6180 	add.w	r1, r1, #1024	@ 0x400
 8005bd4:	428b      	cmp	r3, r1
 8005bd6:	d018      	beq.n	8005c0a <HAL_TIM_Base_Init+0x76>
 8005bd8:	f501 3194 	add.w	r1, r1, #75776	@ 0x12800
 8005bdc:	428b      	cmp	r3, r1
 8005bde:	d049      	beq.n	8005c74 <HAL_TIM_Base_Init+0xe0>
    /* Select the Counter Mode */
    tmpcr1 &= ~(TIM_CR1_DIR | TIM_CR1_CMS);
    tmpcr1 |= Structure->CounterMode;
  }

  if (IS_TIM_CLOCK_DIVISION_INSTANCE(TIMx))
 8005be0:	f501 6140 	add.w	r1, r1, #3072	@ 0xc00
 8005be4:	428b      	cmp	r3, r1
 8005be6:	d05e      	beq.n	8005ca6 <HAL_TIM_Base_Init+0x112>
 8005be8:	4934      	ldr	r1, [pc, #208]	@ (8005cbc <HAL_TIM_Base_Init+0x128>)
 8005bea:	428b      	cmp	r3, r1
 8005bec:	d05b      	beq.n	8005ca6 <HAL_TIM_Base_Init+0x112>
 8005bee:	f501 6180 	add.w	r1, r1, #1024	@ 0x400
 8005bf2:	428b      	cmp	r3, r1
 8005bf4:	d057      	beq.n	8005ca6 <HAL_TIM_Base_Init+0x112>
    tmpcr1 &= ~TIM_CR1_CKD;
    tmpcr1 |= (uint32_t)Structure->ClockDivision;
  }

  /* Set the auto-reload preload */
  MODIFY_REG(tmpcr1, TIM_CR1_ARPE, Structure->AutoReloadPreload);
 8005bf6:	69a5      	ldr	r5, [r4, #24]

  /* Set the Autoreload value */
  TIMx->ARR = (uint32_t)Structure->Period ;

  /* Set the Prescaler value */
  TIMx->PSC = Structure->Prescaler;
 8005bf8:	6861      	ldr	r1, [r4, #4]
  TIMx->ARR = (uint32_t)Structure->Period ;
 8005bfa:	68e0      	ldr	r0, [r4, #12]
  MODIFY_REG(tmpcr1, TIM_CR1_ARPE, Structure->AutoReloadPreload);
 8005bfc:	f022 0280 	bic.w	r2, r2, #128	@ 0x80
 8005c00:	432a      	orrs	r2, r5
  TIMx->CR1 = tmpcr1;
 8005c02:	601a      	str	r2, [r3, #0]
  TIMx->ARR = (uint32_t)Structure->Period ;
 8005c04:	62d8      	str	r0, [r3, #44]	@ 0x2c
  TIMx->PSC = Structure->Prescaler;
 8005c06:	6299      	str	r1, [r3, #40]	@ 0x28

  if (IS_TIM_REPETITION_COUNTER_INSTANCE(TIMx))
 8005c08:	e010      	b.n	8005c2c <HAL_TIM_Base_Init+0x98>
    tmpcr1 |= Structure->CounterMode;
 8005c0a:	68a1      	ldr	r1, [r4, #8]
    tmpcr1 |= (uint32_t)Structure->ClockDivision;
 8005c0c:	6920      	ldr	r0, [r4, #16]
    tmpcr1 &= ~(TIM_CR1_DIR | TIM_CR1_CMS);
 8005c0e:	f022 0270 	bic.w	r2, r2, #112	@ 0x70
    tmpcr1 |= Structure->CounterMode;
 8005c12:	430a      	orrs	r2, r1
    tmpcr1 &= ~TIM_CR1_CKD;
 8005c14:	f422 7240 	bic.w	r2, r2, #768	@ 0x300
  MODIFY_REG(tmpcr1, TIM_CR1_ARPE, Structure->AutoReloadPreload);
 8005c18:	69a1      	ldr	r1, [r4, #24]
    tmpcr1 |= (uint32_t)Structure->ClockDivision;
 8005c1a:	4302      	orrs	r2, r0
  MODIFY_REG(tmpcr1, TIM_CR1_ARPE, Structure->AutoReloadPreload);
 8005c1c:	f022 0280 	bic.w	r2, r2, #128	@ 0x80
  TIMx->ARR = (uint32_t)Structure->Period ;
 8005c20:	68e0      	ldr	r0, [r4, #12]
  MODIFY_REG(tmpcr1, TIM_CR1_ARPE, Structure->AutoReloadPreload);
 8005c22:	430a      	orrs	r2, r1
  TIMx->PSC = Structure->Prescaler;
 8005c24:	6861      	ldr	r1, [r4, #4]
  TIMx->CR1 = tmpcr1;
 8005c26:	601a      	str	r2, [r3, #0]
  TIMx->ARR = (uint32_t)Structure->Period ;
 8005c28:	62d8      	str	r0, [r3, #44]	@ 0x2c
  TIMx->PSC = Structure->Prescaler;
 8005c2a:	6299      	str	r1, [r3, #40]	@ 0x28
    TIMx->RCR = Structure->RepetitionCounter;
  }

  /* Generate an update event to reload the Prescaler
     and the repetition counter (only for advanced timer) value immediately */
  TIMx->EGR = TIM_EGR_UG;
 8005c2c:	2201      	movs	r2, #1
 8005c2e:	615a      	str	r2, [r3, #20]

  /* Check if the update flag is set after the Update Generation, if so clear the UIF flag */
  if (HAL_IS_BIT_SET(TIMx->SR, TIM_FLAG_UPDATE))
 8005c30:	691a      	ldr	r2, [r3, #16]
 8005c32:	07d2      	lsls	r2, r2, #31
 8005c34:	d503      	bpl.n	8005c3e <HAL_TIM_Base_Init+0xaa>
  {
    /* Clear the update flag */
    CLEAR_BIT(TIMx->SR, TIM_FLAG_UPDATE);
 8005c36:	691a      	ldr	r2, [r3, #16]
 8005c38:	f022 0201 	bic.w	r2, r2, #1
 8005c3c:	611a      	str	r2, [r3, #16]
  htim->DMABurstState = HAL_DMA_BURST_STATE_READY;
 8005c3e:	2301      	movs	r3, #1
 8005c40:	f884 3048 	strb.w	r3, [r4, #72]	@ 0x48
  TIM_CHANNEL_STATE_SET_ALL(htim, HAL_TIM_CHANNEL_STATE_READY);
 8005c44:	f884 303e 	strb.w	r3, [r4, #62]	@ 0x3e
 8005c48:	f884 303f 	strb.w	r3, [r4, #63]	@ 0x3f
 8005c4c:	f884 3040 	strb.w	r3, [r4, #64]	@ 0x40
 8005c50:	f884 3041 	strb.w	r3, [r4, #65]	@ 0x41
 8005c54:	f884 3042 	strb.w	r3, [r4, #66]	@ 0x42
 8005c58:	f884 3043 	strb.w	r3, [r4, #67]	@ 0x43
  TIM_CHANNEL_N_STATE_SET_ALL(htim, HAL_TIM_CHANNEL_STATE_READY);
 8005c5c:	f884 3044 	strb.w	r3, [r4, #68]	@ 0x44
 8005c60:	f884 3045 	strb.w	r3, [r4, #69]	@ 0x45
 8005c64:	f884 3046 	strb.w	r3, [r4, #70]	@ 0x46
 8005c68:	f884 3047 	strb.w	r3, [r4, #71]	@ 0x47
  htim->State = HAL_TIM_STATE_READY;
 8005c6c:	f884 303d 	strb.w	r3, [r4, #61]	@ 0x3d
  return HAL_OK;
 8005c70:	2000      	movs	r0, #0
}
 8005c72:	bd38      	pop	{r3, r4, r5, pc}
    tmpcr1 |= Structure->CounterMode;
 8005c74:	68a0      	ldr	r0, [r4, #8]
    tmpcr1 |= (uint32_t)Structure->ClockDivision;
 8005c76:	6921      	ldr	r1, [r4, #16]
    tmpcr1 &= ~(TIM_CR1_DIR | TIM_CR1_CMS);
 8005c78:	f022 0270 	bic.w	r2, r2, #112	@ 0x70
    tmpcr1 |= Structure->CounterMode;
 8005c7c:	4302      	orrs	r2, r0
    tmpcr1 &= ~TIM_CR1_CKD;
 8005c7e:	f422 7240 	bic.w	r2, r2, #768	@ 0x300
    tmpcr1 |= (uint32_t)Structure->ClockDivision;
 8005c82:	430a      	orrs	r2, r1
  MODIFY_REG(tmpcr1, TIM_CR1_ARPE, Structure->AutoReloadPreload);
 8005c84:	69a1      	ldr	r1, [r4, #24]
 8005c86:	f022 0280 	bic.w	r2, r2, #128	@ 0x80
 8005c8a:	430a      	orrs	r2, r1
  TIMx->CR1 = tmpcr1;
 8005c8c:	601a      	str	r2, [r3, #0]
  TIMx->ARR = (uint32_t)Structure->Period ;
 8005c8e:	68e2      	ldr	r2, [r4, #12]
 8005c90:	62da      	str	r2, [r3, #44]	@ 0x2c
  TIMx->PSC = Structure->Prescaler;
 8005c92:	6862      	ldr	r2, [r4, #4]
 8005c94:	629a      	str	r2, [r3, #40]	@ 0x28
    TIMx->RCR = Structure->RepetitionCounter;
 8005c96:	6962      	ldr	r2, [r4, #20]
 8005c98:	631a      	str	r2, [r3, #48]	@ 0x30
 8005c9a:	e7c7      	b.n	8005c2c <HAL_TIM_Base_Init+0x98>
    htim->Lock = HAL_UNLOCKED;
 8005c9c:	f880 203c 	strb.w	r2, [r0, #60]	@ 0x3c
    HAL_TIM_Base_MspInit(htim);
 8005ca0:	f7fc fca0 	bl	80025e4 <HAL_TIM_Base_MspInit>
 8005ca4:	e781      	b.n	8005baa <HAL_TIM_Base_Init+0x16>
    tmpcr1 |= (uint32_t)Structure->ClockDivision;
 8005ca6:	6920      	ldr	r0, [r4, #16]
  MODIFY_REG(tmpcr1, TIM_CR1_ARPE, Structure->AutoReloadPreload);
 8005ca8:	69a1      	ldr	r1, [r4, #24]
    tmpcr1 &= ~TIM_CR1_CKD;
 8005caa:	f422 7240 	bic.w	r2, r2, #768	@ 0x300
    tmpcr1 |= (uint32_t)Structure->ClockDivision;
 8005cae:	4302      	orrs	r2, r0
 8005cb0:	e7e9      	b.n	8005c86 <HAL_TIM_Base_Init+0xf2>
    return HAL_ERROR;
 8005cb2:	2001      	movs	r0, #1
}
 8005cb4:	4770      	bx	lr
 8005cb6:	bf00      	nop
 8005cb8:	40012c00 	.word	0x40012c00
 8005cbc:	40014400 	.word	0x40014400

08005cc0 <HAL_TIM_Base_Start>:
  if (htim->State != HAL_TIM_STATE_READY)
 8005cc0:	f890 303d 	ldrb.w	r3, [r0, #61]	@ 0x3d
 8005cc4:	2b01      	cmp	r3, #1
 8005cc6:	d123      	bne.n	8005d10 <HAL_TIM_Base_Start+0x50>
  if (IS_TIM_SLAVE_INSTANCE(htim->Instance))
 8005cc8:	6803      	ldr	r3, [r0, #0]
 8005cca:	4a17      	ldr	r2, [pc, #92]	@ (8005d28 <HAL_TIM_Base_Start+0x68>)
  htim->State = HAL_TIM_STATE_BUSY;
 8005ccc:	2102      	movs	r1, #2
  if (IS_TIM_SLAVE_INSTANCE(htim->Instance))
 8005cce:	4293      	cmp	r3, r2
  htim->State = HAL_TIM_STATE_BUSY;
 8005cd0:	f880 103d 	strb.w	r1, [r0, #61]	@ 0x3d
  if (IS_TIM_SLAVE_INSTANCE(htim->Instance))
 8005cd4:	d01e      	beq.n	8005d14 <HAL_TIM_Base_Start+0x54>
 8005cd6:	f1b3 4f80 	cmp.w	r3, #1073741824	@ 0x40000000
 8005cda:	d01b      	beq.n	8005d14 <HAL_TIM_Base_Start+0x54>
 8005cdc:	f5a2 3294 	sub.w	r2, r2, #75776	@ 0x12800
 8005ce0:	4293      	cmp	r3, r2
 8005ce2:	d017      	beq.n	8005d14 <HAL_TIM_Base_Start+0x54>
 8005ce4:	f502 6280 	add.w	r2, r2, #1024	@ 0x400
 8005ce8:	4293      	cmp	r3, r2
 8005cea:	d013      	beq.n	8005d14 <HAL_TIM_Base_Start+0x54>
 8005cec:	f502 6280 	add.w	r2, r2, #1024	@ 0x400
 8005cf0:	4293      	cmp	r3, r2
 8005cf2:	d00f      	beq.n	8005d14 <HAL_TIM_Base_Start+0x54>
 8005cf4:	f502 3294 	add.w	r2, r2, #75776	@ 0x12800
 8005cf8:	4293      	cmp	r3, r2
 8005cfa:	d00b      	beq.n	8005d14 <HAL_TIM_Base_Start+0x54>
 8005cfc:	f502 6240 	add.w	r2, r2, #3072	@ 0xc00
 8005d00:	4293      	cmp	r3, r2
 8005d02:	d007      	beq.n	8005d14 <HAL_TIM_Base_Start+0x54>
      __HAL_TIM_ENABLE(htim);
 8005d04:	681a      	ldr	r2, [r3, #0]
 8005d06:	f042 0201 	orr.w	r2, r2, #1
 8005d0a:	601a      	str	r2, [r3, #0]
  return HAL_OK;
 8005d0c:	2000      	movs	r0, #0
 8005d0e:	4770      	bx	lr
    return HAL_ERROR;
 8005d10:	2001      	movs	r0, #1
}
 8005d12:	4770      	bx	lr
    tmpsmcr = htim->Instance->SMCR & TIM_SMCR_SMS;
 8005d14:	6899      	ldr	r1, [r3, #8]
 8005d16:	4a05      	ldr	r2, [pc, #20]	@ (8005d2c <HAL_TIM_Base_Start+0x6c>)
 8005d18:	400a      	ands	r2, r1
    if (!IS_TIM_SLAVEMODE_TRIGGER_ENABLED(tmpsmcr))
 8005d1a:	2a06      	cmp	r2, #6
 8005d1c:	d0f6      	beq.n	8005d0c <HAL_TIM_Base_Start+0x4c>
 8005d1e:	f5b2 3f80 	cmp.w	r2, #65536	@ 0x10000
 8005d22:	d1ef      	bne.n	8005d04 <HAL_TIM_Base_Start+0x44>
  return HAL_OK;
 8005d24:	2000      	movs	r0, #0
 8005d26:	4770      	bx	lr
 8005d28:	40012c00 	.word	0x40012c00
 8005d2c:	00010007 	.word	0x00010007

08005d30 <HAL_TIM_ConfigClockSource>:
  __HAL_LOCK(htim);
 8005d30:	f890 303c 	ldrb.w	r3, [r0, #60]	@ 0x3c
 8005d34:	2b01      	cmp	r3, #1
 8005d36:	d06f      	beq.n	8005e18 <HAL_TIM_ConfigClockSource+0xe8>
 8005d38:	4602      	mov	r2, r0
{
 8005d3a:	b430      	push	{r4, r5}
  htim->State = HAL_TIM_STATE_BUSY;
 8005d3c:	2302      	movs	r3, #2
  tmpsmcr = htim->Instance->SMCR;
 8005d3e:	6804      	ldr	r4, [r0, #0]
  htim->State = HAL_TIM_STATE_BUSY;
 8005d40:	f882 303d 	strb.w	r3, [r2, #61]	@ 0x3d
  __HAL_LOCK(htim);
 8005d44:	2001      	movs	r0, #1
 8005d46:	f882 003c 	strb.w	r0, [r2, #60]	@ 0x3c
  tmpsmcr = htim->Instance->SMCR;
 8005d4a:	68a5      	ldr	r5, [r4, #8]
  tmpsmcr &= ~(TIM_SMCR_ETF | TIM_SMCR_ETPS | TIM_SMCR_ECE | TIM_SMCR_ETP);
 8005d4c:	4b4c      	ldr	r3, [pc, #304]	@ (8005e80 <HAL_TIM_ConfigClockSource+0x150>)
 8005d4e:	402b      	ands	r3, r5
  htim->Instance->SMCR = tmpsmcr;
 8005d50:	60a3      	str	r3, [r4, #8]
  switch (sClockSourceConfig->ClockSource)
 8005d52:	680b      	ldr	r3, [r1, #0]
 8005d54:	2b60      	cmp	r3, #96	@ 0x60
 8005d56:	d061      	beq.n	8005e1c <HAL_TIM_ConfigClockSource+0xec>
 8005d58:	d824      	bhi.n	8005da4 <HAL_TIM_ConfigClockSource+0x74>
 8005d5a:	2b40      	cmp	r3, #64	@ 0x40
 8005d5c:	d077      	beq.n	8005e4e <HAL_TIM_ConfigClockSource+0x11e>
 8005d5e:	d94a      	bls.n	8005df6 <HAL_TIM_ConfigClockSource+0xc6>
 8005d60:	2b50      	cmp	r3, #80	@ 0x50
 8005d62:	d117      	bne.n	8005d94 <HAL_TIM_ConfigClockSource+0x64>
                               sClockSourceConfig->ClockPolarity,
 8005d64:	684b      	ldr	r3, [r1, #4]
                               sClockSourceConfig->ClockFilter);
 8005d66:	68c8      	ldr	r0, [r1, #12]
{
  uint32_t tmpccmr1;
  uint32_t tmpccer;

  /* Disable the Channel 1: Reset the CC1E Bit */
  tmpccer = TIMx->CCER;
 8005d68:	6a21      	ldr	r1, [r4, #32]
  /* Set the filter */
  tmpccmr1 &= ~TIM_CCMR1_IC1F;
  tmpccmr1 |= (TIM_ICFilter << 4U);

  /* Select the Polarity and set the CC1E Bit */
  tmpccer &= ~(TIM_CCER_CC1P | TIM_CCER_CC1NP);
 8005d6a:	f021 010a 	bic.w	r1, r1, #10
  tmpccer |= TIM_ICPolarity;
 8005d6e:	4319      	orrs	r1, r3
  TIMx->CCER &= ~TIM_CCER_CC1E;
 8005d70:	6a23      	ldr	r3, [r4, #32]
 8005d72:	f023 0301 	bic.w	r3, r3, #1
 8005d76:	6223      	str	r3, [r4, #32]
  tmpccmr1 = TIMx->CCMR1;
 8005d78:	69a3      	ldr	r3, [r4, #24]
  tmpccmr1 &= ~TIM_CCMR1_IC1F;
 8005d7a:	f023 03f0 	bic.w	r3, r3, #240	@ 0xf0
  tmpccmr1 |= (TIM_ICFilter << 4U);
 8005d7e:	ea43 1300 	orr.w	r3, r3, r0, lsl #4

  /* Write to TIMx CCMR1 and CCER registers */
  TIMx->CCMR1 = tmpccmr1;
 8005d82:	61a3      	str	r3, [r4, #24]
  TIMx->CCER = tmpccer;
 8005d84:	6221      	str	r1, [r4, #32]
static void TIM_ITRx_SetConfig(TIM_TypeDef *TIMx, uint32_t InputTriggerSource)
{
  uint32_t tmpsmcr;

  /* Get the TIMx SMCR register value */
  tmpsmcr = TIMx->SMCR;
 8005d86:	68a3      	ldr	r3, [r4, #8]
  /* Reset the TS Bits */
  tmpsmcr &= ~TIM_SMCR_TS;
 8005d88:	f023 0370 	bic.w	r3, r3, #112	@ 0x70
  /* Set the Input Trigger source and the slave mode*/
  tmpsmcr |= (InputTriggerSource | TIM_SLAVEMODE_EXTERNAL1);
 8005d8c:	f043 0357 	orr.w	r3, r3, #87	@ 0x57
  /* Write to TIMx SMCR */
  TIMx->SMCR = tmpsmcr;
 8005d90:	60a3      	str	r3, [r4, #8]
  HAL_StatusTypeDef status = HAL_OK;
 8005d92:	2000      	movs	r0, #0
  htim->State = HAL_TIM_STATE_READY;
 8005d94:	2101      	movs	r1, #1
  __HAL_UNLOCK(htim);
 8005d96:	2300      	movs	r3, #0
  htim->State = HAL_TIM_STATE_READY;
 8005d98:	f882 103d 	strb.w	r1, [r2, #61]	@ 0x3d
  __HAL_UNLOCK(htim);
 8005d9c:	f882 303c 	strb.w	r3, [r2, #60]	@ 0x3c
}
 8005da0:	bc30      	pop	{r4, r5}
 8005da2:	4770      	bx	lr
  switch (sClockSourceConfig->ClockSource)
 8005da4:	f5b3 5f80 	cmp.w	r3, #4096	@ 0x1000
 8005da8:	d0f3      	beq.n	8005d92 <HAL_TIM_ConfigClockSource+0x62>
 8005daa:	f5b3 5f00 	cmp.w	r3, #8192	@ 0x2000
 8005dae:	d110      	bne.n	8005dd2 <HAL_TIM_ConfigClockSource+0xa2>

  /* Reset the ETR Bits */
  tmpsmcr &= ~(TIM_SMCR_ETF | TIM_SMCR_ETPS | TIM_SMCR_ECE | TIM_SMCR_ETP);

  /* Set the Prescaler, the Filter value and the Polarity */
  tmpsmcr |= (uint32_t)(TIM_ExtTRGPrescaler | (TIM_ExtTRGPolarity | (ExtTRGFilter << 8U)));
 8005db0:	e9d1 5301 	ldrd	r5, r3, [r1, #4]
  tmpsmcr = TIMx->SMCR;
 8005db4:	68a0      	ldr	r0, [r4, #8]
  tmpsmcr |= (uint32_t)(TIM_ExtTRGPrescaler | (TIM_ExtTRGPolarity | (ExtTRGFilter << 8U)));
 8005db6:	432b      	orrs	r3, r5
 8005db8:	68cd      	ldr	r5, [r1, #12]
  tmpsmcr &= ~(TIM_SMCR_ETF | TIM_SMCR_ETPS | TIM_SMCR_ECE | TIM_SMCR_ETP);
 8005dba:	f420 417f 	bic.w	r1, r0, #65280	@ 0xff00
  tmpsmcr |= (uint32_t)(TIM_ExtTRGPrescaler | (TIM_ExtTRGPolarity | (ExtTRGFilter << 8U)));
 8005dbe:	ea43 2305 	orr.w	r3, r3, r5, lsl #8
 8005dc2:	430b      	orrs	r3, r1

  /* Write to TIMx SMCR */
  TIMx->SMCR = tmpsmcr;
 8005dc4:	60a3      	str	r3, [r4, #8]
      htim->Instance->SMCR |= TIM_SMCR_ECE;
 8005dc6:	68a3      	ldr	r3, [r4, #8]
 8005dc8:	f443 4380 	orr.w	r3, r3, #16384	@ 0x4000
 8005dcc:	60a3      	str	r3, [r4, #8]
  HAL_StatusTypeDef status = HAL_OK;
 8005dce:	2000      	movs	r0, #0
 8005dd0:	e7e0      	b.n	8005d94 <HAL_TIM_ConfigClockSource+0x64>
  switch (sClockSourceConfig->ClockSource)
 8005dd2:	2b70      	cmp	r3, #112	@ 0x70
 8005dd4:	d1de      	bne.n	8005d94 <HAL_TIM_ConfigClockSource+0x64>
  tmpsmcr |= (uint32_t)(TIM_ExtTRGPrescaler | (TIM_ExtTRGPolarity | (ExtTRGFilter << 8U)));
 8005dd6:	e9d1 5301 	ldrd	r5, r3, [r1, #4]
  tmpsmcr = TIMx->SMCR;
 8005dda:	68a0      	ldr	r0, [r4, #8]
  tmpsmcr |= (uint32_t)(TIM_ExtTRGPrescaler | (TIM_ExtTRGPolarity | (ExtTRGFilter << 8U)));
 8005ddc:	432b      	orrs	r3, r5
 8005dde:	68cd      	ldr	r5, [r1, #12]
  tmpsmcr &= ~(TIM_SMCR_ETF | TIM_SMCR_ETPS | TIM_SMCR_ECE | TIM_SMCR_ETP);
 8005de0:	f420 417f 	bic.w	r1, r0, #65280	@ 0xff00
  tmpsmcr |= (uint32_t)(TIM_ExtTRGPrescaler | (TIM_ExtTRGPolarity | (ExtTRGFilter << 8U)));
 8005de4:	ea43 2305 	orr.w	r3, r3, r5, lsl #8
 8005de8:	430b      	orrs	r3, r1
  TIMx->SMCR = tmpsmcr;
 8005dea:	60a3      	str	r3, [r4, #8]
      tmpsmcr = htim->Instance->SMCR;
 8005dec:	68a3      	ldr	r3, [r4, #8]
      tmpsmcr |= (TIM_SLAVEMODE_EXTERNAL1 | TIM_CLOCKSOURCE_ETRMODE1);
 8005dee:	f043 0377 	orr.w	r3, r3, #119	@ 0x77
      htim->Instance->SMCR = tmpsmcr;
 8005df2:	60a3      	str	r3, [r4, #8]
      break;
 8005df4:	e7cd      	b.n	8005d92 <HAL_TIM_ConfigClockSource+0x62>
  switch (sClockSourceConfig->ClockSource)
 8005df6:	2b20      	cmp	r3, #32
 8005df8:	d002      	beq.n	8005e00 <HAL_TIM_ConfigClockSource+0xd0>
 8005dfa:	d909      	bls.n	8005e10 <HAL_TIM_ConfigClockSource+0xe0>
 8005dfc:	2b30      	cmp	r3, #48	@ 0x30
 8005dfe:	d1c9      	bne.n	8005d94 <HAL_TIM_ConfigClockSource+0x64>
  tmpsmcr = TIMx->SMCR;
 8005e00:	68a1      	ldr	r1, [r4, #8]
  tmpsmcr &= ~TIM_SMCR_TS;
 8005e02:	f021 0170 	bic.w	r1, r1, #112	@ 0x70
  tmpsmcr |= (InputTriggerSource | TIM_SLAVEMODE_EXTERNAL1);
 8005e06:	430b      	orrs	r3, r1
 8005e08:	f043 0307 	orr.w	r3, r3, #7
  TIMx->SMCR = tmpsmcr;
 8005e0c:	60a3      	str	r3, [r4, #8]
}
 8005e0e:	e7c0      	b.n	8005d92 <HAL_TIM_ConfigClockSource+0x62>
  switch (sClockSourceConfig->ClockSource)
 8005e10:	f033 0110 	bics.w	r1, r3, #16
 8005e14:	d1be      	bne.n	8005d94 <HAL_TIM_ConfigClockSource+0x64>
 8005e16:	e7f3      	b.n	8005e00 <HAL_TIM_ConfigClockSource+0xd0>
  __HAL_LOCK(htim);
 8005e18:	2002      	movs	r0, #2
}
 8005e1a:	4770      	bx	lr
  tmpccer = TIMx->CCER;
 8005e1c:	6a23      	ldr	r3, [r4, #32]
                               sClockSourceConfig->ClockPolarity,
 8005e1e:	684d      	ldr	r5, [r1, #4]
                               sClockSourceConfig->ClockFilter);
 8005e20:	68c8      	ldr	r0, [r1, #12]
  TIMx->CCER &= ~TIM_CCER_CC2E;
 8005e22:	6a21      	ldr	r1, [r4, #32]
 8005e24:	f021 0110 	bic.w	r1, r1, #16
 8005e28:	6221      	str	r1, [r4, #32]
  tmpccmr1 = TIMx->CCMR1;
 8005e2a:	69a1      	ldr	r1, [r4, #24]
  tmpccer &= ~(TIM_CCER_CC2P | TIM_CCER_CC2NP);
 8005e2c:	f023 03a0 	bic.w	r3, r3, #160	@ 0xa0
  tmpccmr1 &= ~TIM_CCMR1_IC2F;
 8005e30:	f421 4170 	bic.w	r1, r1, #61440	@ 0xf000
  tmpccer |= (TIM_ICPolarity << 4U);
 8005e34:	ea43 1305 	orr.w	r3, r3, r5, lsl #4
  tmpccmr1 |= (TIM_ICFilter << 12U);
 8005e38:	ea41 3100 	orr.w	r1, r1, r0, lsl #12
  TIMx->CCMR1 = tmpccmr1 ;
 8005e3c:	61a1      	str	r1, [r4, #24]
  TIMx->CCER = tmpccer;
 8005e3e:	6223      	str	r3, [r4, #32]
  tmpsmcr = TIMx->SMCR;
 8005e40:	68a3      	ldr	r3, [r4, #8]
  tmpsmcr &= ~TIM_SMCR_TS;
 8005e42:	f023 0370 	bic.w	r3, r3, #112	@ 0x70
  tmpsmcr |= (InputTriggerSource | TIM_SLAVEMODE_EXTERNAL1);
 8005e46:	f043 0367 	orr.w	r3, r3, #103	@ 0x67
  TIMx->SMCR = tmpsmcr;
 8005e4a:	60a3      	str	r3, [r4, #8]
}
 8005e4c:	e7a1      	b.n	8005d92 <HAL_TIM_ConfigClockSource+0x62>
                               sClockSourceConfig->ClockPolarity,
 8005e4e:	684b      	ldr	r3, [r1, #4]
                               sClockSourceConfig->ClockFilter);
 8005e50:	68c8      	ldr	r0, [r1, #12]
  tmpccer = TIMx->CCER;
 8005e52:	6a21      	ldr	r1, [r4, #32]
  tmpccer &= ~(TIM_CCER_CC1P | TIM_CCER_CC1NP);
 8005e54:	f021 010a 	bic.w	r1, r1, #10
  tmpccer |= TIM_ICPolarity;
 8005e58:	4319      	orrs	r1, r3
  TIMx->CCER &= ~TIM_CCER_CC1E;
 8005e5a:	6a23      	ldr	r3, [r4, #32]
 8005e5c:	f023 0301 	bic.w	r3, r3, #1
 8005e60:	6223      	str	r3, [r4, #32]
  tmpccmr1 = TIMx->CCMR1;
 8005e62:	69a3      	ldr	r3, [r4, #24]
  tmpccmr1 &= ~TIM_CCMR1_IC1F;
 8005e64:	f023 03f0 	bic.w	r3, r3, #240	@ 0xf0
  tmpccmr1 |= (TIM_ICFilter << 4U);
 8005e68:	ea43 1300 	orr.w	r3, r3, r0, lsl #4
  TIMx->CCMR1 = tmpccmr1;
 8005e6c:	61a3      	str	r3, [r4, #24]
  TIMx->CCER = tmpccer;
 8005e6e:	6221      	str	r1, [r4, #32]
  tmpsmcr = TIMx->SMCR;
 8005e70:	68a3      	ldr	r3, [r4, #8]
  tmpsmcr &= ~TIM_SMCR_TS;
 8005e72:	f023 0370 	bic.w	r3, r3, #112	@ 0x70
  tmpsmcr |= (InputTriggerSource | TIM_SLAVEMODE_EXTERNAL1);
 8005e76:	f043 0347 	orr.w	r3, r3, #71	@ 0x47
  TIMx->SMCR = tmpsmcr;
 8005e7a:	60a3      	str	r3, [r4, #8]
}
 8005e7c:	e789      	b.n	8005d92 <HAL_TIM_ConfigClockSource+0x62>
 8005e7e:	bf00      	nop
 8005e80:	fffe0088 	.word	0xfffe0088

08005e84 <HAL_TIM_PeriodElapsedCallback>:
__weak void HAL_TIM_PeriodElapsedCallback(TIM_HandleTypeDef *htim)
 8005e84:	4770      	bx	lr
 8005e86:	bf00      	nop

08005e88 <HAL_TIM_OC_DelayElapsedCallback>:
__weak void HAL_TIM_OC_DelayElapsedCallback(TIM_HandleTypeDef *htim)
 8005e88:	4770      	bx	lr
 8005e8a:	bf00      	nop

08005e8c <HAL_TIM_IC_CaptureCallback>:
__weak void HAL_TIM_IC_CaptureCallback(TIM_HandleTypeDef *htim)
 8005e8c:	4770      	bx	lr
 8005e8e:	bf00      	nop

08005e90 <HAL_TIM_PWM_PulseFinishedCallback>:
__weak void HAL_TIM_PWM_PulseFinishedCallback(TIM_HandleTypeDef *htim)
 8005e90:	4770      	bx	lr
 8005e92:	bf00      	nop

08005e94 <HAL_TIM_TriggerCallback>:
__weak void HAL_TIM_TriggerCallback(TIM_HandleTypeDef *htim)
 8005e94:	4770      	bx	lr
 8005e96:	bf00      	nop

08005e98 <HAL_TIM_IRQHandler>:
{
 8005e98:	b5f8      	push	{r3, r4, r5, r6, r7, lr}
  uint32_t itsource = htim->Instance->DIER;
 8005e9a:	6803      	ldr	r3, [r0, #0]
 8005e9c:	68de      	ldr	r6, [r3, #12]
  uint32_t itflag   = htim->Instance->SR;
 8005e9e:	691c      	ldr	r4, [r3, #16]
  if ((itflag & (TIM_FLAG_CC1)) == (TIM_FLAG_CC1))
 8005ea0:	07a1      	lsls	r1, r4, #30
{
 8005ea2:	4605      	mov	r5, r0
  if ((itflag & (TIM_FLAG_CC1)) == (TIM_FLAG_CC1))
 8005ea4:	d501      	bpl.n	8005eaa <HAL_TIM_IRQHandler+0x12>
    if ((itsource & (TIM_IT_CC1)) == (TIM_IT_CC1))
 8005ea6:	07b2      	lsls	r2, r6, #30
 8005ea8:	d457      	bmi.n	8005f5a <HAL_TIM_IRQHandler+0xc2>
  if ((itflag & (TIM_FLAG_CC2)) == (TIM_FLAG_CC2))
 8005eaa:	0767      	lsls	r7, r4, #29
 8005eac:	d501      	bpl.n	8005eb2 <HAL_TIM_IRQHandler+0x1a>
    if ((itsource & (TIM_IT_CC2)) == (TIM_IT_CC2))
 8005eae:	0770      	lsls	r0, r6, #29
 8005eb0:	d440      	bmi.n	8005f34 <HAL_TIM_IRQHandler+0x9c>
  if ((itflag & (TIM_FLAG_CC3)) == (TIM_FLAG_CC3))
 8005eb2:	0721      	lsls	r1, r4, #28
 8005eb4:	d501      	bpl.n	8005eba <HAL_TIM_IRQHandler+0x22>
    if ((itsource & (TIM_IT_CC3)) == (TIM_IT_CC3))
 8005eb6:	0732      	lsls	r2, r6, #28
 8005eb8:	d42a      	bmi.n	8005f10 <HAL_TIM_IRQHandler+0x78>
  if ((itflag & (TIM_FLAG_CC4)) == (TIM_FLAG_CC4))
 8005eba:	06e7      	lsls	r7, r4, #27
 8005ebc:	d501      	bpl.n	8005ec2 <HAL_TIM_IRQHandler+0x2a>
    if ((itsource & (TIM_IT_CC4)) == (TIM_IT_CC4))
 8005ebe:	06f0      	lsls	r0, r6, #27
 8005ec0:	d413      	bmi.n	8005eea <HAL_TIM_IRQHandler+0x52>
  if ((itflag & (TIM_FLAG_UPDATE)) == (TIM_FLAG_UPDATE))
 8005ec2:	07e1      	lsls	r1, r4, #31
 8005ec4:	d501      	bpl.n	8005eca <HAL_TIM_IRQHandler+0x32>
    if ((itsource & (TIM_IT_UPDATE)) == (TIM_IT_UPDATE))
 8005ec6:	07f2      	lsls	r2, r6, #31
 8005ec8:	d465      	bmi.n	8005f96 <HAL_TIM_IRQHandler+0xfe>
  if (((itflag & (TIM_FLAG_BREAK)) == (TIM_FLAG_BREAK)) || \
 8005eca:	f414 5f02 	tst.w	r4, #8320	@ 0x2080
  if ((itflag & (TIM_FLAG_BREAK2)) == (TIM_FLAG_BREAK2))
 8005ece:	f404 7780 	and.w	r7, r4, #256	@ 0x100
  if (((itflag & (TIM_FLAG_BREAK)) == (TIM_FLAG_BREAK)) || \
 8005ed2:	d052      	beq.n	8005f7a <HAL_TIM_IRQHandler+0xe2>
    if ((itsource & (TIM_IT_BREAK)) == (TIM_IT_BREAK))
 8005ed4:	0633      	lsls	r3, r6, #24
 8005ed6:	d466      	bmi.n	8005fa6 <HAL_TIM_IRQHandler+0x10e>
  if ((itflag & (TIM_FLAG_TRIGGER)) == (TIM_FLAG_TRIGGER))
 8005ed8:	0660      	lsls	r0, r4, #25
 8005eda:	d501      	bpl.n	8005ee0 <HAL_TIM_IRQHandler+0x48>
    if ((itsource & (TIM_IT_TRIGGER)) == (TIM_IT_TRIGGER))
 8005edc:	0671      	lsls	r1, r6, #25
 8005ede:	d473      	bmi.n	8005fc8 <HAL_TIM_IRQHandler+0x130>
  if ((itflag & (TIM_FLAG_COM)) == (TIM_FLAG_COM))
 8005ee0:	06a2      	lsls	r2, r4, #26
 8005ee2:	d501      	bpl.n	8005ee8 <HAL_TIM_IRQHandler+0x50>
    if ((itsource & (TIM_IT_COM)) == (TIM_IT_COM))
 8005ee4:	06b3      	lsls	r3, r6, #26
 8005ee6:	d44d      	bmi.n	8005f84 <HAL_TIM_IRQHandler+0xec>
}
 8005ee8:	bdf8      	pop	{r3, r4, r5, r6, r7, pc}
      __HAL_TIM_CLEAR_FLAG(htim, TIM_FLAG_CC4);
 8005eea:	682b      	ldr	r3, [r5, #0]
 8005eec:	f06f 0210 	mvn.w	r2, #16
 8005ef0:	611a      	str	r2, [r3, #16]
      htim->Channel = HAL_TIM_ACTIVE_CHANNEL_4;
 8005ef2:	2208      	movs	r2, #8
 8005ef4:	772a      	strb	r2, [r5, #28]
      if ((htim->Instance->CCMR2 & TIM_CCMR2_CC4S) != 0x00U)
 8005ef6:	69db      	ldr	r3, [r3, #28]
 8005ef8:	f413 7f40 	tst.w	r3, #768	@ 0x300
        HAL_TIM_IC_CaptureCallback(htim);
 8005efc:	4628      	mov	r0, r5
      if ((htim->Instance->CCMR2 & TIM_CCMR2_CC4S) != 0x00U)
 8005efe:	d174      	bne.n	8005fea <HAL_TIM_IRQHandler+0x152>
        HAL_TIM_OC_DelayElapsedCallback(htim);
 8005f00:	f7ff ffc2 	bl	8005e88 <HAL_TIM_OC_DelayElapsedCallback>
        HAL_TIM_PWM_PulseFinishedCallback(htim);
 8005f04:	4628      	mov	r0, r5
 8005f06:	f7ff ffc3 	bl	8005e90 <HAL_TIM_PWM_PulseFinishedCallback>
      htim->Channel = HAL_TIM_ACTIVE_CHANNEL_CLEARED;
 8005f0a:	2300      	movs	r3, #0
 8005f0c:	772b      	strb	r3, [r5, #28]
 8005f0e:	e7d8      	b.n	8005ec2 <HAL_TIM_IRQHandler+0x2a>
      __HAL_TIM_CLEAR_FLAG(htim, TIM_FLAG_CC3);
 8005f10:	682b      	ldr	r3, [r5, #0]
 8005f12:	f06f 0208 	mvn.w	r2, #8
 8005f16:	611a      	str	r2, [r3, #16]
      htim->Channel = HAL_TIM_ACTIVE_CHANNEL_3;
 8005f18:	2204      	movs	r2, #4
 8005f1a:	772a      	strb	r2, [r5, #28]
      if ((htim->Instance->CCMR2 & TIM_CCMR2_CC3S) != 0x00U)
 8005f1c:	69db      	ldr	r3, [r3, #28]
 8005f1e:	079b      	lsls	r3, r3, #30
        HAL_TIM_IC_CaptureCallback(htim);
 8005f20:	4628      	mov	r0, r5
      if ((htim->Instance->CCMR2 & TIM_CCMR2_CC3S) != 0x00U)
 8005f22:	d15f      	bne.n	8005fe4 <HAL_TIM_IRQHandler+0x14c>
        HAL_TIM_OC_DelayElapsedCallback(htim);
 8005f24:	f7ff ffb0 	bl	8005e88 <HAL_TIM_OC_DelayElapsedCallback>
        HAL_TIM_PWM_PulseFinishedCallback(htim);
 8005f28:	4628      	mov	r0, r5
 8005f2a:	f7ff ffb1 	bl	8005e90 <HAL_TIM_PWM_PulseFinishedCallback>
      htim->Channel = HAL_TIM_ACTIVE_CHANNEL_CLEARED;
 8005f2e:	2300      	movs	r3, #0
 8005f30:	772b      	strb	r3, [r5, #28]
 8005f32:	e7c2      	b.n	8005eba <HAL_TIM_IRQHandler+0x22>
      __HAL_TIM_CLEAR_FLAG(htim, TIM_FLAG_CC2);
 8005f34:	682b      	ldr	r3, [r5, #0]
 8005f36:	f06f 0204 	mvn.w	r2, #4
 8005f3a:	611a      	str	r2, [r3, #16]
      htim->Channel = HAL_TIM_ACTIVE_CHANNEL_2;
 8005f3c:	2202      	movs	r2, #2
 8005f3e:	772a      	strb	r2, [r5, #28]
      if ((htim->Instance->CCMR1 & TIM_CCMR1_CC2S) != 0x00U)
 8005f40:	699b      	ldr	r3, [r3, #24]
 8005f42:	f413 7f40 	tst.w	r3, #768	@ 0x300
        HAL_TIM_IC_CaptureCallback(htim);
 8005f46:	4628      	mov	r0, r5
      if ((htim->Instance->CCMR1 & TIM_CCMR1_CC2S) != 0x00U)
 8005f48:	d149      	bne.n	8005fde <HAL_TIM_IRQHandler+0x146>
        HAL_TIM_OC_DelayElapsedCallback(htim);
 8005f4a:	f7ff ff9d 	bl	8005e88 <HAL_TIM_OC_DelayElapsedCallback>
        HAL_TIM_PWM_PulseFinishedCallback(htim);
 8005f4e:	4628      	mov	r0, r5
 8005f50:	f7ff ff9e 	bl	8005e90 <HAL_TIM_PWM_PulseFinishedCallback>
      htim->Channel = HAL_TIM_ACTIVE_CHANNEL_CLEARED;
 8005f54:	2300      	movs	r3, #0
 8005f56:	772b      	strb	r3, [r5, #28]
 8005f58:	e7ab      	b.n	8005eb2 <HAL_TIM_IRQHandler+0x1a>
        __HAL_TIM_CLEAR_FLAG(htim, TIM_FLAG_CC1);
 8005f5a:	f06f 0202 	mvn.w	r2, #2
 8005f5e:	611a      	str	r2, [r3, #16]
        htim->Channel = HAL_TIM_ACTIVE_CHANNEL_1;
 8005f60:	2201      	movs	r2, #1
 8005f62:	7702      	strb	r2, [r0, #28]
        if ((htim->Instance->CCMR1 & TIM_CCMR1_CC1S) != 0x00U)
 8005f64:	699b      	ldr	r3, [r3, #24]
 8005f66:	079b      	lsls	r3, r3, #30
 8005f68:	d136      	bne.n	8005fd8 <HAL_TIM_IRQHandler+0x140>
          HAL_TIM_OC_DelayElapsedCallback(htim);
 8005f6a:	f7ff ff8d 	bl	8005e88 <HAL_TIM_OC_DelayElapsedCallback>
          HAL_TIM_PWM_PulseFinishedCallback(htim);
 8005f6e:	4628      	mov	r0, r5
 8005f70:	f7ff ff8e 	bl	8005e90 <HAL_TIM_PWM_PulseFinishedCallback>
        htim->Channel = HAL_TIM_ACTIVE_CHANNEL_CLEARED;
 8005f74:	2300      	movs	r3, #0
 8005f76:	772b      	strb	r3, [r5, #28]
 8005f78:	e797      	b.n	8005eaa <HAL_TIM_IRQHandler+0x12>
  if ((itflag & (TIM_FLAG_BREAK2)) == (TIM_FLAG_BREAK2))
 8005f7a:	2f00      	cmp	r7, #0
 8005f7c:	d0ac      	beq.n	8005ed8 <HAL_TIM_IRQHandler+0x40>
    if ((itsource & (TIM_IT_BREAK)) == (TIM_IT_BREAK))
 8005f7e:	0637      	lsls	r7, r6, #24
 8005f80:	d41a      	bmi.n	8005fb8 <HAL_TIM_IRQHandler+0x120>
 8005f82:	e7a9      	b.n	8005ed8 <HAL_TIM_IRQHandler+0x40>
      __HAL_TIM_CLEAR_FLAG(htim, TIM_FLAG_COM);
 8005f84:	682b      	ldr	r3, [r5, #0]
 8005f86:	f06f 0220 	mvn.w	r2, #32
 8005f8a:	611a      	str	r2, [r3, #16]
      HAL_TIMEx_CommutCallback(htim);
 8005f8c:	4628      	mov	r0, r5
}
 8005f8e:	e8bd 40f8 	ldmia.w	sp!, {r3, r4, r5, r6, r7, lr}
      HAL_TIMEx_CommutCallback(htim);
 8005f92:	f000 b87d 	b.w	8006090 <HAL_TIMEx_CommutCallback>
      __HAL_TIM_CLEAR_FLAG(htim, TIM_FLAG_UPDATE);
 8005f96:	682b      	ldr	r3, [r5, #0]
 8005f98:	f06f 0201 	mvn.w	r2, #1
 8005f9c:	611a      	str	r2, [r3, #16]
      HAL_TIM_PeriodElapsedCallback(htim);
 8005f9e:	4628      	mov	r0, r5
 8005fa0:	f7ff ff70 	bl	8005e84 <HAL_TIM_PeriodElapsedCallback>
 8005fa4:	e791      	b.n	8005eca <HAL_TIM_IRQHandler+0x32>
      __HAL_TIM_CLEAR_FLAG(htim, TIM_FLAG_BREAK | TIM_FLAG_SYSTEM_BREAK);
 8005fa6:	682b      	ldr	r3, [r5, #0]
 8005fa8:	f46f 5202 	mvn.w	r2, #8320	@ 0x2080
 8005fac:	611a      	str	r2, [r3, #16]
      HAL_TIMEx_BreakCallback(htim);
 8005fae:	4628      	mov	r0, r5
 8005fb0:	f000 f870 	bl	8006094 <HAL_TIMEx_BreakCallback>
  if ((itflag & (TIM_FLAG_BREAK2)) == (TIM_FLAG_BREAK2))
 8005fb4:	2f00      	cmp	r7, #0
 8005fb6:	d08f      	beq.n	8005ed8 <HAL_TIM_IRQHandler+0x40>
      __HAL_TIM_CLEAR_FLAG(htim, TIM_FLAG_BREAK2);
 8005fb8:	682b      	ldr	r3, [r5, #0]
 8005fba:	f46f 7280 	mvn.w	r2, #256	@ 0x100
 8005fbe:	611a      	str	r2, [r3, #16]
      HAL_TIMEx_Break2Callback(htim);
 8005fc0:	4628      	mov	r0, r5
 8005fc2:	f000 f869 	bl	8006098 <HAL_TIMEx_Break2Callback>
 8005fc6:	e787      	b.n	8005ed8 <HAL_TIM_IRQHandler+0x40>
      __HAL_TIM_CLEAR_FLAG(htim, TIM_FLAG_TRIGGER);
 8005fc8:	682b      	ldr	r3, [r5, #0]
 8005fca:	f06f 0240 	mvn.w	r2, #64	@ 0x40
 8005fce:	611a      	str	r2, [r3, #16]
      HAL_TIM_TriggerCallback(htim);
 8005fd0:	4628      	mov	r0, r5
 8005fd2:	f7ff ff5f 	bl	8005e94 <HAL_TIM_TriggerCallback>
 8005fd6:	e783      	b.n	8005ee0 <HAL_TIM_IRQHandler+0x48>
          HAL_TIM_IC_CaptureCallback(htim);
 8005fd8:	f7ff ff58 	bl	8005e8c <HAL_TIM_IC_CaptureCallback>
 8005fdc:	e7ca      	b.n	8005f74 <HAL_TIM_IRQHandler+0xdc>
        HAL_TIM_IC_CaptureCallback(htim);
 8005fde:	f7ff ff55 	bl	8005e8c <HAL_TIM_IC_CaptureCallback>
 8005fe2:	e7b7      	b.n	8005f54 <HAL_TIM_IRQHandler+0xbc>
        HAL_TIM_IC_CaptureCallback(htim);
 8005fe4:	f7ff ff52 	bl	8005e8c <HAL_TIM_IC_CaptureCallback>
 8005fe8:	e7a1      	b.n	8005f2e <HAL_TIM_IRQHandler+0x96>
        HAL_TIM_IC_CaptureCallback(htim);
 8005fea:	f7ff ff4f 	bl	8005e8c <HAL_TIM_IC_CaptureCallback>
 8005fee:	e78c      	b.n	8005f0a <HAL_TIM_IRQHandler+0x72>

08005ff0 <HAL_TIMEx_MasterConfigSynchronization>:
  assert_param(IS_TIM_MASTER_INSTANCE(htim->Instance));
  assert_param(IS_TIM_TRGO_SOURCE(sMasterConfig->MasterOutputTrigger));
  assert_param(IS_TIM_MSM_STATE(sMasterConfig->MasterSlaveMode));

  /* Check input state */
  __HAL_LOCK(htim);
 8005ff0:	f890 203c 	ldrb.w	r2, [r0, #60]	@ 0x3c
 8005ff4:	2a01      	cmp	r2, #1
 8005ff6:	d044      	beq.n	8006082 <HAL_TIMEx_MasterConfigSynchronization+0x92>

  /* Change the handler state */
  htim->State = HAL_TIM_STATE_BUSY;

  /* Get the TIMx CR2 register value */
  tmpcr2 = htim->Instance->CR2;
 8005ff8:	6802      	ldr	r2, [r0, #0]
{
 8005ffa:	b470      	push	{r4, r5, r6}
 8005ffc:	4603      	mov	r3, r0

  /* Get the TIMx SMCR register value */
  tmpsmcr = htim->Instance->SMCR;

  /* If the timer supports ADC synchronization through TRGO2, set the master mode selection 2 */
  if (IS_TIM_TRGO2_INSTANCE(htim->Instance))
 8005ffe:	4e22      	ldr	r6, [pc, #136]	@ (8006088 <HAL_TIMEx_MasterConfigSynchronization+0x98>)
  htim->State = HAL_TIM_STATE_BUSY;
 8006000:	2002      	movs	r0, #2
 8006002:	f883 003d 	strb.w	r0, [r3, #61]	@ 0x3d
  if (IS_TIM_TRGO2_INSTANCE(htim->Instance))
 8006006:	42b2      	cmp	r2, r6
  tmpcr2 = htim->Instance->CR2;
 8006008:	6850      	ldr	r0, [r2, #4]
  }

  /* Reset the MMS Bits */
  tmpcr2 &= ~TIM_CR2_MMS;
  /* Select the TRGO source */
  tmpcr2 |=  sMasterConfig->MasterOutputTrigger;
 800600a:	680d      	ldr	r5, [r1, #0]
  tmpsmcr = htim->Instance->SMCR;
 800600c:	6894      	ldr	r4, [r2, #8]
  if (IS_TIM_TRGO2_INSTANCE(htim->Instance))
 800600e:	d026      	beq.n	800605e <HAL_TIMEx_MasterConfigSynchronization+0x6e>
 8006010:	f506 6600 	add.w	r6, r6, #2048	@ 0x800
 8006014:	42b2      	cmp	r2, r6
 8006016:	d02b      	beq.n	8006070 <HAL_TIMEx_MasterConfigSynchronization+0x80>
  tmpcr2 &= ~TIM_CR2_MMS;
 8006018:	f020 0070 	bic.w	r0, r0, #112	@ 0x70
  tmpcr2 |=  sMasterConfig->MasterOutputTrigger;
 800601c:	4328      	orrs	r0, r5

  /* Update TIMx CR2 */
  htim->Instance->CR2 = tmpcr2;

  if (IS_TIM_SLAVE_INSTANCE(htim->Instance))
 800601e:	f1b2 4f80 	cmp.w	r2, #1073741824	@ 0x40000000
  htim->Instance->CR2 = tmpcr2;
 8006022:	6050      	str	r0, [r2, #4]
  if (IS_TIM_SLAVE_INSTANCE(htim->Instance))
 8006024:	d00e      	beq.n	8006044 <HAL_TIMEx_MasterConfigSynchronization+0x54>
 8006026:	4819      	ldr	r0, [pc, #100]	@ (800608c <HAL_TIMEx_MasterConfigSynchronization+0x9c>)
 8006028:	4282      	cmp	r2, r0
 800602a:	d00b      	beq.n	8006044 <HAL_TIMEx_MasterConfigSynchronization+0x54>
 800602c:	f500 6080 	add.w	r0, r0, #1024	@ 0x400
 8006030:	4282      	cmp	r2, r0
 8006032:	d007      	beq.n	8006044 <HAL_TIMEx_MasterConfigSynchronization+0x54>
 8006034:	f500 6080 	add.w	r0, r0, #1024	@ 0x400
 8006038:	4282      	cmp	r2, r0
 800603a:	d003      	beq.n	8006044 <HAL_TIMEx_MasterConfigSynchronization+0x54>
 800603c:	f500 309a 	add.w	r0, r0, #78848	@ 0x13400
 8006040:	4282      	cmp	r2, r0
 8006042:	d104      	bne.n	800604e <HAL_TIMEx_MasterConfigSynchronization+0x5e>
  {
    /* Reset the MSM Bit */
    tmpsmcr &= ~TIM_SMCR_MSM;
    /* Set master mode */
    tmpsmcr |= sMasterConfig->MasterSlaveMode;
 8006044:	6889      	ldr	r1, [r1, #8]
    tmpsmcr &= ~TIM_SMCR_MSM;
 8006046:	f024 0480 	bic.w	r4, r4, #128	@ 0x80
    tmpsmcr |= sMasterConfig->MasterSlaveMode;
 800604a:	430c      	orrs	r4, r1

    /* Update TIMx SMCR */
    htim->Instance->SMCR = tmpsmcr;
 800604c:	6094      	str	r4, [r2, #8]
  }

  /* Change the htim state */
  htim->State = HAL_TIM_STATE_READY;

  __HAL_UNLOCK(htim);
 800604e:	2000      	movs	r0, #0
  htim->State = HAL_TIM_STATE_READY;
 8006050:	2201      	movs	r2, #1
 8006052:	f883 203d 	strb.w	r2, [r3, #61]	@ 0x3d
  __HAL_UNLOCK(htim);
 8006056:	f883 003c 	strb.w	r0, [r3, #60]	@ 0x3c

  return HAL_OK;
}
 800605a:	bc70      	pop	{r4, r5, r6}
 800605c:	4770      	bx	lr
    tmpcr2 |= sMasterConfig->MasterOutputTrigger2;
 800605e:	684e      	ldr	r6, [r1, #4]
    tmpcr2 &= ~TIM_CR2_MMS2;
 8006060:	f420 0070 	bic.w	r0, r0, #15728640	@ 0xf00000
    tmpcr2 |= sMasterConfig->MasterOutputTrigger2;
 8006064:	4330      	orrs	r0, r6
  tmpcr2 &= ~TIM_CR2_MMS;
 8006066:	f020 0070 	bic.w	r0, r0, #112	@ 0x70
  tmpcr2 |=  sMasterConfig->MasterOutputTrigger;
 800606a:	4328      	orrs	r0, r5
  htim->Instance->CR2 = tmpcr2;
 800606c:	6050      	str	r0, [r2, #4]
  if (IS_TIM_SLAVE_INSTANCE(htim->Instance))
 800606e:	e7e9      	b.n	8006044 <HAL_TIMEx_MasterConfigSynchronization+0x54>
    tmpcr2 |= sMasterConfig->MasterOutputTrigger2;
 8006070:	684e      	ldr	r6, [r1, #4]
    tmpcr2 &= ~TIM_CR2_MMS2;
 8006072:	f420 0070 	bic.w	r0, r0, #15728640	@ 0xf00000
    tmpcr2 |= sMasterConfig->MasterOutputTrigger2;
 8006076:	4330      	orrs	r0, r6
  tmpcr2 &= ~TIM_CR2_MMS;
 8006078:	f020 0070 	bic.w	r0, r0, #112	@ 0x70
  tmpcr2 |=  sMasterConfig->MasterOutputTrigger;
 800607c:	4305      	orrs	r5, r0
  htim->Instance->CR2 = tmpcr2;
 800607e:	6055      	str	r5, [r2, #4]
  if (IS_TIM_SLAVE_INSTANCE(htim->Instance))
 8006080:	e7e0      	b.n	8006044 <HAL_TIMEx_MasterConfigSynchronization+0x54>
  __HAL_LOCK(htim);
 8006082:	2002      	movs	r0, #2
}
 8006084:	4770      	bx	lr
 8006086:	bf00      	nop
 8006088:	40012c00 	.word	0x40012c00
 800608c:	40000400 	.word	0x40000400

08006090 <HAL_TIMEx_CommutCallback>:
/**
  * @brief  Commutation callback in non-blocking mode
  * @param  htim TIM handle
  * @retval None
  */
__weak void HAL_TIMEx_CommutCallback(TIM_HandleTypeDef *htim)
 8006090:	4770      	bx	lr
 8006092:	bf00      	nop

08006094 <HAL_TIMEx_BreakCallback>:
/**
  * @brief  Break detection callback in non-blocking mode
  * @param  htim TIM handle
  * @retval None
  */
__weak void HAL_TIMEx_BreakCallback(TIM_HandleTypeDef *htim)
 8006094:	4770      	bx	lr
 8006096:	bf00      	nop

08006098 <HAL_TIMEx_Break2Callback>:
/**
  * @brief  Break2 detection callback in non blocking mode
  * @param  htim: TIM handle
  * @retval None
  */
__weak void HAL_TIMEx_Break2Callback(TIM_HandleTypeDef *htim)
 8006098:	4770      	bx	lr
 800609a:	bf00      	nop

0800609c <HAL_UART_Transmit>:
  * @param Size    Amount of data elements (u8 or u16) to be sent.
  * @param Timeout Timeout duration.
  * @retval HAL status
  */
HAL_StatusTypeDef HAL_UART_Transmit(UART_HandleTypeDef *huart, const uint8_t *pData, uint16_t Size, uint32_t Timeout)
{
 800609c:	e92d 43f8 	stmdb	sp!, {r3, r4, r5, r6, r7, r8, r9, lr}
 80060a0:	4604      	mov	r4, r0
  const uint8_t  *pdata8bits;
  const uint16_t *pdata16bits;
  uint32_t tickstart;

  /* Check that a Tx process is not already ongoing */
  if (huart->gState == HAL_UART_STATE_READY)
 80060a2:	6fc0      	ldr	r0, [r0, #124]	@ 0x7c
 80060a4:	2820      	cmp	r0, #32
 80060a6:	d14f      	bne.n	8006148 <HAL_UART_Transmit+0xac>
  {
    if ((pData == NULL) || (Size == 0U))
 80060a8:	4688      	mov	r8, r1
 80060aa:	b109      	cbz	r1, 80060b0 <HAL_UART_Transmit+0x14>
 80060ac:	4617      	mov	r7, r2
 80060ae:	b912      	cbnz	r2, 80060b6 <HAL_UART_Transmit+0x1a>
    {
      return  HAL_ERROR;
 80060b0:	2001      	movs	r0, #1
  }
  else
  {
    return HAL_BUSY;
  }
}
 80060b2:	e8bd 83f8 	ldmia.w	sp!, {r3, r4, r5, r6, r7, r8, r9, pc}
 80060b6:	461d      	mov	r5, r3
    huart->ErrorCode = HAL_UART_ERROR_NONE;
 80060b8:	f04f 0900 	mov.w	r9, #0
    huart->gState = HAL_UART_STATE_BUSY_TX;
 80060bc:	2321      	movs	r3, #33	@ 0x21
    huart->ErrorCode = HAL_UART_ERROR_NONE;
 80060be:	f8c4 9084 	str.w	r9, [r4, #132]	@ 0x84
    huart->gState = HAL_UART_STATE_BUSY_TX;
 80060c2:	67e3      	str	r3, [r4, #124]	@ 0x7c
    tickstart = HAL_GetTick();
 80060c4:	f7fc fbe6 	bl	8002894 <HAL_GetTick>
    if ((huart->Init.WordLength == UART_WORDLENGTH_9B) && (huart->Init.Parity == UART_PARITY_NONE))
 80060c8:	68a3      	ldr	r3, [r4, #8]
    huart->TxXferSize  = Size;
 80060ca:	f8a4 7050 	strh.w	r7, [r4, #80]	@ 0x50
    if ((huart->Init.WordLength == UART_WORDLENGTH_9B) && (huart->Init.Parity == UART_PARITY_NONE))
 80060ce:	f5b3 5f80 	cmp.w	r3, #4096	@ 0x1000
    huart->TxXferCount = Size;
 80060d2:	f8a4 7052 	strh.w	r7, [r4, #82]	@ 0x52
    tickstart = HAL_GetTick();
 80060d6:	4606      	mov	r6, r0
    if ((huart->Init.WordLength == UART_WORDLENGTH_9B) && (huart->Init.Parity == UART_PARITY_NONE))
 80060d8:	d045      	beq.n	8006166 <HAL_UART_Transmit+0xca>
    while (huart->TxXferCount > 0U)
 80060da:	f8b4 2052 	ldrh.w	r2, [r4, #82]	@ 0x52
  */
HAL_StatusTypeDef UART_WaitOnFlagUntilTimeout(UART_HandleTypeDef *huart, uint32_t Flag, FlagStatus Status,
                                              uint32_t Tickstart, uint32_t Timeout)
{
  /* Wait until flag is set */
  while ((__HAL_UART_GET_FLAG(huart, Flag) ? SET : RESET) == Status)
 80060de:	6823      	ldr	r3, [r4, #0]
    while (huart->TxXferCount > 0U)
 80060e0:	b292      	uxth	r2, r2
 80060e2:	b1aa      	cbz	r2, 8006110 <HAL_UART_Transmit+0x74>
 80060e4:	1c68      	adds	r0, r5, #1
 80060e6:	d124      	bne.n	8006132 <HAL_UART_Transmit+0x96>
  while ((__HAL_UART_GET_FLAG(huart, Flag) ? SET : RESET) == Status)
 80060e8:	69da      	ldr	r2, [r3, #28]
 80060ea:	0612      	lsls	r2, r2, #24
 80060ec:	d5fc      	bpl.n	80060e8 <HAL_UART_Transmit+0x4c>
      if (pdata8bits == NULL)
 80060ee:	f1b8 0f00 	cmp.w	r8, #0
 80060f2:	d024      	beq.n	800613e <HAL_UART_Transmit+0xa2>
        huart->Instance->TDR = (uint8_t)(*pdata8bits & 0xFFU);
 80060f4:	f818 2b01 	ldrb.w	r2, [r8], #1
 80060f8:	851a      	strh	r2, [r3, #40]	@ 0x28
      huart->TxXferCount--;
 80060fa:	f8b4 2052 	ldrh.w	r2, [r4, #82]	@ 0x52
 80060fe:	3a01      	subs	r2, #1
 8006100:	b292      	uxth	r2, r2
 8006102:	f8a4 2052 	strh.w	r2, [r4, #82]	@ 0x52
    while (huart->TxXferCount > 0U)
 8006106:	f8b4 2052 	ldrh.w	r2, [r4, #82]	@ 0x52
 800610a:	b292      	uxth	r2, r2
 800610c:	2a00      	cmp	r2, #0
 800610e:	d1e9      	bne.n	80060e4 <HAL_UART_Transmit+0x48>
 8006110:	1c69      	adds	r1, r5, #1
 8006112:	d124      	bne.n	800615e <HAL_UART_Transmit+0xc2>
  while ((__HAL_UART_GET_FLAG(huart, Flag) ? SET : RESET) == Status)
 8006114:	69da      	ldr	r2, [r3, #28]
 8006116:	0652      	lsls	r2, r2, #25
 8006118:	d5fc      	bpl.n	8006114 <HAL_UART_Transmit+0x78>
    huart->gState = HAL_UART_STATE_READY;
 800611a:	2320      	movs	r3, #32
 800611c:	67e3      	str	r3, [r4, #124]	@ 0x7c
    return HAL_OK;
 800611e:	2000      	movs	r0, #0
 8006120:	e7c7      	b.n	80060b2 <HAL_UART_Transmit+0x16>
  {
    /* Check for the Timeout */
    if (Timeout != HAL_MAX_DELAY)
    {
      if (((HAL_GetTick() - Tickstart) > Timeout) || (Timeout == 0U))
 8006122:	f7fc fbb7 	bl	8002894 <HAL_GetTick>
 8006126:	1b80      	subs	r0, r0, r6
 8006128:	4285      	cmp	r5, r0
 800612a:	d322      	bcc.n	8006172 <HAL_UART_Transmit+0xd6>
 800612c:	b30d      	cbz	r5, 8006172 <HAL_UART_Transmit+0xd6>
      {

        return HAL_TIMEOUT;
      }

      if ((READ_BIT(huart->Instance->CR1, USART_CR1_RE) != 0U) && (Flag != UART_FLAG_TXE) && (Flag != UART_FLAG_TC))
 800612e:	6823      	ldr	r3, [r4, #0]
 8006130:	681a      	ldr	r2, [r3, #0]
  while ((__HAL_UART_GET_FLAG(huart, Flag) ? SET : RESET) == Status)
 8006132:	69da      	ldr	r2, [r3, #28]
 8006134:	0617      	lsls	r7, r2, #24
 8006136:	d5f4      	bpl.n	8006122 <HAL_UART_Transmit+0x86>
      if (pdata8bits == NULL)
 8006138:	f1b8 0f00 	cmp.w	r8, #0
 800613c:	d1da      	bne.n	80060f4 <HAL_UART_Transmit+0x58>
        huart->Instance->TDR = (uint16_t)(*pdata16bits & 0x01FFU);
 800613e:	f839 2b02 	ldrh.w	r2, [r9], #2
 8006142:	f3c2 0208 	ubfx	r2, r2, #0, #9
 8006146:	e7d7      	b.n	80060f8 <HAL_UART_Transmit+0x5c>
    return HAL_BUSY;
 8006148:	2002      	movs	r0, #2
}
 800614a:	e8bd 83f8 	ldmia.w	sp!, {r3, r4, r5, r6, r7, r8, r9, pc}
      if (((HAL_GetTick() - Tickstart) > Timeout) || (Timeout == 0U))
 800614e:	f7fc fba1 	bl	8002894 <HAL_GetTick>
 8006152:	1b83      	subs	r3, r0, r6
 8006154:	429d      	cmp	r5, r3
 8006156:	d30c      	bcc.n	8006172 <HAL_UART_Transmit+0xd6>
 8006158:	b15d      	cbz	r5, 8006172 <HAL_UART_Transmit+0xd6>
      if ((READ_BIT(huart->Instance->CR1, USART_CR1_RE) != 0U) && (Flag != UART_FLAG_TXE) && (Flag != UART_FLAG_TC))
 800615a:	6823      	ldr	r3, [r4, #0]
 800615c:	681a      	ldr	r2, [r3, #0]
  while ((__HAL_UART_GET_FLAG(huart, Flag) ? SET : RESET) == Status)
 800615e:	69db      	ldr	r3, [r3, #28]
 8006160:	065b      	lsls	r3, r3, #25
 8006162:	d5f4      	bpl.n	800614e <HAL_UART_Transmit+0xb2>
 8006164:	e7d9      	b.n	800611a <HAL_UART_Transmit+0x7e>
    if ((huart->Init.WordLength == UART_WORDLENGTH_9B) && (huart->Init.Parity == UART_PARITY_NONE))
 8006166:	6923      	ldr	r3, [r4, #16]
 8006168:	2b00      	cmp	r3, #0
 800616a:	d1b6      	bne.n	80060da <HAL_UART_Transmit+0x3e>
 800616c:	46c1      	mov	r9, r8
      pdata8bits  = NULL;
 800616e:	4698      	mov	r8, r3
 8006170:	e7b3      	b.n	80060da <HAL_UART_Transmit+0x3e>
        huart->gState = HAL_UART_STATE_READY;
 8006172:	2320      	movs	r3, #32
 8006174:	67e3      	str	r3, [r4, #124]	@ 0x7c
        return HAL_TIMEOUT;
 8006176:	2003      	movs	r0, #3
}
 8006178:	e8bd 83f8 	ldmia.w	sp!, {r3, r4, r5, r6, r7, r8, r9, pc}

0800617c <HAL_UART_Receive>:
{
 800617c:	e92d 43f8 	stmdb	sp!, {r3, r4, r5, r6, r7, r8, r9, lr}
 8006180:	4604      	mov	r4, r0
  if (huart->RxState == HAL_UART_STATE_READY)
 8006182:	f8d0 0080 	ldr.w	r0, [r0, #128]	@ 0x80
 8006186:	2820      	cmp	r0, #32
 8006188:	d148      	bne.n	800621c <HAL_UART_Receive+0xa0>
    if ((pData == NULL) || (Size == 0U))
 800618a:	4689      	mov	r9, r1
 800618c:	b109      	cbz	r1, 8006192 <HAL_UART_Receive+0x16>
 800618e:	4616      	mov	r6, r2
 8006190:	b912      	cbnz	r2, 8006198 <HAL_UART_Receive+0x1c>
      return  HAL_ERROR;
 8006192:	2001      	movs	r0, #1
}
 8006194:	e8bd 83f8 	ldmia.w	sp!, {r3, r4, r5, r6, r7, r8, r9, pc}
    huart->ErrorCode = HAL_UART_ERROR_NONE;
 8006198:	f04f 0800 	mov.w	r8, #0
 800619c:	461d      	mov	r5, r3
    huart->RxState = HAL_UART_STATE_BUSY_RX;
 800619e:	2322      	movs	r3, #34	@ 0x22
    huart->ErrorCode = HAL_UART_ERROR_NONE;
 80061a0:	f8c4 8084 	str.w	r8, [r4, #132]	@ 0x84
    huart->RxState = HAL_UART_STATE_BUSY_RX;
 80061a4:	f8c4 3080 	str.w	r3, [r4, #128]	@ 0x80
    huart->ReceptionType = HAL_UART_RECEPTION_STANDARD;
 80061a8:	f8c4 8060 	str.w	r8, [r4, #96]	@ 0x60
    tickstart = HAL_GetTick();
 80061ac:	f7fc fb72 	bl	8002894 <HAL_GetTick>
    UART_MASK_COMPUTATION(huart);
 80061b0:	68a3      	ldr	r3, [r4, #8]
    huart->RxXferSize  = Size;
 80061b2:	f8a4 6058 	strh.w	r6, [r4, #88]	@ 0x58
    UART_MASK_COMPUTATION(huart);
 80061b6:	f5b3 5f80 	cmp.w	r3, #4096	@ 0x1000
    huart->RxXferCount = Size;
 80061ba:	f8a4 605a 	strh.w	r6, [r4, #90]	@ 0x5a
    tickstart = HAL_GetTick();
 80061be:	4607      	mov	r7, r0
    UART_MASK_COMPUTATION(huart);
 80061c0:	d06c      	beq.n	800629c <HAL_UART_Receive+0x120>
 80061c2:	2b00      	cmp	r3, #0
 80061c4:	f040 8081 	bne.w	80062ca <HAL_UART_Receive+0x14e>
    uhMask = huart->Mask;
 80061c8:	4698      	mov	r8, r3
    UART_MASK_COMPUTATION(huart);
 80061ca:	6923      	ldr	r3, [r4, #16]
    uhMask = huart->Mask;
 80061cc:	2b00      	cmp	r3, #0
 80061ce:	bf0c      	ite	eq
 80061d0:	26ff      	moveq	r6, #255	@ 0xff
 80061d2:	267f      	movne	r6, #127	@ 0x7f
    while (huart->RxXferCount > 0U)
 80061d4:	f8b4 305a 	ldrh.w	r3, [r4, #90]	@ 0x5a
    UART_MASK_COMPUTATION(huart);
 80061d8:	f8a4 605c 	strh.w	r6, [r4, #92]	@ 0x5c
    while (huart->RxXferCount > 0U)
 80061dc:	b29b      	uxth	r3, r3
 80061de:	b1bb      	cbz	r3, 8006210 <HAL_UART_Receive+0x94>
 80061e0:	6823      	ldr	r3, [r4, #0]
 80061e2:	1c6a      	adds	r2, r5, #1
 80061e4:	d11d      	bne.n	8006222 <HAL_UART_Receive+0xa6>
  while ((__HAL_UART_GET_FLAG(huart, Flag) ? SET : RESET) == Status)
 80061e6:	69da      	ldr	r2, [r3, #28]
 80061e8:	0690      	lsls	r0, r2, #26
 80061ea:	d5fc      	bpl.n	80061e6 <HAL_UART_Receive+0x6a>
      if (pdata8bits == NULL)
 80061ec:	f1b9 0f00 	cmp.w	r9, #0
 80061f0:	d05b      	beq.n	80062aa <HAL_UART_Receive+0x12e>
        *pdata8bits = (uint8_t)(huart->Instance->RDR & (uint8_t)uhMask);
 80061f2:	8c9b      	ldrh	r3, [r3, #36]	@ 0x24
 80061f4:	4033      	ands	r3, r6
 80061f6:	f809 3b01 	strb.w	r3, [r9], #1
      huart->RxXferCount--;
 80061fa:	f8b4 305a 	ldrh.w	r3, [r4, #90]	@ 0x5a
 80061fe:	3b01      	subs	r3, #1
 8006200:	b29b      	uxth	r3, r3
 8006202:	f8a4 305a 	strh.w	r3, [r4, #90]	@ 0x5a
    while (huart->RxXferCount > 0U)
 8006206:	f8b4 305a 	ldrh.w	r3, [r4, #90]	@ 0x5a
 800620a:	b29b      	uxth	r3, r3
 800620c:	2b00      	cmp	r3, #0
 800620e:	d1e7      	bne.n	80061e0 <HAL_UART_Receive+0x64>
    huart->RxState = HAL_UART_STATE_READY;
 8006210:	2320      	movs	r3, #32
 8006212:	f8c4 3080 	str.w	r3, [r4, #128]	@ 0x80
    return HAL_OK;
 8006216:	2000      	movs	r0, #0
}
 8006218:	e8bd 83f8 	ldmia.w	sp!, {r3, r4, r5, r6, r7, r8, r9, pc}
    return HAL_BUSY;
 800621c:	2002      	movs	r0, #2
}
 800621e:	e8bd 83f8 	ldmia.w	sp!, {r3, r4, r5, r6, r7, r8, r9, pc}
  while ((__HAL_UART_GET_FLAG(huart, Flag) ? SET : RESET) == Status)
 8006222:	69da      	ldr	r2, [r3, #28]
 8006224:	0691      	lsls	r1, r2, #26
 8006226:	d4e1      	bmi.n	80061ec <HAL_UART_Receive+0x70>
      if (((HAL_GetTick() - Tickstart) > Timeout) || (Timeout == 0U))
 8006228:	f7fc fb34 	bl	8002894 <HAL_GetTick>
 800622c:	1bc0      	subs	r0, r0, r7
 800622e:	4285      	cmp	r5, r0
 8006230:	d32e      	bcc.n	8006290 <HAL_UART_Receive+0x114>
 8006232:	b36d      	cbz	r5, 8006290 <HAL_UART_Receive+0x114>
      if ((READ_BIT(huart->Instance->CR1, USART_CR1_RE) != 0U) && (Flag != UART_FLAG_TXE) && (Flag != UART_FLAG_TC))
 8006234:	6823      	ldr	r3, [r4, #0]
 8006236:	681a      	ldr	r2, [r3, #0]
 8006238:	0750      	lsls	r0, r2, #29
 800623a:	d5f2      	bpl.n	8006222 <HAL_UART_Receive+0xa6>
      {
        if (__HAL_UART_GET_FLAG(huart, UART_FLAG_ORE) == SET)
 800623c:	69da      	ldr	r2, [r3, #28]
 800623e:	0711      	lsls	r1, r2, #28
 8006240:	d459      	bmi.n	80062f6 <HAL_UART_Receive+0x17a>
          /* Process Unlocked */
          __HAL_UNLOCK(huart);

          return HAL_ERROR;
        }
        if (__HAL_UART_GET_FLAG(huart, UART_FLAG_RTOF) == SET)
 8006242:	69da      	ldr	r2, [r3, #28]
 8006244:	0512      	lsls	r2, r2, #20
 8006246:	d5ec      	bpl.n	8006222 <HAL_UART_Receive+0xa6>
        {
          /* Clear Receiver Timeout flag*/
          __HAL_UART_CLEAR_FLAG(huart, UART_CLEAR_RTOF);
 8006248:	f44f 6200 	mov.w	r2, #2048	@ 0x800
 800624c:	621a      	str	r2, [r3, #32]
   __ASM volatile ("ldrex %0, %1" : "=r" (result) : "Q" (*addr) );
 800624e:	e853 2f00 	ldrex	r2, [r3]
  /* Disable RXNE, PE and ERR (Frame error, noise error, overrun error) interrupts */
#if defined(USART_CR1_FIFOEN)
  ATOMIC_CLEAR_BIT(huart->Instance->CR1, (USART_CR1_RXNEIE_RXFNEIE | USART_CR1_PEIE));
  ATOMIC_CLEAR_BIT(huart->Instance->CR3, (USART_CR3_EIE | USART_CR3_RXFTIE));
#else
  ATOMIC_CLEAR_BIT(huart->Instance->CR1, (USART_CR1_RXNEIE | USART_CR1_PEIE));
 8006252:	f422 7290 	bic.w	r2, r2, #288	@ 0x120
   __ASM volatile ("strex %0, %2, %1" : "=&r" (result), "=Q" (*addr) : "r" (value) );
 8006256:	e843 2100 	strex	r1, r2, [r3]
 800625a:	2900      	cmp	r1, #0
 800625c:	d1f7      	bne.n	800624e <HAL_UART_Receive+0xd2>
   __ASM volatile ("ldrex %0, %1" : "=r" (result) : "Q" (*addr) );
 800625e:	f103 0208 	add.w	r2, r3, #8
 8006262:	e852 2f00 	ldrex	r2, [r2]
  ATOMIC_CLEAR_BIT(huart->Instance->CR3, USART_CR3_EIE);
 8006266:	f022 0201 	bic.w	r2, r2, #1
   __ASM volatile ("strex %0, %2, %1" : "=&r" (result), "=Q" (*addr) : "r" (value) );
 800626a:	f103 0008 	add.w	r0, r3, #8
 800626e:	e840 2100 	strex	r1, r2, [r0]
 8006272:	2900      	cmp	r1, #0
 8006274:	d1f3      	bne.n	800625e <HAL_UART_Receive+0xe2>
#endif /* USART_CR1_FIFOEN */

  /* In case of reception waiting for IDLE event, disable also the IDLE IE interrupt source */
  if (huart->ReceptionType == HAL_UART_RECEPTION_TOIDLE)
 8006276:	6e22      	ldr	r2, [r4, #96]	@ 0x60
 8006278:	2a01      	cmp	r2, #1
 800627a:	d02d      	beq.n	80062d8 <HAL_UART_Receive+0x15c>
    ATOMIC_CLEAR_BIT(huart->Instance->CR1, USART_CR1_IDLEIE);
  }

  /* At end of Rx process, restore huart->RxState to Ready */
  huart->RxState = HAL_UART_STATE_READY;
  huart->ReceptionType = HAL_UART_RECEPTION_STANDARD;
 800627c:	2300      	movs	r3, #0
  huart->RxState = HAL_UART_STATE_READY;
 800627e:	2220      	movs	r2, #32
 8006280:	f8c4 2080 	str.w	r2, [r4, #128]	@ 0x80

  /* Reset RxIsr function pointer */
  huart->RxISR = NULL;
 8006284:	66a3      	str	r3, [r4, #104]	@ 0x68
  huart->ReceptionType = HAL_UART_RECEPTION_STANDARD;
 8006286:	6623      	str	r3, [r4, #96]	@ 0x60
          __HAL_UNLOCK(huart);
 8006288:	f884 3078 	strb.w	r3, [r4, #120]	@ 0x78
          huart->ErrorCode = HAL_UART_ERROR_RTO;
 800628c:	f8c4 2084 	str.w	r2, [r4, #132]	@ 0x84
        huart->RxState = HAL_UART_STATE_READY;
 8006290:	2320      	movs	r3, #32
 8006292:	f8c4 3080 	str.w	r3, [r4, #128]	@ 0x80
        return HAL_TIMEOUT;
 8006296:	2003      	movs	r0, #3
}
 8006298:	e8bd 83f8 	ldmia.w	sp!, {r3, r4, r5, r6, r7, r8, r9, pc}
    UART_MASK_COMPUTATION(huart);
 800629c:	6923      	ldr	r3, [r4, #16]
 800629e:	b9cb      	cbnz	r3, 80062d4 <HAL_UART_Receive+0x158>
 80062a0:	46c8      	mov	r8, r9
    uhMask = huart->Mask;
 80062a2:	f240 16ff 	movw	r6, #511	@ 0x1ff
      pdata8bits  = NULL;
 80062a6:	4699      	mov	r9, r3
 80062a8:	e794      	b.n	80061d4 <HAL_UART_Receive+0x58>
        *pdata16bits = (uint16_t)(huart->Instance->RDR & uhMask);
 80062aa:	8c9a      	ldrh	r2, [r3, #36]	@ 0x24
 80062ac:	4032      	ands	r2, r6
 80062ae:	f828 2b02 	strh.w	r2, [r8], #2
      huart->RxXferCount--;
 80062b2:	f8b4 205a 	ldrh.w	r2, [r4, #90]	@ 0x5a
 80062b6:	3a01      	subs	r2, #1
 80062b8:	b292      	uxth	r2, r2
 80062ba:	f8a4 205a 	strh.w	r2, [r4, #90]	@ 0x5a
    while (huart->RxXferCount > 0U)
 80062be:	f8b4 205a 	ldrh.w	r2, [r4, #90]	@ 0x5a
 80062c2:	b292      	uxth	r2, r2
 80062c4:	2a00      	cmp	r2, #0
 80062c6:	d18c      	bne.n	80061e2 <HAL_UART_Receive+0x66>
 80062c8:	e7a2      	b.n	8006210 <HAL_UART_Receive+0x94>
    UART_MASK_COMPUTATION(huart);
 80062ca:	f1b3 5f80 	cmp.w	r3, #268435456	@ 0x10000000
 80062ce:	d00c      	beq.n	80062ea <HAL_UART_Receive+0x16e>
    uhMask = huart->Mask;
 80062d0:	4646      	mov	r6, r8
 80062d2:	e77f      	b.n	80061d4 <HAL_UART_Receive+0x58>
 80062d4:	26ff      	movs	r6, #255	@ 0xff
 80062d6:	e77d      	b.n	80061d4 <HAL_UART_Receive+0x58>
   __ASM volatile ("ldrex %0, %1" : "=r" (result) : "Q" (*addr) );
 80062d8:	e853 2f00 	ldrex	r2, [r3]
    ATOMIC_CLEAR_BIT(huart->Instance->CR1, USART_CR1_IDLEIE);
 80062dc:	f022 0210 	bic.w	r2, r2, #16
   __ASM volatile ("strex %0, %2, %1" : "=&r" (result), "=Q" (*addr) : "r" (value) );
 80062e0:	e843 2100 	strex	r1, r2, [r3]
 80062e4:	2900      	cmp	r1, #0
 80062e6:	d1f7      	bne.n	80062d8 <HAL_UART_Receive+0x15c>
 80062e8:	e7c8      	b.n	800627c <HAL_UART_Receive+0x100>
    UART_MASK_COMPUTATION(huart);
 80062ea:	6923      	ldr	r3, [r4, #16]
    uhMask = huart->Mask;
 80062ec:	2b00      	cmp	r3, #0
 80062ee:	bf14      	ite	ne
 80062f0:	263f      	movne	r6, #63	@ 0x3f
 80062f2:	267f      	moveq	r6, #127	@ 0x7f
 80062f4:	e76e      	b.n	80061d4 <HAL_UART_Receive+0x58>
          __HAL_UART_CLEAR_FLAG(huart, UART_CLEAR_OREF);
 80062f6:	2208      	movs	r2, #8
 80062f8:	621a      	str	r2, [r3, #32]
   __ASM volatile ("ldrex %0, %1" : "=r" (result) : "Q" (*addr) );
 80062fa:	e853 2f00 	ldrex	r2, [r3]
  ATOMIC_CLEAR_BIT(huart->Instance->CR1, (USART_CR1_RXNEIE | USART_CR1_PEIE));
 80062fe:	f422 7290 	bic.w	r2, r2, #288	@ 0x120
   __ASM volatile ("strex %0, %2, %1" : "=&r" (result), "=Q" (*addr) : "r" (value) );
 8006302:	e843 2100 	strex	r1, r2, [r3]
 8006306:	2900      	cmp	r1, #0
 8006308:	d1f7      	bne.n	80062fa <HAL_UART_Receive+0x17e>
   __ASM volatile ("ldrex %0, %1" : "=r" (result) : "Q" (*addr) );
 800630a:	f103 0208 	add.w	r2, r3, #8
 800630e:	e852 2f00 	ldrex	r2, [r2]
  ATOMIC_CLEAR_BIT(huart->Instance->CR3, USART_CR3_EIE);
 8006312:	f022 0201 	bic.w	r2, r2, #1
   __ASM volatile ("strex %0, %2, %1" : "=&r" (result), "=Q" (*addr) : "r" (value) );
 8006316:	f103 0008 	add.w	r0, r3, #8
 800631a:	e840 2100 	strex	r1, r2, [r0]
 800631e:	2900      	cmp	r1, #0
 8006320:	d1f3      	bne.n	800630a <HAL_UART_Receive+0x18e>
  if (huart->ReceptionType == HAL_UART_RECEPTION_TOIDLE)
 8006322:	6e22      	ldr	r2, [r4, #96]	@ 0x60
 8006324:	2a01      	cmp	r2, #1
 8006326:	d00b      	beq.n	8006340 <HAL_UART_Receive+0x1c4>
  huart->ReceptionType = HAL_UART_RECEPTION_STANDARD;
 8006328:	2300      	movs	r3, #0
  huart->RxState = HAL_UART_STATE_READY;
 800632a:	2120      	movs	r1, #32
          huart->ErrorCode = HAL_UART_ERROR_ORE;
 800632c:	2208      	movs	r2, #8
  huart->RxState = HAL_UART_STATE_READY;
 800632e:	f8c4 1080 	str.w	r1, [r4, #128]	@ 0x80
  huart->RxISR = NULL;
 8006332:	66a3      	str	r3, [r4, #104]	@ 0x68
  huart->ReceptionType = HAL_UART_RECEPTION_STANDARD;
 8006334:	6623      	str	r3, [r4, #96]	@ 0x60
          __HAL_UNLOCK(huart);
 8006336:	f884 3078 	strb.w	r3, [r4, #120]	@ 0x78
          huart->ErrorCode = HAL_UART_ERROR_ORE;
 800633a:	f8c4 2084 	str.w	r2, [r4, #132]	@ 0x84
          return HAL_ERROR;
 800633e:	e7a7      	b.n	8006290 <HAL_UART_Receive+0x114>
   __ASM volatile ("ldrex %0, %1" : "=r" (result) : "Q" (*addr) );
 8006340:	e853 2f00 	ldrex	r2, [r3]
    ATOMIC_CLEAR_BIT(huart->Instance->CR1, USART_CR1_IDLEIE);
 8006344:	f022 0210 	bic.w	r2, r2, #16
   __ASM volatile ("strex %0, %2, %1" : "=&r" (result), "=Q" (*addr) : "r" (value) );
 8006348:	e843 2100 	strex	r1, r2, [r3]
 800634c:	2900      	cmp	r1, #0
 800634e:	d1f7      	bne.n	8006340 <HAL_UART_Receive+0x1c4>
 8006350:	e7ea      	b.n	8006328 <HAL_UART_Receive+0x1ac>
 8006352:	bf00      	nop

08006354 <UART_SetConfig>:
{
 8006354:	b538      	push	{r3, r4, r5, lr}
 8006356:	4604      	mov	r4, r0
  if (UART_INSTANCE_LOWPOWER(huart))
 8006358:	6803      	ldr	r3, [r0, #0]
  tmpreg = (uint32_t)huart->Init.WordLength | huart->Init.Parity | huart->Init.Mode | huart->Init.OverSampling ;
 800635a:	6882      	ldr	r2, [r0, #8]
 800635c:	6900      	ldr	r0, [r0, #16]
 800635e:	6961      	ldr	r1, [r4, #20]
  MODIFY_REG(huart->Instance->CR1, USART_CR1_FIELDS, tmpreg);
 8006360:	681d      	ldr	r5, [r3, #0]
  tmpreg = (uint32_t)huart->Init.WordLength | huart->Init.Parity | huart->Init.Mode | huart->Init.OverSampling ;
 8006362:	4302      	orrs	r2, r0
 8006364:	430a      	orrs	r2, r1
 8006366:	69e0      	ldr	r0, [r4, #28]
  MODIFY_REG(huart->Instance->CR1, USART_CR1_FIELDS, tmpreg);
 8006368:	4981      	ldr	r1, [pc, #516]	@ (8006570 <UART_SetConfig+0x21c>)
  tmpreg = (uint32_t)huart->Init.WordLength | huart->Init.Parity | huart->Init.Mode | huart->Init.OverSampling ;
 800636a:	4302      	orrs	r2, r0
  MODIFY_REG(huart->Instance->CR1, USART_CR1_FIELDS, tmpreg);
 800636c:	4029      	ands	r1, r5
 800636e:	430a      	orrs	r2, r1
 8006370:	601a      	str	r2, [r3, #0]
  MODIFY_REG(huart->Instance->CR2, USART_CR2_STOP, huart->Init.StopBits);
 8006372:	685a      	ldr	r2, [r3, #4]
 8006374:	68e1      	ldr	r1, [r4, #12]
 8006376:	f422 5240 	bic.w	r2, r2, #12288	@ 0x3000
 800637a:	430a      	orrs	r2, r1
  if (!(UART_INSTANCE_LOWPOWER(huart)))
 800637c:	497d      	ldr	r1, [pc, #500]	@ (8006574 <UART_SetConfig+0x220>)
  MODIFY_REG(huart->Instance->CR2, USART_CR2_STOP, huart->Init.StopBits);
 800637e:	605a      	str	r2, [r3, #4]
  if (!(UART_INSTANCE_LOWPOWER(huart)))
 8006380:	428b      	cmp	r3, r1
  tmpreg = (uint32_t)huart->Init.HwFlowCtl;
 8006382:	69a2      	ldr	r2, [r4, #24]
  MODIFY_REG(huart->Instance->CR3, USART_CR3_FIELDS, tmpreg);
 8006384:	6899      	ldr	r1, [r3, #8]
  if (!(UART_INSTANCE_LOWPOWER(huart)))
 8006386:	d03f      	beq.n	8006408 <UART_SetConfig+0xb4>
    tmpreg |= huart->Init.OneBitSampling;
 8006388:	6a25      	ldr	r5, [r4, #32]
  MODIFY_REG(huart->Instance->CR3, USART_CR3_FIELDS, tmpreg);
 800638a:	f421 6130 	bic.w	r1, r1, #2816	@ 0xb00
    tmpreg |= huart->Init.OneBitSampling;
 800638e:	432a      	orrs	r2, r5
  MODIFY_REG(huart->Instance->CR3, USART_CR3_FIELDS, tmpreg);
 8006390:	430a      	orrs	r2, r1
  UART_GETCLOCKSOURCE(huart, clocksource);
 8006392:	4979      	ldr	r1, [pc, #484]	@ (8006578 <UART_SetConfig+0x224>)
  MODIFY_REG(huart->Instance->CR3, USART_CR3_FIELDS, tmpreg);
 8006394:	609a      	str	r2, [r3, #8]
  UART_GETCLOCKSOURCE(huart, clocksource);
 8006396:	428b      	cmp	r3, r1
 8006398:	d115      	bne.n	80063c6 <UART_SetConfig+0x72>
 800639a:	4b78      	ldr	r3, [pc, #480]	@ (800657c <UART_SetConfig+0x228>)
 800639c:	f8d3 3088 	ldr.w	r3, [r3, #136]	@ 0x88
 80063a0:	f003 0303 	and.w	r3, r3, #3
 80063a4:	2b02      	cmp	r3, #2
 80063a6:	f000 808d 	beq.w	80064c4 <UART_SetConfig+0x170>
 80063aa:	2b03      	cmp	r3, #3
 80063ac:	d077      	beq.n	800649e <UART_SetConfig+0x14a>
 80063ae:	2b01      	cmp	r3, #1
 80063b0:	d06d      	beq.n	800648e <UART_SetConfig+0x13a>
  else if (huart->Init.OverSampling == UART_OVERSAMPLING_8)
 80063b2:	f5b0 4f00 	cmp.w	r0, #32768	@ 0x8000
 80063b6:	f000 80cf 	beq.w	8006558 <UART_SetConfig+0x204>
        pclk = HAL_RCC_GetPCLK2Freq();
 80063ba:	f7fe fd79 	bl	8004eb0 <HAL_RCC_GetPCLK2Freq>
    if (pclk != 0U)
 80063be:	2800      	cmp	r0, #0
 80063c0:	d172      	bne.n	80064a8 <UART_SetConfig+0x154>
        pclk = (uint32_t) HSI_VALUE;
 80063c2:	2000      	movs	r0, #0
 80063c4:	e01c      	b.n	8006400 <UART_SetConfig+0xac>
  UART_GETCLOCKSOURCE(huart, clocksource);
 80063c6:	4a6e      	ldr	r2, [pc, #440]	@ (8006580 <UART_SetConfig+0x22c>)
 80063c8:	4293      	cmp	r3, r2
 80063ca:	d10f      	bne.n	80063ec <UART_SetConfig+0x98>
 80063cc:	4b6b      	ldr	r3, [pc, #428]	@ (800657c <UART_SetConfig+0x228>)
 80063ce:	f8d3 3088 	ldr.w	r3, [r3, #136]	@ 0x88
 80063d2:	f003 030c 	and.w	r3, r3, #12
 80063d6:	2b0c      	cmp	r3, #12
 80063d8:	d811      	bhi.n	80063fe <UART_SetConfig+0xaa>
 80063da:	e8df f003 	tbb	[pc, r3]
 80063de:	1082      	.short	0x1082
 80063e0:	10581010 	.word	0x10581010
 80063e4:	10731010 	.word	0x10731010
 80063e8:	1010      	.short	0x1010
 80063ea:	60          	.byte	0x60
 80063eb:	00          	.byte	0x00
 80063ec:	4a65      	ldr	r2, [pc, #404]	@ (8006584 <UART_SetConfig+0x230>)
 80063ee:	4293      	cmp	r3, r2
 80063f0:	d07d      	beq.n	80064ee <UART_SetConfig+0x19a>
 80063f2:	4a65      	ldr	r2, [pc, #404]	@ (8006588 <UART_SetConfig+0x234>)
 80063f4:	4293      	cmp	r3, r2
 80063f6:	d03f      	beq.n	8006478 <UART_SetConfig+0x124>
 80063f8:	4a64      	ldr	r2, [pc, #400]	@ (800658c <UART_SetConfig+0x238>)
 80063fa:	4293      	cmp	r3, r2
 80063fc:	d067      	beq.n	80064ce <UART_SetConfig+0x17a>
        ret = HAL_ERROR;
 80063fe:	2001      	movs	r0, #1
  huart->RxISR = NULL;
 8006400:	2300      	movs	r3, #0
 8006402:	e9c4 331a 	strd	r3, r3, [r4, #104]	@ 0x68
}
 8006406:	bd38      	pop	{r3, r4, r5, pc}
  MODIFY_REG(huart->Instance->CR3, USART_CR3_FIELDS, tmpreg);
 8006408:	f421 6130 	bic.w	r1, r1, #2816	@ 0xb00
  UART_GETCLOCKSOURCE(huart, clocksource);
 800640c:	485b      	ldr	r0, [pc, #364]	@ (800657c <UART_SetConfig+0x228>)
  MODIFY_REG(huart->Instance->CR3, USART_CR3_FIELDS, tmpreg);
 800640e:	430a      	orrs	r2, r1
 8006410:	609a      	str	r2, [r3, #8]
  UART_GETCLOCKSOURCE(huart, clocksource);
 8006412:	f8d0 3088 	ldr.w	r3, [r0, #136]	@ 0x88
 8006416:	f403 6340 	and.w	r3, r3, #3072	@ 0xc00
 800641a:	f5b3 6f00 	cmp.w	r3, #2048	@ 0x800
 800641e:	d07e      	beq.n	800651e <UART_SetConfig+0x1ca>
 8006420:	d807      	bhi.n	8006432 <UART_SetConfig+0xde>
 8006422:	b323      	cbz	r3, 800646e <UART_SetConfig+0x11a>
 8006424:	f5b3 6f80 	cmp.w	r3, #1024	@ 0x400
 8006428:	d1e9      	bne.n	80063fe <UART_SetConfig+0xaa>
        pclk = HAL_RCC_GetSysClockFreq();
 800642a:	f7fe f90d 	bl	8004648 <HAL_RCC_GetSysClockFreq>
    if (pclk != 0U)
 800642e:	b928      	cbnz	r0, 800643c <UART_SetConfig+0xe8>
 8006430:	e7c7      	b.n	80063c2 <UART_SetConfig+0x6e>
  UART_GETCLOCKSOURCE(huart, clocksource);
 8006432:	f5b3 6f40 	cmp.w	r3, #3072	@ 0xc00
 8006436:	d1e2      	bne.n	80063fe <UART_SetConfig+0xaa>
        pclk = (uint32_t) LSE_VALUE;
 8006438:	f44f 4000 	mov.w	r0, #32768	@ 0x8000
      if ((pclk < (3U * huart->Init.BaudRate)) ||
 800643c:	6862      	ldr	r2, [r4, #4]
 800643e:	eb02 0342 	add.w	r3, r2, r2, lsl #1
 8006442:	4283      	cmp	r3, r0
 8006444:	d8db      	bhi.n	80063fe <UART_SetConfig+0xaa>
 8006446:	ebb0 3f02 	cmp.w	r0, r2, lsl #12
 800644a:	d8d8      	bhi.n	80063fe <UART_SetConfig+0xaa>
        usartdiv = (uint32_t)(UART_DIV_LPUART(pclk, huart->Init.BaudRate));
 800644c:	0851      	lsrs	r1, r2, #1
 800644e:	2300      	movs	r3, #0
 8006450:	468c      	mov	ip, r1
 8006452:	f44f 7580 	mov.w	r5, #256	@ 0x100
 8006456:	4619      	mov	r1, r3
 8006458:	fbe0 c105 	umlal	ip, r1, r0, r5
 800645c:	4660      	mov	r0, ip
 800645e:	f7f9 ff17 	bl	8000290 <__aeabi_uldivmod>
        if ((usartdiv >= LPUART_BRR_MIN) && (usartdiv <= LPUART_BRR_MAX))
 8006462:	4b4b      	ldr	r3, [pc, #300]	@ (8006590 <UART_SetConfig+0x23c>)
 8006464:	f5a0 7240 	sub.w	r2, r0, #768	@ 0x300
 8006468:	429a      	cmp	r2, r3
 800646a:	d8c8      	bhi.n	80063fe <UART_SetConfig+0xaa>
 800646c:	e027      	b.n	80064be <UART_SetConfig+0x16a>
        pclk = HAL_RCC_GetPCLK1Freq();
 800646e:	f7fe fd0d 	bl	8004e8c <HAL_RCC_GetPCLK1Freq>
    if (pclk != 0U)
 8006472:	2800      	cmp	r0, #0
 8006474:	d1e2      	bne.n	800643c <UART_SetConfig+0xe8>
 8006476:	e7a4      	b.n	80063c2 <UART_SetConfig+0x6e>
  UART_GETCLOCKSOURCE(huart, clocksource);
 8006478:	4b40      	ldr	r3, [pc, #256]	@ (800657c <UART_SetConfig+0x228>)
 800647a:	f8d3 3088 	ldr.w	r3, [r3, #136]	@ 0x88
 800647e:	f003 03c0 	and.w	r3, r3, #192	@ 0xc0
 8006482:	2b80      	cmp	r3, #128	@ 0x80
 8006484:	d01e      	beq.n	80064c4 <UART_SetConfig+0x170>
 8006486:	d83f      	bhi.n	8006508 <UART_SetConfig+0x1b4>
 8006488:	b35b      	cbz	r3, 80064e2 <UART_SetConfig+0x18e>
 800648a:	2b40      	cmp	r3, #64	@ 0x40
 800648c:	d1b7      	bne.n	80063fe <UART_SetConfig+0xaa>
  else if (huart->Init.OverSampling == UART_OVERSAMPLING_8)
 800648e:	f5b0 4f00 	cmp.w	r0, #32768	@ 0x8000
 8006492:	d069      	beq.n	8006568 <UART_SetConfig+0x214>
        pclk = HAL_RCC_GetSysClockFreq();
 8006494:	f7fe f8d8 	bl	8004648 <HAL_RCC_GetSysClockFreq>
        break;
 8006498:	e791      	b.n	80063be <UART_SetConfig+0x6a>
  UART_GETCLOCKSOURCE(huart, clocksource);
 800649a:	2b30      	cmp	r3, #48	@ 0x30
 800649c:	d1af      	bne.n	80063fe <UART_SetConfig+0xaa>
  else if (huart->Init.OverSampling == UART_OVERSAMPLING_8)
 800649e:	f5b0 4f00 	cmp.w	r0, #32768	@ 0x8000
 80064a2:	d05e      	beq.n	8006562 <UART_SetConfig+0x20e>
        pclk = (uint32_t) LSE_VALUE;
 80064a4:	f44f 4000 	mov.w	r0, #32768	@ 0x8000
      usartdiv = (uint32_t)(UART_DIV_SAMPLING16(pclk, huart->Init.BaudRate));
 80064a8:	6863      	ldr	r3, [r4, #4]
      if ((usartdiv >= UART_BRR_MIN) && (usartdiv <= UART_BRR_MAX))
 80064aa:	f64f 72ef 	movw	r2, #65519	@ 0xffef
      usartdiv = (uint32_t)(UART_DIV_SAMPLING16(pclk, huart->Init.BaudRate));
 80064ae:	eb00 0053 	add.w	r0, r0, r3, lsr #1
 80064b2:	fbb0 f0f3 	udiv	r0, r0, r3
      if ((usartdiv >= UART_BRR_MIN) && (usartdiv <= UART_BRR_MAX))
 80064b6:	f1a0 0310 	sub.w	r3, r0, #16
 80064ba:	4293      	cmp	r3, r2
 80064bc:	d89f      	bhi.n	80063fe <UART_SetConfig+0xaa>
        huart->Instance->BRR = (uint16_t)usartdiv;
 80064be:	6823      	ldr	r3, [r4, #0]
 80064c0:	60d8      	str	r0, [r3, #12]
 80064c2:	e77e      	b.n	80063c2 <UART_SetConfig+0x6e>
  else if (huart->Init.OverSampling == UART_OVERSAMPLING_8)
 80064c4:	f5b0 4f00 	cmp.w	r0, #32768	@ 0x8000
 80064c8:	d049      	beq.n	800655e <UART_SetConfig+0x20a>
        pclk = (uint32_t) HSI_VALUE;
 80064ca:	4832      	ldr	r0, [pc, #200]	@ (8006594 <UART_SetConfig+0x240>)
 80064cc:	e7ec      	b.n	80064a8 <UART_SetConfig+0x154>
  UART_GETCLOCKSOURCE(huart, clocksource);
 80064ce:	4b2b      	ldr	r3, [pc, #172]	@ (800657c <UART_SetConfig+0x228>)
 80064d0:	f8d3 3088 	ldr.w	r3, [r3, #136]	@ 0x88
 80064d4:	f403 7340 	and.w	r3, r3, #768	@ 0x300
 80064d8:	f5b3 7f00 	cmp.w	r3, #512	@ 0x200
 80064dc:	d0f2      	beq.n	80064c4 <UART_SetConfig+0x170>
 80064de:	d81a      	bhi.n	8006516 <UART_SetConfig+0x1c2>
 80064e0:	b9ab      	cbnz	r3, 800650e <UART_SetConfig+0x1ba>
  else if (huart->Init.OverSampling == UART_OVERSAMPLING_8)
 80064e2:	f5b0 4f00 	cmp.w	r0, #32768	@ 0x8000
 80064e6:	d01c      	beq.n	8006522 <UART_SetConfig+0x1ce>
        pclk = HAL_RCC_GetPCLK1Freq();
 80064e8:	f7fe fcd0 	bl	8004e8c <HAL_RCC_GetPCLK1Freq>
        break;
 80064ec:	e767      	b.n	80063be <UART_SetConfig+0x6a>
  UART_GETCLOCKSOURCE(huart, clocksource);
 80064ee:	4b23      	ldr	r3, [pc, #140]	@ (800657c <UART_SetConfig+0x228>)
 80064f0:	f8d3 3088 	ldr.w	r3, [r3, #136]	@ 0x88
 80064f4:	f003 0330 	and.w	r3, r3, #48	@ 0x30
 80064f8:	2b20      	cmp	r3, #32
 80064fa:	d0e3      	beq.n	80064c4 <UART_SetConfig+0x170>
 80064fc:	d8cd      	bhi.n	800649a <UART_SetConfig+0x146>
 80064fe:	2b00      	cmp	r3, #0
 8006500:	d0ef      	beq.n	80064e2 <UART_SetConfig+0x18e>
 8006502:	2b10      	cmp	r3, #16
 8006504:	d0c3      	beq.n	800648e <UART_SetConfig+0x13a>
 8006506:	e77a      	b.n	80063fe <UART_SetConfig+0xaa>
 8006508:	2bc0      	cmp	r3, #192	@ 0xc0
 800650a:	d0c8      	beq.n	800649e <UART_SetConfig+0x14a>
 800650c:	e777      	b.n	80063fe <UART_SetConfig+0xaa>
 800650e:	f5b3 7f80 	cmp.w	r3, #256	@ 0x100
 8006512:	d0bc      	beq.n	800648e <UART_SetConfig+0x13a>
 8006514:	e773      	b.n	80063fe <UART_SetConfig+0xaa>
 8006516:	f5b3 7f40 	cmp.w	r3, #768	@ 0x300
 800651a:	d0c0      	beq.n	800649e <UART_SetConfig+0x14a>
 800651c:	e76f      	b.n	80063fe <UART_SetConfig+0xaa>
        pclk = (uint32_t) HSI_VALUE;
 800651e:	481d      	ldr	r0, [pc, #116]	@ (8006594 <UART_SetConfig+0x240>)
 8006520:	e78c      	b.n	800643c <UART_SetConfig+0xe8>
        pclk = HAL_RCC_GetPCLK1Freq();
 8006522:	f7fe fcb3 	bl	8004e8c <HAL_RCC_GetPCLK1Freq>
    if (pclk != 0U)
 8006526:	2800      	cmp	r0, #0
 8006528:	f43f af4b 	beq.w	80063c2 <UART_SetConfig+0x6e>
      usartdiv = (uint32_t)(UART_DIV_SAMPLING8(pclk, huart->Init.BaudRate));
 800652c:	0040      	lsls	r0, r0, #1
 800652e:	6863      	ldr	r3, [r4, #4]
      if ((usartdiv >= UART_BRR_MIN) && (usartdiv <= UART_BRR_MAX))
 8006530:	f64f 72ef 	movw	r2, #65519	@ 0xffef
      usartdiv = (uint32_t)(UART_DIV_SAMPLING8(pclk, huart->Init.BaudRate));
 8006534:	eb00 0053 	add.w	r0, r0, r3, lsr #1
 8006538:	fbb0 f3f3 	udiv	r3, r0, r3
      if ((usartdiv >= UART_BRR_MIN) && (usartdiv <= UART_BRR_MAX))
 800653c:	f1a3 0110 	sub.w	r1, r3, #16
 8006540:	4291      	cmp	r1, r2
 8006542:	f63f af5c 	bhi.w	80063fe <UART_SetConfig+0xaa>
        brrtemp = (uint16_t)(usartdiv & 0xFFF0U);
 8006546:	f023 020f 	bic.w	r2, r3, #15
        huart->Instance->BRR = brrtemp;
 800654a:	6821      	ldr	r1, [r4, #0]
        brrtemp = (uint16_t)(usartdiv & 0xFFF0U);
 800654c:	b292      	uxth	r2, r2
        brrtemp |= (uint16_t)((usartdiv & (uint16_t)0x000FU) >> 1U);
 800654e:	f3c3 0342 	ubfx	r3, r3, #1, #3
        huart->Instance->BRR = brrtemp;
 8006552:	4313      	orrs	r3, r2
 8006554:	60cb      	str	r3, [r1, #12]
 8006556:	e734      	b.n	80063c2 <UART_SetConfig+0x6e>
        pclk = HAL_RCC_GetPCLK2Freq();
 8006558:	f7fe fcaa 	bl	8004eb0 <HAL_RCC_GetPCLK2Freq>
        break;
 800655c:	e7e3      	b.n	8006526 <UART_SetConfig+0x1d2>
  else if (huart->Init.OverSampling == UART_OVERSAMPLING_8)
 800655e:	480e      	ldr	r0, [pc, #56]	@ (8006598 <UART_SetConfig+0x244>)
 8006560:	e7e5      	b.n	800652e <UART_SetConfig+0x1da>
 8006562:	f44f 3080 	mov.w	r0, #65536	@ 0x10000
 8006566:	e7e2      	b.n	800652e <UART_SetConfig+0x1da>
        pclk = HAL_RCC_GetSysClockFreq();
 8006568:	f7fe f86e 	bl	8004648 <HAL_RCC_GetSysClockFreq>
        break;
 800656c:	e7db      	b.n	8006526 <UART_SetConfig+0x1d2>
 800656e:	bf00      	nop
 8006570:	efff69f3 	.word	0xefff69f3
 8006574:	40008000 	.word	0x40008000
 8006578:	40013800 	.word	0x40013800
 800657c:	40021000 	.word	0x40021000
 8006580:	40004400 	.word	0x40004400
 8006584:	40004800 	.word	0x40004800
 8006588:	40004c00 	.word	0x40004c00
 800658c:	40005000 	.word	0x40005000
 8006590:	000ffcff 	.word	0x000ffcff
 8006594:	00f42400 	.word	0x00f42400
 8006598:	01e84800 	.word	0x01e84800

0800659c <UART_AdvFeatureConfig>:
  if (HAL_IS_BIT_SET(huart->AdvancedInit.AdvFeatureInit, UART_ADVFEATURE_SWAP_INIT))
 800659c:	6a43      	ldr	r3, [r0, #36]	@ 0x24
 800659e:	071a      	lsls	r2, r3, #28
{
 80065a0:	b410      	push	{r4}
  if (HAL_IS_BIT_SET(huart->AdvancedInit.AdvFeatureInit, UART_ADVFEATURE_SWAP_INIT))
 80065a2:	d506      	bpl.n	80065b2 <UART_AdvFeatureConfig+0x16>
    MODIFY_REG(huart->Instance->CR2, USART_CR2_SWAP, huart->AdvancedInit.Swap);
 80065a4:	6801      	ldr	r1, [r0, #0]
 80065a6:	6b44      	ldr	r4, [r0, #52]	@ 0x34
 80065a8:	684a      	ldr	r2, [r1, #4]
 80065aa:	f422 4200 	bic.w	r2, r2, #32768	@ 0x8000
 80065ae:	4322      	orrs	r2, r4
 80065b0:	604a      	str	r2, [r1, #4]
  if (HAL_IS_BIT_SET(huart->AdvancedInit.AdvFeatureInit, UART_ADVFEATURE_TXINVERT_INIT))
 80065b2:	07dc      	lsls	r4, r3, #31
 80065b4:	d506      	bpl.n	80065c4 <UART_AdvFeatureConfig+0x28>
    MODIFY_REG(huart->Instance->CR2, USART_CR2_TXINV, huart->AdvancedInit.TxPinLevelInvert);
 80065b6:	6801      	ldr	r1, [r0, #0]
 80065b8:	6a84      	ldr	r4, [r0, #40]	@ 0x28
 80065ba:	684a      	ldr	r2, [r1, #4]
 80065bc:	f422 3200 	bic.w	r2, r2, #131072	@ 0x20000
 80065c0:	4322      	orrs	r2, r4
 80065c2:	604a      	str	r2, [r1, #4]
  if (HAL_IS_BIT_SET(huart->AdvancedInit.AdvFeatureInit, UART_ADVFEATURE_RXINVERT_INIT))
 80065c4:	0799      	lsls	r1, r3, #30
 80065c6:	d506      	bpl.n	80065d6 <UART_AdvFeatureConfig+0x3a>
    MODIFY_REG(huart->Instance->CR2, USART_CR2_RXINV, huart->AdvancedInit.RxPinLevelInvert);
 80065c8:	6801      	ldr	r1, [r0, #0]
 80065ca:	6ac4      	ldr	r4, [r0, #44]	@ 0x2c
 80065cc:	684a      	ldr	r2, [r1, #4]
 80065ce:	f422 3280 	bic.w	r2, r2, #65536	@ 0x10000
 80065d2:	4322      	orrs	r2, r4
 80065d4:	604a      	str	r2, [r1, #4]
  if (HAL_IS_BIT_SET(huart->AdvancedInit.AdvFeatureInit, UART_ADVFEATURE_DATAINVERT_INIT))
 80065d6:	075a      	lsls	r2, r3, #29
 80065d8:	d506      	bpl.n	80065e8 <UART_AdvFeatureConfig+0x4c>
    MODIFY_REG(huart->Instance->CR2, USART_CR2_DATAINV, huart->AdvancedInit.DataInvert);
 80065da:	6801      	ldr	r1, [r0, #0]
 80065dc:	6b04      	ldr	r4, [r0, #48]	@ 0x30
 80065de:	684a      	ldr	r2, [r1, #4]
 80065e0:	f422 2280 	bic.w	r2, r2, #262144	@ 0x40000
 80065e4:	4322      	orrs	r2, r4
 80065e6:	604a      	str	r2, [r1, #4]
  if (HAL_IS_BIT_SET(huart->AdvancedInit.AdvFeatureInit, UART_ADVFEATURE_RXOVERRUNDISABLE_INIT))
 80065e8:	06dc      	lsls	r4, r3, #27
 80065ea:	d506      	bpl.n	80065fa <UART_AdvFeatureConfig+0x5e>
    MODIFY_REG(huart->Instance->CR3, USART_CR3_OVRDIS, huart->AdvancedInit.OverrunDisable);
 80065ec:	6801      	ldr	r1, [r0, #0]
 80065ee:	6b84      	ldr	r4, [r0, #56]	@ 0x38
 80065f0:	688a      	ldr	r2, [r1, #8]
 80065f2:	f422 5280 	bic.w	r2, r2, #4096	@ 0x1000
 80065f6:	4322      	orrs	r2, r4
 80065f8:	608a      	str	r2, [r1, #8]
  if (HAL_IS_BIT_SET(huart->AdvancedInit.AdvFeatureInit, UART_ADVFEATURE_DMADISABLEONERROR_INIT))
 80065fa:	0699      	lsls	r1, r3, #26
 80065fc:	d506      	bpl.n	800660c <UART_AdvFeatureConfig+0x70>
    MODIFY_REG(huart->Instance->CR3, USART_CR3_DDRE, huart->AdvancedInit.DMADisableonRxError);
 80065fe:	6801      	ldr	r1, [r0, #0]
 8006600:	6bc4      	ldr	r4, [r0, #60]	@ 0x3c
 8006602:	688a      	ldr	r2, [r1, #8]
 8006604:	f422 5200 	bic.w	r2, r2, #8192	@ 0x2000
 8006608:	4322      	orrs	r2, r4
 800660a:	608a      	str	r2, [r1, #8]
  if (HAL_IS_BIT_SET(huart->AdvancedInit.AdvFeatureInit, UART_ADVFEATURE_AUTOBAUDRATE_INIT))
 800660c:	065a      	lsls	r2, r3, #25
 800660e:	d509      	bpl.n	8006624 <UART_AdvFeatureConfig+0x88>
    MODIFY_REG(huart->Instance->CR2, USART_CR2_ABREN, huart->AdvancedInit.AutoBaudRateEnable);
 8006610:	6801      	ldr	r1, [r0, #0]
 8006612:	6c04      	ldr	r4, [r0, #64]	@ 0x40
 8006614:	684a      	ldr	r2, [r1, #4]
 8006616:	f422 1280 	bic.w	r2, r2, #1048576	@ 0x100000
 800661a:	4322      	orrs	r2, r4
    if (huart->AdvancedInit.AutoBaudRateEnable == UART_ADVFEATURE_AUTOBAUDRATE_ENABLE)
 800661c:	f5b4 1f80 	cmp.w	r4, #1048576	@ 0x100000
    MODIFY_REG(huart->Instance->CR2, USART_CR2_ABREN, huart->AdvancedInit.AutoBaudRateEnable);
 8006620:	604a      	str	r2, [r1, #4]
    if (huart->AdvancedInit.AutoBaudRateEnable == UART_ADVFEATURE_AUTOBAUDRATE_ENABLE)
 8006622:	d00b      	beq.n	800663c <UART_AdvFeatureConfig+0xa0>
  if (HAL_IS_BIT_SET(huart->AdvancedInit.AdvFeatureInit, UART_ADVFEATURE_MSBFIRST_INIT))
 8006624:	061b      	lsls	r3, r3, #24
 8006626:	d506      	bpl.n	8006636 <UART_AdvFeatureConfig+0x9a>
    MODIFY_REG(huart->Instance->CR2, USART_CR2_MSBFIRST, huart->AdvancedInit.MSBFirst);
 8006628:	6802      	ldr	r2, [r0, #0]
 800662a:	6c81      	ldr	r1, [r0, #72]	@ 0x48
 800662c:	6853      	ldr	r3, [r2, #4]
 800662e:	f423 2300 	bic.w	r3, r3, #524288	@ 0x80000
 8006632:	430b      	orrs	r3, r1
 8006634:	6053      	str	r3, [r2, #4]
}
 8006636:	f85d 4b04 	ldr.w	r4, [sp], #4
 800663a:	4770      	bx	lr
      MODIFY_REG(huart->Instance->CR2, USART_CR2_ABRMODE, huart->AdvancedInit.AutoBaudRateMode);
 800663c:	684a      	ldr	r2, [r1, #4]
 800663e:	6c44      	ldr	r4, [r0, #68]	@ 0x44
 8006640:	f422 02c0 	bic.w	r2, r2, #6291456	@ 0x600000
 8006644:	4322      	orrs	r2, r4
 8006646:	604a      	str	r2, [r1, #4]
 8006648:	e7ec      	b.n	8006624 <UART_AdvFeatureConfig+0x88>
 800664a:	bf00      	nop

0800664c <UART_CheckIdleState>:
{
 800664c:	b538      	push	{r3, r4, r5, lr}
  huart->ErrorCode = HAL_UART_ERROR_NONE;
 800664e:	2300      	movs	r3, #0
{
 8006650:	4604      	mov	r4, r0
  huart->ErrorCode = HAL_UART_ERROR_NONE;
 8006652:	f8c0 3084 	str.w	r3, [r0, #132]	@ 0x84
  tickstart = HAL_GetTick();
 8006656:	f7fc f91d 	bl	8002894 <HAL_GetTick>
  if ((huart->Instance->CR1 & USART_CR1_TE) == USART_CR1_TE)
 800665a:	6822      	ldr	r2, [r4, #0]
 800665c:	6813      	ldr	r3, [r2, #0]
 800665e:	071b      	lsls	r3, r3, #28
  tickstart = HAL_GetTick();
 8006660:	4605      	mov	r5, r0
  if ((huart->Instance->CR1 & USART_CR1_TE) == USART_CR1_TE)
 8006662:	d40e      	bmi.n	8006682 <UART_CheckIdleState+0x36>
  if ((huart->Instance->CR1 & USART_CR1_RE) == USART_CR1_RE)
 8006664:	6813      	ldr	r3, [r2, #0]
 8006666:	0759      	lsls	r1, r3, #29
 8006668:	d42f      	bmi.n	80066ca <UART_CheckIdleState+0x7e>
  huart->ReceptionType = HAL_UART_RECEPTION_STANDARD;
 800666a:	2300      	movs	r3, #0
  huart->gState = HAL_UART_STATE_READY;
 800666c:	2220      	movs	r2, #32
 800666e:	67e2      	str	r2, [r4, #124]	@ 0x7c
  return HAL_OK;
 8006670:	4618      	mov	r0, r3
  huart->RxState = HAL_UART_STATE_READY;
 8006672:	f8c4 2080 	str.w	r2, [r4, #128]	@ 0x80
  huart->ReceptionType = HAL_UART_RECEPTION_STANDARD;
 8006676:	6623      	str	r3, [r4, #96]	@ 0x60
  huart->RxEventType = HAL_UART_RXEVENT_TC;
 8006678:	6663      	str	r3, [r4, #100]	@ 0x64
      __HAL_UNLOCK(huart);
 800667a:	2300      	movs	r3, #0
 800667c:	f884 3078 	strb.w	r3, [r4, #120]	@ 0x78
}
 8006680:	bd38      	pop	{r3, r4, r5, pc}
  while ((__HAL_UART_GET_FLAG(huart, Flag) ? SET : RESET) == Status)
 8006682:	69d3      	ldr	r3, [r2, #28]
 8006684:	0298      	lsls	r0, r3, #10
 8006686:	d4ed      	bmi.n	8006664 <UART_CheckIdleState+0x18>
 8006688:	e00c      	b.n	80066a4 <UART_CheckIdleState+0x58>
      if ((READ_BIT(huart->Instance->CR1, USART_CR1_RE) != 0U) && (Flag != UART_FLAG_TXE) && (Flag != UART_FLAG_TC))
 800668a:	6819      	ldr	r1, [r3, #0]
 800668c:	0749      	lsls	r1, r1, #29
 800668e:	461a      	mov	r2, r3
 8006690:	d505      	bpl.n	800669e <UART_CheckIdleState+0x52>
        if (__HAL_UART_GET_FLAG(huart, UART_FLAG_ORE) == SET)
 8006692:	69d9      	ldr	r1, [r3, #28]
 8006694:	0708      	lsls	r0, r1, #28
 8006696:	d449      	bmi.n	800672c <UART_CheckIdleState+0xe0>
        if (__HAL_UART_GET_FLAG(huart, UART_FLAG_RTOF) == SET)
 8006698:	69d9      	ldr	r1, [r3, #28]
 800669a:	0509      	lsls	r1, r1, #20
 800669c:	d474      	bmi.n	8006788 <UART_CheckIdleState+0x13c>
  while ((__HAL_UART_GET_FLAG(huart, Flag) ? SET : RESET) == Status)
 800669e:	69db      	ldr	r3, [r3, #28]
 80066a0:	0298      	lsls	r0, r3, #10
 80066a2:	d4df      	bmi.n	8006664 <UART_CheckIdleState+0x18>
      if (((HAL_GetTick() - Tickstart) > Timeout) || (Timeout == 0U))
 80066a4:	f7fc f8f6 	bl	8002894 <HAL_GetTick>
 80066a8:	1b43      	subs	r3, r0, r5
 80066aa:	f1b3 7f00 	cmp.w	r3, #33554432	@ 0x2000000
      if ((READ_BIT(huart->Instance->CR1, USART_CR1_RE) != 0U) && (Flag != UART_FLAG_TXE) && (Flag != UART_FLAG_TC))
 80066ae:	6823      	ldr	r3, [r4, #0]
      if (((HAL_GetTick() - Tickstart) > Timeout) || (Timeout == 0U))
 80066b0:	d3eb      	bcc.n	800668a <UART_CheckIdleState+0x3e>
   __ASM volatile ("ldrex %0, %1" : "=r" (result) : "Q" (*addr) );
 80066b2:	e853 2f00 	ldrex	r2, [r3]
      ATOMIC_CLEAR_BIT(huart->Instance->CR1, (USART_CR1_TXEIE));
 80066b6:	f022 0280 	bic.w	r2, r2, #128	@ 0x80
   __ASM volatile ("strex %0, %2, %1" : "=&r" (result), "=Q" (*addr) : "r" (value) );
 80066ba:	e843 2100 	strex	r1, r2, [r3]
 80066be:	2900      	cmp	r1, #0
 80066c0:	d1f7      	bne.n	80066b2 <UART_CheckIdleState+0x66>
      huart->gState = HAL_UART_STATE_READY;
 80066c2:	2320      	movs	r3, #32
 80066c4:	67e3      	str	r3, [r4, #124]	@ 0x7c
      return HAL_TIMEOUT;
 80066c6:	2003      	movs	r0, #3
 80066c8:	e7d7      	b.n	800667a <UART_CheckIdleState+0x2e>
  while ((__HAL_UART_GET_FLAG(huart, Flag) ? SET : RESET) == Status)
 80066ca:	69d3      	ldr	r3, [r2, #28]
 80066cc:	025b      	lsls	r3, r3, #9
 80066ce:	d4cc      	bmi.n	800666a <UART_CheckIdleState+0x1e>
 80066d0:	e00d      	b.n	80066ee <UART_CheckIdleState+0xa2>
      if ((READ_BIT(huart->Instance->CR1, USART_CR1_RE) != 0U) && (Flag != UART_FLAG_TXE) && (Flag != UART_FLAG_TC))
 80066d2:	681a      	ldr	r2, [r3, #0]
 80066d4:	0750      	lsls	r0, r2, #29
 80066d6:	d507      	bpl.n	80066e8 <UART_CheckIdleState+0x9c>
        if (__HAL_UART_GET_FLAG(huart, UART_FLAG_ORE) == SET)
 80066d8:	69da      	ldr	r2, [r3, #28]
 80066da:	0711      	lsls	r1, r2, #28
 80066dc:	f100 8082 	bmi.w	80067e4 <UART_CheckIdleState+0x198>
        if (__HAL_UART_GET_FLAG(huart, UART_FLAG_RTOF) == SET)
 80066e0:	69da      	ldr	r2, [r3, #28]
 80066e2:	0512      	lsls	r2, r2, #20
 80066e4:	f100 80ac 	bmi.w	8006840 <UART_CheckIdleState+0x1f4>
  while ((__HAL_UART_GET_FLAG(huart, Flag) ? SET : RESET) == Status)
 80066e8:	69db      	ldr	r3, [r3, #28]
 80066ea:	025b      	lsls	r3, r3, #9
 80066ec:	d4bd      	bmi.n	800666a <UART_CheckIdleState+0x1e>
      if (((HAL_GetTick() - Tickstart) > Timeout) || (Timeout == 0U))
 80066ee:	f7fc f8d1 	bl	8002894 <HAL_GetTick>
 80066f2:	1b43      	subs	r3, r0, r5
 80066f4:	f1b3 7f00 	cmp.w	r3, #33554432	@ 0x2000000
 80066f8:	6823      	ldr	r3, [r4, #0]
 80066fa:	d3ea      	bcc.n	80066d2 <UART_CheckIdleState+0x86>
   __ASM volatile ("ldrex %0, %1" : "=r" (result) : "Q" (*addr) );
 80066fc:	e853 2f00 	ldrex	r2, [r3]
      ATOMIC_CLEAR_BIT(huart->Instance->CR1, (USART_CR1_RXNEIE | USART_CR1_PEIE));
 8006700:	f422 7290 	bic.w	r2, r2, #288	@ 0x120
   __ASM volatile ("strex %0, %2, %1" : "=&r" (result), "=Q" (*addr) : "r" (value) );
 8006704:	e843 2100 	strex	r1, r2, [r3]
 8006708:	2900      	cmp	r1, #0
 800670a:	d1f7      	bne.n	80066fc <UART_CheckIdleState+0xb0>
   __ASM volatile ("ldrex %0, %1" : "=r" (result) : "Q" (*addr) );
 800670c:	f103 0208 	add.w	r2, r3, #8
 8006710:	e852 2f00 	ldrex	r2, [r2]
      ATOMIC_CLEAR_BIT(huart->Instance->CR3, USART_CR3_EIE);
 8006714:	f022 0201 	bic.w	r2, r2, #1
   __ASM volatile ("strex %0, %2, %1" : "=&r" (result), "=Q" (*addr) : "r" (value) );
 8006718:	f103 0008 	add.w	r0, r3, #8
 800671c:	e840 2100 	strex	r1, r2, [r0]
 8006720:	2900      	cmp	r1, #0
 8006722:	d1f3      	bne.n	800670c <UART_CheckIdleState+0xc0>
      huart->RxState = HAL_UART_STATE_READY;
 8006724:	2320      	movs	r3, #32
 8006726:	f8c4 3080 	str.w	r3, [r4, #128]	@ 0x80
      return HAL_TIMEOUT;
 800672a:	e7cc      	b.n	80066c6 <UART_CheckIdleState+0x7a>
          __HAL_UART_CLEAR_FLAG(huart, UART_CLEAR_OREF);
 800672c:	2208      	movs	r2, #8
 800672e:	621a      	str	r2, [r3, #32]
   __ASM volatile ("ldrex %0, %1" : "=r" (result) : "Q" (*addr) );
 8006730:	e853 2f00 	ldrex	r2, [r3]
  ATOMIC_CLEAR_BIT(huart->Instance->CR1, (USART_CR1_RXNEIE | USART_CR1_PEIE));
 8006734:	f422 7290 	bic.w	r2, r2, #288	@ 0x120
   __ASM volatile ("strex %0, %2, %1" : "=&r" (result), "=Q" (*addr) : "r" (value) );
 8006738:	e843 2100 	strex	r1, r2, [r3]
 800673c:	2900      	cmp	r1, #0
 800673e:	d1f7      	bne.n	8006730 <UART_CheckIdleState+0xe4>
   __ASM volatile ("ldrex %0, %1" : "=r" (result) : "Q" (*addr) );
 8006740:	f103 0208 	add.w	r2, r3, #8
 8006744:	e852 2f00 	ldrex	r2, [r2]
  ATOMIC_CLEAR_BIT(huart->Instance->CR3, USART_CR3_EIE);
 8006748:	f022 0201 	bic.w	r2, r2, #1
   __ASM volatile ("strex %0, %2, %1" : "=&r" (result), "=Q" (*addr) : "r" (value) );
 800674c:	f103 0008 	add.w	r0, r3, #8
 8006750:	e840 2100 	strex	r1, r2, [r0]
 8006754:	2900      	cmp	r1, #0
 8006756:	d1f3      	bne.n	8006740 <UART_CheckIdleState+0xf4>
  if (huart->ReceptionType == HAL_UART_RECEPTION_TOIDLE)
 8006758:	6e22      	ldr	r2, [r4, #96]	@ 0x60
 800675a:	2a01      	cmp	r2, #1
 800675c:	d00b      	beq.n	8006776 <UART_CheckIdleState+0x12a>
  huart->ReceptionType = HAL_UART_RECEPTION_STANDARD;
 800675e:	2200      	movs	r2, #0
  huart->RxState = HAL_UART_STATE_READY;
 8006760:	2020      	movs	r0, #32
          huart->ErrorCode = HAL_UART_ERROR_ORE;
 8006762:	2108      	movs	r1, #8
  huart->RxState = HAL_UART_STATE_READY;
 8006764:	f8c4 0080 	str.w	r0, [r4, #128]	@ 0x80
  huart->RxISR = NULL;
 8006768:	66a2      	str	r2, [r4, #104]	@ 0x68
  huart->ReceptionType = HAL_UART_RECEPTION_STANDARD;
 800676a:	6622      	str	r2, [r4, #96]	@ 0x60
          __HAL_UNLOCK(huart);
 800676c:	f884 2078 	strb.w	r2, [r4, #120]	@ 0x78
          huart->ErrorCode = HAL_UART_ERROR_ORE;
 8006770:	f8c4 1084 	str.w	r1, [r4, #132]	@ 0x84
          return HAL_ERROR;
 8006774:	e79d      	b.n	80066b2 <UART_CheckIdleState+0x66>
   __ASM volatile ("ldrex %0, %1" : "=r" (result) : "Q" (*addr) );
 8006776:	e853 2f00 	ldrex	r2, [r3]
    ATOMIC_CLEAR_BIT(huart->Instance->CR1, USART_CR1_IDLEIE);
 800677a:	f022 0210 	bic.w	r2, r2, #16
   __ASM volatile ("strex %0, %2, %1" : "=&r" (result), "=Q" (*addr) : "r" (value) );
 800677e:	e843 2100 	strex	r1, r2, [r3]
 8006782:	2900      	cmp	r1, #0
 8006784:	d1f7      	bne.n	8006776 <UART_CheckIdleState+0x12a>
 8006786:	e7ea      	b.n	800675e <UART_CheckIdleState+0x112>
          __HAL_UART_CLEAR_FLAG(huart, UART_CLEAR_RTOF);
 8006788:	f44f 6200 	mov.w	r2, #2048	@ 0x800
 800678c:	621a      	str	r2, [r3, #32]
   __ASM volatile ("ldrex %0, %1" : "=r" (result) : "Q" (*addr) );
 800678e:	e853 2f00 	ldrex	r2, [r3]
  ATOMIC_CLEAR_BIT(huart->Instance->CR1, (USART_CR1_RXNEIE | USART_CR1_PEIE));
 8006792:	f422 7290 	bic.w	r2, r2, #288	@ 0x120
   __ASM volatile ("strex %0, %2, %1" : "=&r" (result), "=Q" (*addr) : "r" (value) );
 8006796:	e843 2100 	strex	r1, r2, [r3]
 800679a:	2900      	cmp	r1, #0
 800679c:	d1f7      	bne.n	800678e <UART_CheckIdleState+0x142>
   __ASM volatile ("ldrex %0, %1" : "=r" (result) : "Q" (*addr) );
 800679e:	f103 0208 	add.w	r2, r3, #8
 80067a2:	e852 2f00 	ldrex	r2, [r2]
  ATOMIC_CLEAR_BIT(huart->Instance->CR3, USART_CR3_EIE);
 80067a6:	f022 0201 	bic.w	r2, r2, #1
   __ASM volatile ("strex %0, %2, %1" : "=&r" (result), "=Q" (*addr) : "r" (value) );
 80067aa:	f103 0008 	add.w	r0, r3, #8
 80067ae:	e840 2100 	strex	r1, r2, [r0]
 80067b2:	2900      	cmp	r1, #0
 80067b4:	d1f3      	bne.n	800679e <UART_CheckIdleState+0x152>
  if (huart->ReceptionType == HAL_UART_RECEPTION_TOIDLE)
 80067b6:	6e22      	ldr	r2, [r4, #96]	@ 0x60
 80067b8:	2a01      	cmp	r2, #1
 80067ba:	d00a      	beq.n	80067d2 <UART_CheckIdleState+0x186>
  huart->ReceptionType = HAL_UART_RECEPTION_STANDARD;
 80067bc:	2200      	movs	r2, #0
  huart->RxState = HAL_UART_STATE_READY;
 80067be:	2120      	movs	r1, #32
 80067c0:	f8c4 1080 	str.w	r1, [r4, #128]	@ 0x80
  huart->RxISR = NULL;
 80067c4:	66a2      	str	r2, [r4, #104]	@ 0x68
  huart->ReceptionType = HAL_UART_RECEPTION_STANDARD;
 80067c6:	6622      	str	r2, [r4, #96]	@ 0x60
          __HAL_UNLOCK(huart);
 80067c8:	f884 2078 	strb.w	r2, [r4, #120]	@ 0x78
          huart->ErrorCode = HAL_UART_ERROR_RTO;
 80067cc:	f8c4 1084 	str.w	r1, [r4, #132]	@ 0x84
          return HAL_TIMEOUT;
 80067d0:	e76f      	b.n	80066b2 <UART_CheckIdleState+0x66>
   __ASM volatile ("ldrex %0, %1" : "=r" (result) : "Q" (*addr) );
 80067d2:	e853 2f00 	ldrex	r2, [r3]
    ATOMIC_CLEAR_BIT(huart->Instance->CR1, USART_CR1_IDLEIE);
 80067d6:	f022 0210 	bic.w	r2, r2, #16
   __ASM volatile ("strex %0, %2, %1" : "=&r" (result), "=Q" (*addr) : "r" (value) );
 80067da:	e843 2100 	strex	r1, r2, [r3]
 80067de:	2900      	cmp	r1, #0
 80067e0:	d1f7      	bne.n	80067d2 <UART_CheckIdleState+0x186>
 80067e2:	e7eb      	b.n	80067bc <UART_CheckIdleState+0x170>
          __HAL_UART_CLEAR_FLAG(huart, UART_CLEAR_OREF);
 80067e4:	2208      	movs	r2, #8
 80067e6:	621a      	str	r2, [r3, #32]
   __ASM volatile ("ldrex %0, %1" : "=r" (result) : "Q" (*addr) );
 80067e8:	e853 2f00 	ldrex	r2, [r3]
  ATOMIC_CLEAR_BIT(huart->Instance->CR1, (USART_CR1_RXNEIE | USART_CR1_PEIE));
 80067ec:	f422 7290 	bic.w	r2, r2, #288	@ 0x120
   __ASM volatile ("strex %0, %2, %1" : "=&r" (result), "=Q" (*addr) : "r" (value) );
 80067f0:	e843 2100 	strex	r1, r2, [r3]
 80067f4:	2900      	cmp	r1, #0
 80067f6:	d1f7      	bne.n	80067e8 <UART_CheckIdleState+0x19c>
   __ASM volatile ("ldrex %0, %1" : "=r" (result) : "Q" (*addr) );
 80067f8:	f103 0208 	add.w	r2, r3, #8
 80067fc:	e852 2f00 	ldrex	r2, [r2]
  ATOMIC_CLEAR_BIT(huart->Instance->CR3, USART_CR3_EIE);
 8006800:	f022 0201 	bic.w	r2, r2, #1
   __ASM volatile ("strex %0, %2, %1" : "=&r" (result), "=Q" (*addr) : "r" (value) );
 8006804:	f103 0008 	add.w	r0, r3, #8
 8006808:	e840 2100 	strex	r1, r2, [r0]
 800680c:	2900      	cmp	r1, #0
 800680e:	d1f3      	bne.n	80067f8 <UART_CheckIdleState+0x1ac>
  if (huart->ReceptionType == HAL_UART_RECEPTION_TOIDLE)
 8006810:	6e22      	ldr	r2, [r4, #96]	@ 0x60
 8006812:	2a01      	cmp	r2, #1
 8006814:	d00b      	beq.n	800682e <UART_CheckIdleState+0x1e2>
  huart->ReceptionType = HAL_UART_RECEPTION_STANDARD;
 8006816:	2200      	movs	r2, #0
  huart->RxState = HAL_UART_STATE_READY;
 8006818:	2020      	movs	r0, #32
          huart->ErrorCode = HAL_UART_ERROR_ORE;
 800681a:	2108      	movs	r1, #8
  huart->RxState = HAL_UART_STATE_READY;
 800681c:	f8c4 0080 	str.w	r0, [r4, #128]	@ 0x80
  huart->RxISR = NULL;
 8006820:	66a2      	str	r2, [r4, #104]	@ 0x68
  huart->ReceptionType = HAL_UART_RECEPTION_STANDARD;
 8006822:	6622      	str	r2, [r4, #96]	@ 0x60
          __HAL_UNLOCK(huart);
 8006824:	f884 2078 	strb.w	r2, [r4, #120]	@ 0x78
          huart->ErrorCode = HAL_UART_ERROR_ORE;
 8006828:	f8c4 1084 	str.w	r1, [r4, #132]	@ 0x84
          return HAL_ERROR;
 800682c:	e766      	b.n	80066fc <UART_CheckIdleState+0xb0>
   __ASM volatile ("ldrex %0, %1" : "=r" (result) : "Q" (*addr) );
 800682e:	e853 2f00 	ldrex	r2, [r3]
    ATOMIC_CLEAR_BIT(huart->Instance->CR1, USART_CR1_IDLEIE);
 8006832:	f022 0210 	bic.w	r2, r2, #16
   __ASM volatile ("strex %0, %2, %1" : "=&r" (result), "=Q" (*addr) : "r" (value) );
 8006836:	e843 2100 	strex	r1, r2, [r3]
 800683a:	2900      	cmp	r1, #0
 800683c:	d1f7      	bne.n	800682e <UART_CheckIdleState+0x1e2>
 800683e:	e7ea      	b.n	8006816 <UART_CheckIdleState+0x1ca>
          __HAL_UART_CLEAR_FLAG(huart, UART_CLEAR_RTOF);
 8006840:	f44f 6200 	mov.w	r2, #2048	@ 0x800
 8006844:	621a      	str	r2, [r3, #32]
   __ASM volatile ("ldrex %0, %1" : "=r" (result) : "Q" (*addr) );
 8006846:	e853 2f00 	ldrex	r2, [r3]
  ATOMIC_CLEAR_BIT(huart->Instance->CR1, (USART_CR1_RXNEIE | USART_CR1_PEIE));
 800684a:	f422 7290 	bic.w	r2, r2, #288	@ 0x120
   __ASM volatile ("strex %0, %2, %1" : "=&r" (result), "=Q" (*addr) : "r" (value) );
 800684e:	e843 2100 	strex	r1, r2, [r3]
 8006852:	2900      	cmp	r1, #0
 8006854:	d1f7      	bne.n	8006846 <UART_CheckIdleState+0x1fa>
   __ASM volatile ("ldrex %0, %1" : "=r" (result) : "Q" (*addr) );
 8006856:	f103 0208 	add.w	r2, r3, #8
 800685a:	e852 2f00 	ldrex	r2, [r2]
  ATOMIC_CLEAR_BIT(huart->Instance->CR3, USART_CR3_EIE);
 800685e:	f022 0201 	bic.w	r2, r2, #1
   __ASM volatile ("strex %0, %2, %1" : "=&r" (result), "=Q" (*addr) : "r" (value) );
 8006862:	f103 0008 	add.w	r0, r3, #8
 8006866:	e840 2100 	strex	r1, r2, [r0]
 800686a:	2900      	cmp	r1, #0
 800686c:	d1f3      	bne.n	8006856 <UART_CheckIdleState+0x20a>
  if (huart->ReceptionType == HAL_UART_RECEPTION_TOIDLE)
 800686e:	6e22      	ldr	r2, [r4, #96]	@ 0x60
 8006870:	2a01      	cmp	r2, #1
 8006872:	d00a      	beq.n	800688a <UART_CheckIdleState+0x23e>
  huart->ReceptionType = HAL_UART_RECEPTION_STANDARD;
 8006874:	2200      	movs	r2, #0
  huart->RxState = HAL_UART_STATE_READY;
 8006876:	2120      	movs	r1, #32
 8006878:	f8c4 1080 	str.w	r1, [r4, #128]	@ 0x80
  huart->RxISR = NULL;
 800687c:	66a2      	str	r2, [r4, #104]	@ 0x68
  huart->ReceptionType = HAL_UART_RECEPTION_STANDARD;
 800687e:	6622      	str	r2, [r4, #96]	@ 0x60
          __HAL_UNLOCK(huart);
 8006880:	f884 2078 	strb.w	r2, [r4, #120]	@ 0x78
          huart->ErrorCode = HAL_UART_ERROR_RTO;
 8006884:	f8c4 1084 	str.w	r1, [r4, #132]	@ 0x84
          return HAL_TIMEOUT;
 8006888:	e738      	b.n	80066fc <UART_CheckIdleState+0xb0>
   __ASM volatile ("ldrex %0, %1" : "=r" (result) : "Q" (*addr) );
 800688a:	e853 2f00 	ldrex	r2, [r3]
    ATOMIC_CLEAR_BIT(huart->Instance->CR1, USART_CR1_IDLEIE);
 800688e:	f022 0210 	bic.w	r2, r2, #16
   __ASM volatile ("strex %0, %2, %1" : "=&r" (result), "=Q" (*addr) : "r" (value) );
 8006892:	e843 2100 	strex	r1, r2, [r3]
 8006896:	2900      	cmp	r1, #0
 8006898:	d1f7      	bne.n	800688a <UART_CheckIdleState+0x23e>
 800689a:	e7eb      	b.n	8006874 <UART_CheckIdleState+0x228>

0800689c <HAL_UART_Init>:
  if (huart == NULL)
 800689c:	b370      	cbz	r0, 80068fc <HAL_UART_Init+0x60>
  if (huart->gState == HAL_UART_STATE_RESET)
 800689e:	6fc3      	ldr	r3, [r0, #124]	@ 0x7c
{
 80068a0:	b510      	push	{r4, lr}
 80068a2:	4604      	mov	r4, r0
  if (huart->gState == HAL_UART_STATE_RESET)
 80068a4:	b32b      	cbz	r3, 80068f2 <HAL_UART_Init+0x56>
  __HAL_UART_DISABLE(huart);
 80068a6:	6822      	ldr	r2, [r4, #0]
  if (huart->AdvancedInit.AdvFeatureInit != UART_ADVFEATURE_NO_INIT)
 80068a8:	6a61      	ldr	r1, [r4, #36]	@ 0x24
  huart->gState = HAL_UART_STATE_BUSY;
 80068aa:	2324      	movs	r3, #36	@ 0x24
 80068ac:	67e3      	str	r3, [r4, #124]	@ 0x7c
  __HAL_UART_DISABLE(huart);
 80068ae:	6813      	ldr	r3, [r2, #0]
 80068b0:	f023 0301 	bic.w	r3, r3, #1
 80068b4:	6013      	str	r3, [r2, #0]
  if (huart->AdvancedInit.AdvFeatureInit != UART_ADVFEATURE_NO_INIT)
 80068b6:	b9c1      	cbnz	r1, 80068ea <HAL_UART_Init+0x4e>
  if (UART_SetConfig(huart) == HAL_ERROR)
 80068b8:	4620      	mov	r0, r4
 80068ba:	f7ff fd4b 	bl	8006354 <UART_SetConfig>
 80068be:	2801      	cmp	r0, #1
 80068c0:	d011      	beq.n	80068e6 <HAL_UART_Init+0x4a>
  CLEAR_BIT(huart->Instance->CR2, (USART_CR2_LINEN | USART_CR2_CLKEN));
 80068c2:	6823      	ldr	r3, [r4, #0]
 80068c4:	685a      	ldr	r2, [r3, #4]
 80068c6:	f422 4290 	bic.w	r2, r2, #18432	@ 0x4800
 80068ca:	605a      	str	r2, [r3, #4]
  CLEAR_BIT(huart->Instance->CR3, (USART_CR3_SCEN | USART_CR3_HDSEL | USART_CR3_IREN));
 80068cc:	689a      	ldr	r2, [r3, #8]
 80068ce:	f022 022a 	bic.w	r2, r2, #42	@ 0x2a
 80068d2:	609a      	str	r2, [r3, #8]
  __HAL_UART_ENABLE(huart);
 80068d4:	681a      	ldr	r2, [r3, #0]
 80068d6:	f042 0201 	orr.w	r2, r2, #1
  return (UART_CheckIdleState(huart));
 80068da:	4620      	mov	r0, r4
  __HAL_UART_ENABLE(huart);
 80068dc:	601a      	str	r2, [r3, #0]
}
 80068de:	e8bd 4010 	ldmia.w	sp!, {r4, lr}
  return (UART_CheckIdleState(huart));
 80068e2:	f7ff beb3 	b.w	800664c <UART_CheckIdleState>
}
 80068e6:	2001      	movs	r0, #1
 80068e8:	bd10      	pop	{r4, pc}
    UART_AdvFeatureConfig(huart);
 80068ea:	4620      	mov	r0, r4
 80068ec:	f7ff fe56 	bl	800659c <UART_AdvFeatureConfig>
 80068f0:	e7e2      	b.n	80068b8 <HAL_UART_Init+0x1c>
    huart->Lock = HAL_UNLOCKED;
 80068f2:	f880 3078 	strb.w	r3, [r0, #120]	@ 0x78
    HAL_UART_MspInit(huart);
 80068f6:	f7fb febb 	bl	8002670 <HAL_UART_MspInit>
 80068fa:	e7d4      	b.n	80068a6 <HAL_UART_Init+0xa>
}
 80068fc:	2001      	movs	r0, #1
 80068fe:	4770      	bx	lr

08006900 <arm_split_rfft_q15>:
 8006900:	e92d 4ff0 	stmdb	sp!, {r4, r5, r6, r7, r8, r9, sl, fp, lr}
 8006904:	b083      	sub	sp, #12
 8006906:	f101 4580 	add.w	r5, r1, #1073741824	@ 0x40000000
 800690a:	9c0c      	ldr	r4, [sp, #48]	@ 0x30
 800690c:	9f0d      	ldr	r7, [sp, #52]	@ 0x34
 800690e:	3d01      	subs	r5, #1
 8006910:	eb04 06c1 	add.w	r6, r4, r1, lsl #3
 8006914:	00ac      	lsls	r4, r5, #2
 8006916:	9401      	str	r4, [sp, #4]
 8006918:	1e4c      	subs	r4, r1, #1
 800691a:	eb00 0585 	add.w	r5, r0, r5, lsl #2
 800691e:	eb02 0287 	add.w	r2, r2, r7, lsl #2
 8006922:	eb03 0387 	add.w	r3, r3, r7, lsl #2
 8006926:	d02d      	beq.n	8006984 <arm_split_rfft_q15+0x84>
 8006928:	2f01      	cmp	r7, #1
 800692a:	f1a6 0c04 	sub.w	ip, r6, #4
 800692e:	f100 0604 	add.w	r6, r0, #4
 8006932:	d13e      	bne.n	80069b2 <arm_split_rfft_q15+0xb2>
 8006934:	9f0c      	ldr	r7, [sp, #48]	@ 0x30
 8006936:	f1ac 0104 	sub.w	r1, ip, #4
 800693a:	f107 0808 	add.w	r8, r7, #8
 800693e:	f856 7b04 	ldr.w	r7, [r6], #4
 8006942:	f852 9b04 	ldr.w	r9, [r2], #4
 8006946:	fb47 fc09 	smusd	ip, r7, r9
 800694a:	f855 e904 	ldr.w	lr, [r5], #-4
 800694e:	f853 ab04 	ldr.w	sl, [r3], #4
 8006952:	fb2e cc0a 	smlad	ip, lr, sl, ip
 8006956:	fb4e fe1a 	smusdx	lr, lr, sl
 800695a:	fb27 e719 	smladx	r7, r7, r9, lr
 800695e:	143f      	asrs	r7, r7, #16
 8006960:	ea4f 4c2c 	mov.w	ip, ip, asr #16
 8006964:	f1c7 0e00 	rsb	lr, r7, #0
 8006968:	3c01      	subs	r4, #1
 800696a:	f828 7c02 	strh.w	r7, [r8, #-2]
 800696e:	f828 cc04 	strh.w	ip, [r8, #-4]
 8006972:	f1a1 0104 	sub.w	r1, r1, #4
 8006976:	f8a1 e00a 	strh.w	lr, [r1, #10]
 800697a:	f8a1 c008 	strh.w	ip, [r1, #8]
 800697e:	f108 0804 	add.w	r8, r8, #4
 8006982:	d1dc      	bne.n	800693e <arm_split_rfft_q15+0x3e>
 8006984:	f9b0 1002 	ldrsh.w	r1, [r0, #2]
 8006988:	f9b0 3000 	ldrsh.w	r3, [r0]
 800698c:	9c0c      	ldr	r4, [sp, #48]	@ 0x30
 800698e:	9a01      	ldr	r2, [sp, #4]
 8006990:	1a5b      	subs	r3, r3, r1
 8006992:	4422      	add	r2, r4
 8006994:	2100      	movs	r1, #0
 8006996:	105b      	asrs	r3, r3, #1
 8006998:	8093      	strh	r3, [r2, #4]
 800699a:	80d1      	strh	r1, [r2, #6]
 800699c:	f9b0 3000 	ldrsh.w	r3, [r0]
 80069a0:	f9b0 2002 	ldrsh.w	r2, [r0, #2]
 80069a4:	8061      	strh	r1, [r4, #2]
 80069a6:	4413      	add	r3, r2
 80069a8:	105b      	asrs	r3, r3, #1
 80069aa:	8023      	strh	r3, [r4, #0]
 80069ac:	b003      	add	sp, #12
 80069ae:	e8bd 8ff0 	ldmia.w	sp!, {r4, r5, r6, r7, r8, r9, sl, fp, pc}
 80069b2:	ea4f 0b87 	mov.w	fp, r7, lsl #2
 80069b6:	9f0c      	ldr	r7, [sp, #48]	@ 0x30
 80069b8:	f1ac 0104 	sub.w	r1, ip, #4
 80069bc:	f107 0808 	add.w	r8, r7, #8
 80069c0:	f856 7b04 	ldr.w	r7, [r6], #4
 80069c4:	f8d2 9000 	ldr.w	r9, [r2]
 80069c8:	fb47 fc09 	smusd	ip, r7, r9
 80069cc:	f855 e904 	ldr.w	lr, [r5], #-4
 80069d0:	f8d3 a000 	ldr.w	sl, [r3]
 80069d4:	fb2e cc0a 	smlad	ip, lr, sl, ip
 80069d8:	fb4e fe1a 	smusdx	lr, lr, sl
 80069dc:	fb27 e719 	smladx	r7, r7, r9, lr
 80069e0:	143f      	asrs	r7, r7, #16
 80069e2:	ea4f 4c2c 	mov.w	ip, ip, asr #16
 80069e6:	f1c7 0e00 	rsb	lr, r7, #0
 80069ea:	3c01      	subs	r4, #1
 80069ec:	f828 7c02 	strh.w	r7, [r8, #-2]
 80069f0:	f828 cc04 	strh.w	ip, [r8, #-4]
 80069f4:	445b      	add	r3, fp
 80069f6:	f8a1 e006 	strh.w	lr, [r1, #6]
 80069fa:	f8a1 c004 	strh.w	ip, [r1, #4]
 80069fe:	445a      	add	r2, fp
 8006a00:	f108 0804 	add.w	r8, r8, #4
 8006a04:	f1a1 0104 	sub.w	r1, r1, #4
 8006a08:	d1da      	bne.n	80069c0 <arm_split_rfft_q15+0xc0>
 8006a0a:	e7bb      	b.n	8006984 <arm_split_rfft_q15+0x84>

08006a0c <arm_rfft_q15>:
 8006a0c:	e92d 4ff0 	stmdb	sp!, {r4, r5, r6, r7, r8, r9, sl, fp, lr}
 8006a10:	f890 e004 	ldrb.w	lr, [r0, #4]
 8006a14:	6806      	ldr	r6, [r0, #0]
 8006a16:	f1be 0f01 	cmp.w	lr, #1
 8006a1a:	4604      	mov	r4, r0
 8006a1c:	b083      	sub	sp, #12
 8006a1e:	6940      	ldr	r0, [r0, #20]
 8006a20:	4615      	mov	r5, r2
 8006a22:	ea4f 0656 	mov.w	r6, r6, lsr #1
 8006a26:	460f      	mov	r7, r1
 8006a28:	d00f      	beq.n	8006a4a <arm_rfft_q15+0x3e>
 8006a2a:	7963      	ldrb	r3, [r4, #5]
 8006a2c:	4672      	mov	r2, lr
 8006a2e:	f000 fb7b 	bl	8007128 <arm_cfft_q15>
 8006a32:	68a3      	ldr	r3, [r4, #8]
 8006a34:	9301      	str	r3, [sp, #4]
 8006a36:	9500      	str	r5, [sp, #0]
 8006a38:	e9d4 2303 	ldrd	r2, r3, [r4, #12]
 8006a3c:	4631      	mov	r1, r6
 8006a3e:	4638      	mov	r0, r7
 8006a40:	f7ff ff5e 	bl	8006900 <arm_split_rfft_q15>
 8006a44:	b003      	add	sp, #12
 8006a46:	e8bd 8ff0 	ldmia.w	sp!, {r4, r5, r6, r7, r8, r9, sl, fp, pc}
 8006a4a:	e9d4 3103 	ldrd	r3, r1, [r4, #12]
 8006a4e:	68a2      	ldr	r2, [r4, #8]
 8006a50:	eb07 0c86 	add.w	ip, r7, r6, lsl #2
 8006a54:	b30e      	cbz	r6, 8006a9a <arm_rfft_q15+0x8e>
 8006a56:	2a01      	cmp	r2, #1
 8006a58:	ea4f 0b82 	mov.w	fp, r2, lsl #2
 8006a5c:	d132      	bne.n	8006ac4 <arm_rfft_q15+0xb8>
 8006a5e:	46a9      	mov	r9, r5
 8006a60:	f85c 8904 	ldr.w	r8, [ip], #-4
 8006a64:	f851 2b04 	ldr.w	r2, [r1], #4
 8006a68:	fb48 fa02 	smusd	sl, r8, r2
 8006a6c:	f857 bb04 	ldr.w	fp, [r7], #4
 8006a70:	f853 eb04 	ldr.w	lr, [r3], #4
 8006a74:	fb2b aa0e 	smlad	sl, fp, lr, sl
 8006a78:	fb28 f812 	smuadx	r8, r8, r2
 8006a7c:	f1c8 0200 	rsb	r2, r8, #0
 8006a80:	fb4e 2e1b 	smlsdx	lr, lr, fp, r2
 8006a84:	ea4f 421e 	mov.w	r2, lr, lsr #16
 8006a88:	0412      	lsls	r2, r2, #16
 8006a8a:	ea42 421a 	orr.w	r2, r2, sl, lsr #16
 8006a8e:	3e01      	subs	r6, #1
 8006a90:	f849 2b04 	str.w	r2, [r9], #4
 8006a94:	d1e4      	bne.n	8006a60 <arm_rfft_q15+0x54>
 8006a96:	f894 e004 	ldrb.w	lr, [r4, #4]
 8006a9a:	7963      	ldrb	r3, [r4, #5]
 8006a9c:	4672      	mov	r2, lr
 8006a9e:	4629      	mov	r1, r5
 8006aa0:	f000 fb42 	bl	8007128 <arm_cfft_q15>
 8006aa4:	6823      	ldr	r3, [r4, #0]
 8006aa6:	2b00      	cmp	r3, #0
 8006aa8:	d0cc      	beq.n	8006a44 <arm_rfft_q15+0x38>
 8006aaa:	3d02      	subs	r5, #2
 8006aac:	2100      	movs	r1, #0
 8006aae:	f935 3f02 	ldrsh.w	r3, [r5, #2]!
 8006ab2:	005b      	lsls	r3, r3, #1
 8006ab4:	802b      	strh	r3, [r5, #0]
 8006ab6:	6823      	ldr	r3, [r4, #0]
 8006ab8:	3101      	adds	r1, #1
 8006aba:	428b      	cmp	r3, r1
 8006abc:	d8f7      	bhi.n	8006aae <arm_rfft_q15+0xa2>
 8006abe:	b003      	add	sp, #12
 8006ac0:	e8bd 8ff0 	ldmia.w	sp!, {r4, r5, r6, r7, r8, r9, sl, fp, pc}
 8006ac4:	ee07 0a90 	vmov	s15, r0
 8006ac8:	46a8      	mov	r8, r5
 8006aca:	f85c e904 	ldr.w	lr, [ip], #-4
 8006ace:	6808      	ldr	r0, [r1, #0]
 8006ad0:	fb4e f900 	smusd	r9, lr, r0
 8006ad4:	f857 ab04 	ldr.w	sl, [r7], #4
 8006ad8:	681a      	ldr	r2, [r3, #0]
 8006ada:	fb2a 9902 	smlad	r9, sl, r2, r9
 8006ade:	fb2e fe10 	smuadx	lr, lr, r0
 8006ae2:	f1ce 0e00 	rsb	lr, lr, #0
 8006ae6:	fb42 e21a 	smlsdx	r2, r2, sl, lr
 8006aea:	0c12      	lsrs	r2, r2, #16
 8006aec:	0412      	lsls	r2, r2, #16
 8006aee:	ea42 4219 	orr.w	r2, r2, r9, lsr #16
 8006af2:	3e01      	subs	r6, #1
 8006af4:	f848 2b04 	str.w	r2, [r8], #4
 8006af8:	4459      	add	r1, fp
 8006afa:	445b      	add	r3, fp
 8006afc:	d1e5      	bne.n	8006aca <arm_rfft_q15+0xbe>
 8006afe:	ee17 0a90 	vmov	r0, s15
 8006b02:	e7c8      	b.n	8006a96 <arm_rfft_q15+0x8a>

08006b04 <arm_rfft_init_q15>:
 8006b04:	b430      	push	{r4, r5}
 8006b06:	b289      	uxth	r1, r1
 8006b08:	4d31      	ldr	r5, [pc, #196]	@ (8006bd0 <arm_rfft_init_q15+0xcc>)
 8006b0a:	4c32      	ldr	r4, [pc, #200]	@ (8006bd4 <arm_rfft_init_q15+0xd0>)
 8006b0c:	6001      	str	r1, [r0, #0]
 8006b0e:	f5b1 7f00 	cmp.w	r1, #512	@ 0x200
 8006b12:	e9c0 5403 	strd	r5, r4, [r0, #12]
 8006b16:	7102      	strb	r2, [r0, #4]
 8006b18:	7143      	strb	r3, [r0, #5]
 8006b1a:	d053      	beq.n	8006bc4 <arm_rfft_init_q15+0xc0>
 8006b1c:	d91a      	bls.n	8006b54 <arm_rfft_init_q15+0x50>
 8006b1e:	f5b1 5f80 	cmp.w	r1, #4096	@ 0x1000
 8006b22:	d033      	beq.n	8006b8c <arm_rfft_init_q15+0x88>
 8006b24:	d909      	bls.n	8006b3a <arm_rfft_init_q15+0x36>
 8006b26:	f5b1 5f00 	cmp.w	r1, #8192	@ 0x2000
 8006b2a:	d12b      	bne.n	8006b84 <arm_rfft_init_q15+0x80>
 8006b2c:	4b2a      	ldr	r3, [pc, #168]	@ (8006bd8 <arm_rfft_init_q15+0xd4>)
 8006b2e:	6143      	str	r3, [r0, #20]
 8006b30:	2201      	movs	r2, #1
 8006b32:	6082      	str	r2, [r0, #8]
 8006b34:	2000      	movs	r0, #0
 8006b36:	bc30      	pop	{r4, r5}
 8006b38:	4770      	bx	lr
 8006b3a:	f5b1 6f80 	cmp.w	r1, #1024	@ 0x400
 8006b3e:	d02c      	beq.n	8006b9a <arm_rfft_init_q15+0x96>
 8006b40:	f5b1 6f00 	cmp.w	r1, #2048	@ 0x800
 8006b44:	d11e      	bne.n	8006b84 <arm_rfft_init_q15+0x80>
 8006b46:	4b25      	ldr	r3, [pc, #148]	@ (8006bdc <arm_rfft_init_q15+0xd8>)
 8006b48:	6143      	str	r3, [r0, #20]
 8006b4a:	2204      	movs	r2, #4
 8006b4c:	6082      	str	r2, [r0, #8]
 8006b4e:	bc30      	pop	{r4, r5}
 8006b50:	2000      	movs	r0, #0
 8006b52:	4770      	bx	lr
 8006b54:	2980      	cmp	r1, #128	@ 0x80
 8006b56:	d027      	beq.n	8006ba8 <arm_rfft_init_q15+0xa4>
 8006b58:	d909      	bls.n	8006b6e <arm_rfft_init_q15+0x6a>
 8006b5a:	f5b1 7f80 	cmp.w	r1, #256	@ 0x100
 8006b5e:	d111      	bne.n	8006b84 <arm_rfft_init_q15+0x80>
 8006b60:	4b1f      	ldr	r3, [pc, #124]	@ (8006be0 <arm_rfft_init_q15+0xdc>)
 8006b62:	6143      	str	r3, [r0, #20]
 8006b64:	2220      	movs	r2, #32
 8006b66:	6082      	str	r2, [r0, #8]
 8006b68:	bc30      	pop	{r4, r5}
 8006b6a:	2000      	movs	r0, #0
 8006b6c:	4770      	bx	lr
 8006b6e:	2920      	cmp	r1, #32
 8006b70:	d021      	beq.n	8006bb6 <arm_rfft_init_q15+0xb2>
 8006b72:	2940      	cmp	r1, #64	@ 0x40
 8006b74:	d106      	bne.n	8006b84 <arm_rfft_init_q15+0x80>
 8006b76:	4b1b      	ldr	r3, [pc, #108]	@ (8006be4 <arm_rfft_init_q15+0xe0>)
 8006b78:	6143      	str	r3, [r0, #20]
 8006b7a:	2280      	movs	r2, #128	@ 0x80
 8006b7c:	6082      	str	r2, [r0, #8]
 8006b7e:	bc30      	pop	{r4, r5}
 8006b80:	2000      	movs	r0, #0
 8006b82:	4770      	bx	lr
 8006b84:	f04f 30ff 	mov.w	r0, #4294967295
 8006b88:	bc30      	pop	{r4, r5}
 8006b8a:	4770      	bx	lr
 8006b8c:	4b16      	ldr	r3, [pc, #88]	@ (8006be8 <arm_rfft_init_q15+0xe4>)
 8006b8e:	6143      	str	r3, [r0, #20]
 8006b90:	2202      	movs	r2, #2
 8006b92:	6082      	str	r2, [r0, #8]
 8006b94:	bc30      	pop	{r4, r5}
 8006b96:	2000      	movs	r0, #0
 8006b98:	4770      	bx	lr
 8006b9a:	4b14      	ldr	r3, [pc, #80]	@ (8006bec <arm_rfft_init_q15+0xe8>)
 8006b9c:	6143      	str	r3, [r0, #20]
 8006b9e:	2208      	movs	r2, #8
 8006ba0:	6082      	str	r2, [r0, #8]
 8006ba2:	bc30      	pop	{r4, r5}
 8006ba4:	2000      	movs	r0, #0
 8006ba6:	4770      	bx	lr
 8006ba8:	4b11      	ldr	r3, [pc, #68]	@ (8006bf0 <arm_rfft_init_q15+0xec>)
 8006baa:	6143      	str	r3, [r0, #20]
 8006bac:	2240      	movs	r2, #64	@ 0x40
 8006bae:	6082      	str	r2, [r0, #8]
 8006bb0:	bc30      	pop	{r4, r5}
 8006bb2:	2000      	movs	r0, #0
 8006bb4:	4770      	bx	lr
 8006bb6:	4b0f      	ldr	r3, [pc, #60]	@ (8006bf4 <arm_rfft_init_q15+0xf0>)
 8006bb8:	6143      	str	r3, [r0, #20]
 8006bba:	f44f 7280 	mov.w	r2, #256	@ 0x100
 8006bbe:	6082      	str	r2, [r0, #8]
 8006bc0:	2000      	movs	r0, #0
 8006bc2:	e7b8      	b.n	8006b36 <arm_rfft_init_q15+0x32>
 8006bc4:	4b0c      	ldr	r3, [pc, #48]	@ (8006bf8 <arm_rfft_init_q15+0xf4>)
 8006bc6:	6143      	str	r3, [r0, #20]
 8006bc8:	2210      	movs	r2, #16
 8006bca:	6082      	str	r2, [r0, #8]
 8006bcc:	2000      	movs	r0, #0
 8006bce:	e7b2      	b.n	8006b36 <arm_rfft_init_q15+0x32>
 8006bd0:	0800d6dc 	.word	0x0800d6dc
 8006bd4:	080116dc 	.word	0x080116dc
 8006bd8:	080098b4 	.word	0x080098b4
 8006bdc:	08009854 	.word	0x08009854
 8006be0:	08009864 	.word	0x08009864
 8006be4:	080098a4 	.word	0x080098a4
 8006be8:	08009884 	.word	0x08009884
 8006bec:	080098c4 	.word	0x080098c4
 8006bf0:	080098d4 	.word	0x080098d4
 8006bf4:	08009874 	.word	0x08009874
 8006bf8:	08009894 	.word	0x08009894

08006bfc <arm_cmplx_mag_q15>:
 8006bfc:	e92d 4ff8 	stmdb	sp!, {r3, r4, r5, r6, r7, r8, r9, sl, fp, lr}
 8006c00:	ea5f 0992 	movs.w	r9, r2, lsr #2
 8006c04:	4617      	mov	r7, r2
 8006c06:	4680      	mov	r8, r0
 8006c08:	460e      	mov	r6, r1
 8006c0a:	d029      	beq.n	8006c60 <arm_cmplx_mag_q15+0x64>
 8006c0c:	4605      	mov	r5, r0
 8006c0e:	46ca      	mov	sl, r9
 8006c10:	460c      	mov	r4, r1
 8006c12:	6828      	ldr	r0, [r5, #0]
 8006c14:	fb20 f000 	smuad	r0, r0, r0
 8006c18:	4621      	mov	r1, r4
 8006c1a:	1440      	asrs	r0, r0, #17
 8006c1c:	f000 f832 	bl	8006c84 <arm_sqrt_q15>
 8006c20:	6868      	ldr	r0, [r5, #4]
 8006c22:	fb20 f000 	smuad	r0, r0, r0
 8006c26:	1ca1      	adds	r1, r4, #2
 8006c28:	1440      	asrs	r0, r0, #17
 8006c2a:	f000 f82b 	bl	8006c84 <arm_sqrt_q15>
 8006c2e:	68a8      	ldr	r0, [r5, #8]
 8006c30:	fb20 f000 	smuad	r0, r0, r0
 8006c34:	1d21      	adds	r1, r4, #4
 8006c36:	1440      	asrs	r0, r0, #17
 8006c38:	f000 f824 	bl	8006c84 <arm_sqrt_q15>
 8006c3c:	3510      	adds	r5, #16
 8006c3e:	f855 3c04 	ldr.w	r3, [r5, #-4]
 8006c42:	fb23 f303 	smuad	r3, r3, r3
 8006c46:	1da1      	adds	r1, r4, #6
 8006c48:	1458      	asrs	r0, r3, #17
 8006c4a:	f000 f81b 	bl	8006c84 <arm_sqrt_q15>
 8006c4e:	f1ba 0a01 	subs.w	sl, sl, #1
 8006c52:	f104 0408 	add.w	r4, r4, #8
 8006c56:	d1dc      	bne.n	8006c12 <arm_cmplx_mag_q15+0x16>
 8006c58:	eb06 06c9 	add.w	r6, r6, r9, lsl #3
 8006c5c:	eb08 1809 	add.w	r8, r8, r9, lsl #4
 8006c60:	f017 0703 	ands.w	r7, r7, #3
 8006c64:	d00c      	beq.n	8006c80 <arm_cmplx_mag_q15+0x84>
 8006c66:	eb06 0747 	add.w	r7, r6, r7, lsl #1
 8006c6a:	f858 0b04 	ldr.w	r0, [r8], #4
 8006c6e:	fb20 f000 	smuad	r0, r0, r0
 8006c72:	4631      	mov	r1, r6
 8006c74:	1440      	asrs	r0, r0, #17
 8006c76:	3602      	adds	r6, #2
 8006c78:	f000 f804 	bl	8006c84 <arm_sqrt_q15>
 8006c7c:	42be      	cmp	r6, r7
 8006c7e:	d1f4      	bne.n	8006c6a <arm_cmplx_mag_q15+0x6e>
 8006c80:	e8bd 8ff8 	ldmia.w	sp!, {r3, r4, r5, r6, r7, r8, r9, sl, fp, pc}

08006c84 <arm_sqrt_q15>:
 8006c84:	2800      	cmp	r0, #0
 8006c86:	dd5c      	ble.n	8006d42 <arm_sqrt_q15+0xbe>
 8006c88:	fab0 f280 	clz	r2, r0
 8006c8c:	3a11      	subs	r2, #17
 8006c8e:	b470      	push	{r4, r5, r6}
 8006c90:	b294      	uxth	r4, r2
 8006c92:	f012 0201 	ands.w	r2, r2, #1
 8006c96:	bf1a      	itte	ne
 8006c98:	f104 33ff 	addne.w	r3, r4, #4294967295
 8006c9c:	4098      	lslne	r0, r3
 8006c9e:	40a0      	lsleq	r0, r4
 8006ca0:	b200      	sxth	r0, r0
 8006ca2:	ee07 0a90 	vmov	s15, r0
 8006ca6:	eefa 7ae8 	vcvt.f32.s32	s15, s15, #15
 8006caa:	4b28      	ldr	r3, [pc, #160]	@ (8006d4c <arm_sqrt_q15+0xc8>)
 8006cac:	ee17 5a90 	vmov	r5, s15
 8006cb0:	eba3 0365 	sub.w	r3, r3, r5, asr #1
 8006cb4:	ee07 3a90 	vmov	s15, r3
 8006cb8:	eefe 7ac9 	vcvt.s32.f32	s15, s15, #14
 8006cbc:	1046      	asrs	r6, r0, #1
 8006cbe:	ee17 3a90 	vmov	r3, s15
 8006cc2:	b21b      	sxth	r3, r3
 8006cc4:	fb03 f503 	mul.w	r5, r3, r3
 8006cc8:	13ed      	asrs	r5, r5, #15
 8006cca:	fb15 f506 	smulbb	r5, r5, r6
 8006cce:	13ed      	asrs	r5, r5, #15
 8006cd0:	f5c5 5540 	rsb	r5, r5, #12288	@ 0x3000
 8006cd4:	fb03 f305 	mul.w	r3, r3, r5
 8006cd8:	f343 334f 	sbfx	r3, r3, #13, #16
 8006cdc:	f023 0303 	bic.w	r3, r3, #3
 8006ce0:	fb03 f503 	mul.w	r5, r3, r3
 8006ce4:	13ed      	asrs	r5, r5, #15
 8006ce6:	fb15 f506 	smulbb	r5, r5, r6
 8006cea:	13ed      	asrs	r5, r5, #15
 8006cec:	f5c5 5540 	rsb	r5, r5, #12288	@ 0x3000
 8006cf0:	fb03 f305 	mul.w	r3, r3, r5
 8006cf4:	f343 334f 	sbfx	r3, r3, #13, #16
 8006cf8:	f023 0303 	bic.w	r3, r3, #3
 8006cfc:	fb03 f503 	mul.w	r5, r3, r3
 8006d00:	13ed      	asrs	r5, r5, #15
 8006d02:	fb15 f506 	smulbb	r5, r5, r6
 8006d06:	13ed      	asrs	r5, r5, #15
 8006d08:	f5c5 5540 	rsb	r5, r5, #12288	@ 0x3000
 8006d0c:	fb03 f305 	mul.w	r3, r3, r5
 8006d10:	13db      	asrs	r3, r3, #15
 8006d12:	009b      	lsls	r3, r3, #2
 8006d14:	fb13 f300 	smulbb	r3, r3, r0
 8006d18:	f343 338f 	sbfx	r3, r3, #14, #16
 8006d1c:	f023 0301 	bic.w	r3, r3, #1
 8006d20:	b13a      	cbz	r2, 8006d32 <arm_sqrt_q15+0xae>
 8006d22:	3c01      	subs	r4, #1
 8006d24:	1064      	asrs	r4, r4, #1
 8006d26:	4123      	asrs	r3, r4
 8006d28:	b21b      	sxth	r3, r3
 8006d2a:	2000      	movs	r0, #0
 8006d2c:	bc70      	pop	{r4, r5, r6}
 8006d2e:	800b      	strh	r3, [r1, #0]
 8006d30:	4770      	bx	lr
 8006d32:	f344 044e 	sbfx	r4, r4, #1, #15
 8006d36:	4123      	asrs	r3, r4
 8006d38:	b21b      	sxth	r3, r3
 8006d3a:	2000      	movs	r0, #0
 8006d3c:	bc70      	pop	{r4, r5, r6}
 8006d3e:	800b      	strh	r3, [r1, #0]
 8006d40:	4770      	bx	lr
 8006d42:	2300      	movs	r3, #0
 8006d44:	800b      	strh	r3, [r1, #0]
 8006d46:	f04f 30ff 	mov.w	r0, #4294967295
 8006d4a:	4770      	bx	lr
 8006d4c:	5f3759df 	.word	0x5f3759df

08006d50 <arm_shift_q15>:
 8006d50:	2900      	cmp	r1, #0
 8006d52:	e92d 41f0 	stmdb	sp!, {r4, r5, r6, r7, r8, lr}
 8006d56:	ea4f 0c93 	mov.w	ip, r3, lsr #2
 8006d5a:	db4a      	blt.n	8006df2 <arm_shift_q15+0xa2>
 8006d5c:	f1bc 0f00 	cmp.w	ip, #0
 8006d60:	d02b      	beq.n	8006dba <arm_shift_q15+0x6a>
 8006d62:	f100 0508 	add.w	r5, r0, #8
 8006d66:	4616      	mov	r6, r2
 8006d68:	4667      	mov	r7, ip
 8006d6a:	f935 4c08 	ldrsh.w	r4, [r5, #-8]
 8006d6e:	408c      	lsls	r4, r1
 8006d70:	f304 040f 	ssat	r4, #16, r4
 8006d74:	f935 ec06 	ldrsh.w	lr, [r5, #-6]
 8006d78:	fa0e fe01 	lsl.w	lr, lr, r1
 8006d7c:	f30e 0e0f 	ssat	lr, #16, lr
 8006d80:	b2a4      	uxth	r4, r4
 8006d82:	ea44 440e 	orr.w	r4, r4, lr, lsl #16
 8006d86:	6034      	str	r4, [r6, #0]
 8006d88:	f935 4c04 	ldrsh.w	r4, [r5, #-4]
 8006d8c:	408c      	lsls	r4, r1
 8006d8e:	f304 040f 	ssat	r4, #16, r4
 8006d92:	f935 ec02 	ldrsh.w	lr, [r5, #-2]
 8006d96:	fa0e fe01 	lsl.w	lr, lr, r1
 8006d9a:	f30e 0e0f 	ssat	lr, #16, lr
 8006d9e:	b2a4      	uxth	r4, r4
 8006da0:	ea44 440e 	orr.w	r4, r4, lr, lsl #16
 8006da4:	3f01      	subs	r7, #1
 8006da6:	6074      	str	r4, [r6, #4]
 8006da8:	f105 0508 	add.w	r5, r5, #8
 8006dac:	f106 0608 	add.w	r6, r6, #8
 8006db0:	d1db      	bne.n	8006d6a <arm_shift_q15+0x1a>
 8006db2:	eb00 00cc 	add.w	r0, r0, ip, lsl #3
 8006db6:	eb02 02cc 	add.w	r2, r2, ip, lsl #3
 8006dba:	f013 0303 	ands.w	r3, r3, #3
 8006dbe:	d016      	beq.n	8006dee <arm_shift_q15+0x9e>
 8006dc0:	f9b0 4000 	ldrsh.w	r4, [r0]
 8006dc4:	408c      	lsls	r4, r1
 8006dc6:	f304 040f 	ssat	r4, #16, r4
 8006dca:	3b01      	subs	r3, #1
 8006dcc:	8014      	strh	r4, [r2, #0]
 8006dce:	d00e      	beq.n	8006dee <arm_shift_q15+0x9e>
 8006dd0:	f9b0 4002 	ldrsh.w	r4, [r0, #2]
 8006dd4:	408c      	lsls	r4, r1
 8006dd6:	f304 040f 	ssat	r4, #16, r4
 8006dda:	2b01      	cmp	r3, #1
 8006ddc:	8054      	strh	r4, [r2, #2]
 8006dde:	d006      	beq.n	8006dee <arm_shift_q15+0x9e>
 8006de0:	f9b0 3004 	ldrsh.w	r3, [r0, #4]
 8006de4:	fa03 f101 	lsl.w	r1, r3, r1
 8006de8:	f301 010f 	ssat	r1, #16, r1
 8006dec:	8091      	strh	r1, [r2, #4]
 8006dee:	e8bd 81f0 	ldmia.w	sp!, {r4, r5, r6, r7, r8, pc}
 8006df2:	f1bc 0f00 	cmp.w	ip, #0
 8006df6:	d025      	beq.n	8006e44 <arm_shift_q15+0xf4>
 8006df8:	424f      	negs	r7, r1
 8006dfa:	f100 0508 	add.w	r5, r0, #8
 8006dfe:	4616      	mov	r6, r2
 8006e00:	46e6      	mov	lr, ip
 8006e02:	f935 4c08 	ldrsh.w	r4, [r5, #-8]
 8006e06:	f935 8c06 	ldrsh.w	r8, [r5, #-6]
 8006e0a:	413c      	asrs	r4, r7
 8006e0c:	fa48 f807 	asr.w	r8, r8, r7
 8006e10:	b2a4      	uxth	r4, r4
 8006e12:	ea44 4408 	orr.w	r4, r4, r8, lsl #16
 8006e16:	6034      	str	r4, [r6, #0]
 8006e18:	f935 4c04 	ldrsh.w	r4, [r5, #-4]
 8006e1c:	f935 8c02 	ldrsh.w	r8, [r5, #-2]
 8006e20:	413c      	asrs	r4, r7
 8006e22:	b2a4      	uxth	r4, r4
 8006e24:	fa48 f807 	asr.w	r8, r8, r7
 8006e28:	ea44 4408 	orr.w	r4, r4, r8, lsl #16
 8006e2c:	f1be 0e01 	subs.w	lr, lr, #1
 8006e30:	6074      	str	r4, [r6, #4]
 8006e32:	f105 0508 	add.w	r5, r5, #8
 8006e36:	f106 0608 	add.w	r6, r6, #8
 8006e3a:	d1e2      	bne.n	8006e02 <arm_shift_q15+0xb2>
 8006e3c:	eb00 00cc 	add.w	r0, r0, ip, lsl #3
 8006e40:	eb02 02cc 	add.w	r2, r2, ip, lsl #3
 8006e44:	f013 0303 	ands.w	r3, r3, #3
 8006e48:	d0d1      	beq.n	8006dee <arm_shift_q15+0x9e>
 8006e4a:	f9b0 4000 	ldrsh.w	r4, [r0]
 8006e4e:	4249      	negs	r1, r1
 8006e50:	410c      	asrs	r4, r1
 8006e52:	3b01      	subs	r3, #1
 8006e54:	8014      	strh	r4, [r2, #0]
 8006e56:	d0ca      	beq.n	8006dee <arm_shift_q15+0x9e>
 8006e58:	f9b0 4002 	ldrsh.w	r4, [r0, #2]
 8006e5c:	2b01      	cmp	r3, #1
 8006e5e:	fa44 f401 	asr.w	r4, r4, r1
 8006e62:	8054      	strh	r4, [r2, #2]
 8006e64:	d0c3      	beq.n	8006dee <arm_shift_q15+0x9e>
 8006e66:	f9b0 3004 	ldrsh.w	r3, [r0, #4]
 8006e6a:	fa43 f101 	asr.w	r1, r3, r1
 8006e6e:	8091      	strh	r1, [r2, #4]
 8006e70:	e8bd 81f0 	ldmia.w	sp!, {r4, r5, r6, r7, r8, pc}

08006e74 <arm_mult_q15>:
 8006e74:	e92d 4ff0 	stmdb	sp!, {r4, r5, r6, r7, r8, r9, sl, fp, lr}
 8006e78:	ea5f 0893 	movs.w	r8, r3, lsr #2
 8006e7c:	d037      	beq.n	8006eee <arm_mult_q15+0x7a>
 8006e7e:	4694      	mov	ip, r2
 8006e80:	460f      	mov	r7, r1
 8006e82:	4606      	mov	r6, r0
 8006e84:	46c6      	mov	lr, r8
 8006e86:	f8d6 a000 	ldr.w	sl, [r6]
 8006e8a:	683d      	ldr	r5, [r7, #0]
 8006e8c:	6874      	ldr	r4, [r6, #4]
 8006e8e:	f8d7 b004 	ldr.w	fp, [r7, #4]
 8006e92:	fb15 f93a 	smultt	r9, r5, sl
 8006e96:	ea4f 39e9 	mov.w	r9, r9, asr #15
 8006e9a:	3608      	adds	r6, #8
 8006e9c:	3708      	adds	r7, #8
 8006e9e:	f309 090f 	ssat	r9, #16, r9
 8006ea2:	fb1a fa05 	smulbb	sl, sl, r5
 8006ea6:	ea4f 3aea 	mov.w	sl, sl, asr #15
 8006eaa:	f30a 0a0f 	ssat	sl, #16, sl
 8006eae:	fb1b f534 	smultt	r5, fp, r4
 8006eb2:	13ed      	asrs	r5, r5, #15
 8006eb4:	f305 050f 	ssat	r5, #16, r5
 8006eb8:	fb14 f40b 	smulbb	r4, r4, fp
 8006ebc:	13e4      	asrs	r4, r4, #15
 8006ebe:	f304 040f 	ssat	r4, #16, r4
 8006ec2:	fa1f fa8a 	uxth.w	sl, sl
 8006ec6:	b2a4      	uxth	r4, r4
 8006ec8:	ea4a 4909 	orr.w	r9, sl, r9, lsl #16
 8006ecc:	ea44 4405 	orr.w	r4, r4, r5, lsl #16
 8006ed0:	f1be 0e01 	subs.w	lr, lr, #1
 8006ed4:	f8cc 9000 	str.w	r9, [ip]
 8006ed8:	f8cc 4004 	str.w	r4, [ip, #4]
 8006edc:	f10c 0c08 	add.w	ip, ip, #8
 8006ee0:	d1d1      	bne.n	8006e86 <arm_mult_q15+0x12>
 8006ee2:	eb00 00c8 	add.w	r0, r0, r8, lsl #3
 8006ee6:	eb01 01c8 	add.w	r1, r1, r8, lsl #3
 8006eea:	eb02 02c8 	add.w	r2, r2, r8, lsl #3
 8006eee:	f013 0303 	ands.w	r3, r3, #3
 8006ef2:	d01b      	beq.n	8006f2c <arm_mult_q15+0xb8>
 8006ef4:	880c      	ldrh	r4, [r1, #0]
 8006ef6:	8805      	ldrh	r5, [r0, #0]
 8006ef8:	fb14 f405 	smulbb	r4, r4, r5
 8006efc:	13e4      	asrs	r4, r4, #15
 8006efe:	f304 040f 	ssat	r4, #16, r4
 8006f02:	3b01      	subs	r3, #1
 8006f04:	8014      	strh	r4, [r2, #0]
 8006f06:	d011      	beq.n	8006f2c <arm_mult_q15+0xb8>
 8006f08:	884c      	ldrh	r4, [r1, #2]
 8006f0a:	8845      	ldrh	r5, [r0, #2]
 8006f0c:	fb14 f405 	smulbb	r4, r4, r5
 8006f10:	13e4      	asrs	r4, r4, #15
 8006f12:	f304 040f 	ssat	r4, #16, r4
 8006f16:	2b01      	cmp	r3, #1
 8006f18:	8054      	strh	r4, [r2, #2]
 8006f1a:	d007      	beq.n	8006f2c <arm_mult_q15+0xb8>
 8006f1c:	8883      	ldrh	r3, [r0, #4]
 8006f1e:	8889      	ldrh	r1, [r1, #4]
 8006f20:	fb13 f301 	smulbb	r3, r3, r1
 8006f24:	13db      	asrs	r3, r3, #15
 8006f26:	f303 030f 	ssat	r3, #16, r3
 8006f2a:	8093      	strh	r3, [r2, #4]
 8006f2c:	e8bd 8ff0 	ldmia.w	sp!, {r4, r5, r6, r7, r8, r9, sl, fp, pc}

08006f30 <arm_dot_prod_q15>:
 8006f30:	e92d 4ff0 	stmdb	sp!, {r4, r5, r6, r7, r8, r9, sl, fp, lr}
 8006f34:	ea5f 0992 	movs.w	r9, r2, lsr #2
 8006f38:	d036      	beq.n	8006fa8 <arm_dot_prod_q15+0x78>
 8006f3a:	468e      	mov	lr, r1
 8006f3c:	4684      	mov	ip, r0
 8006f3e:	46c8      	mov	r8, r9
 8006f40:	2600      	movs	r6, #0
 8006f42:	2700      	movs	r7, #0
 8006f44:	f8dc a000 	ldr.w	sl, [ip]
 8006f48:	f8de b000 	ldr.w	fp, [lr]
 8006f4c:	4635      	mov	r5, r6
 8006f4e:	463c      	mov	r4, r7
 8006f50:	fbca 54cb 	smlald	r5, r4, sl, fp
 8006f54:	f8dc 6004 	ldr.w	r6, [ip, #4]
 8006f58:	f8de 7004 	ldr.w	r7, [lr, #4]
 8006f5c:	f10c 0c08 	add.w	ip, ip, #8
 8006f60:	f10e 0e08 	add.w	lr, lr, #8
 8006f64:	fbc6 54c7 	smlald	r5, r4, r6, r7
 8006f68:	f1b8 0801 	subs.w	r8, r8, #1
 8006f6c:	462e      	mov	r6, r5
 8006f6e:	4627      	mov	r7, r4
 8006f70:	d1e8      	bne.n	8006f44 <arm_dot_prod_q15+0x14>
 8006f72:	eb01 01c9 	add.w	r1, r1, r9, lsl #3
 8006f76:	eb00 00c9 	add.w	r0, r0, r9, lsl #3
 8006f7a:	f012 0203 	ands.w	r2, r2, #3
 8006f7e:	d00f      	beq.n	8006fa0 <arm_dot_prod_q15+0x70>
 8006f80:	880d      	ldrh	r5, [r1, #0]
 8006f82:	8804      	ldrh	r4, [r0, #0]
 8006f84:	3a01      	subs	r2, #1
 8006f86:	fbc5 6784 	smlalbb	r6, r7, r5, r4
 8006f8a:	d009      	beq.n	8006fa0 <arm_dot_prod_q15+0x70>
 8006f8c:	884d      	ldrh	r5, [r1, #2]
 8006f8e:	8844      	ldrh	r4, [r0, #2]
 8006f90:	2a01      	cmp	r2, #1
 8006f92:	fbc5 6784 	smlalbb	r6, r7, r5, r4
 8006f96:	d003      	beq.n	8006fa0 <arm_dot_prod_q15+0x70>
 8006f98:	8880      	ldrh	r0, [r0, #4]
 8006f9a:	888a      	ldrh	r2, [r1, #4]
 8006f9c:	fbc0 6782 	smlalbb	r6, r7, r0, r2
 8006fa0:	e9c3 6700 	strd	r6, r7, [r3]
 8006fa4:	e8bd 8ff0 	ldmia.w	sp!, {r4, r5, r6, r7, r8, r9, sl, fp, pc}
 8006fa8:	2600      	movs	r6, #0
 8006faa:	2700      	movs	r7, #0
 8006fac:	e7e5      	b.n	8006f7a <arm_dot_prod_q15+0x4a>
 8006fae:	bf00      	nop

08006fb0 <arm_cfft_radix4by2_q15>:
 8006fb0:	e92d 47f0 	stmdb	sp!, {r4, r5, r6, r7, r8, r9, sl, lr}
 8006fb4:	084d      	lsrs	r5, r1, #1
 8006fb6:	eb00 0741 	add.w	r7, r0, r1, lsl #1
 8006fba:	4616      	mov	r6, r2
 8006fbc:	d047      	beq.n	800704e <arm_cfft_radix4by2_q15+0x9e>
 8006fbe:	4604      	mov	r4, r0
 8006fc0:	f8df 80a4 	ldr.w	r8, [pc, #164]	@ 8007068 <arm_cfft_radix4by2_q15+0xb8>
 8006fc4:	4696      	mov	lr, r2
 8006fc6:	4638      	mov	r0, r7
 8006fc8:	4621      	mov	r1, r4
 8006fca:	462a      	mov	r2, r5
 8006fcc:	f04f 0c00 	mov.w	ip, #0
 8006fd0:	680b      	ldr	r3, [r1, #0]
 8006fd2:	f8d0 a000 	ldr.w	sl, [r0]
 8006fd6:	fa93 f32c 	shadd16	r3, r3, ip
 8006fda:	fa9a fa2c 	shadd16	sl, sl, ip
 8006fde:	fa93 f92a 	shadd16	r9, r3, sl
 8006fe2:	fad3 fa1a 	qsub16	sl, r3, sl
 8006fe6:	f85e 3b04 	ldr.w	r3, [lr], #4
 8006fea:	f841 9b04 	str.w	r9, [r1], #4
 8006fee:	fb23 f90a 	smuad	r9, r3, sl
 8006ff2:	fb43 f31a 	smusdx	r3, r3, sl
 8006ff6:	ea03 0308 	and.w	r3, r3, r8
 8006ffa:	ea43 4319 	orr.w	r3, r3, r9, lsr #16
 8006ffe:	3a01      	subs	r2, #1
 8007000:	f840 3b04 	str.w	r3, [r0], #4
 8007004:	d1e4      	bne.n	8006fd0 <arm_cfft_radix4by2_q15+0x20>
 8007006:	4629      	mov	r1, r5
 8007008:	2302      	movs	r3, #2
 800700a:	4632      	mov	r2, r6
 800700c:	4620      	mov	r0, r4
 800700e:	f000 f8e9 	bl	80071e4 <arm_radix4_butterfly_q15>
 8007012:	4638      	mov	r0, r7
 8007014:	4629      	mov	r1, r5
 8007016:	4632      	mov	r2, r6
 8007018:	2302      	movs	r3, #2
 800701a:	f000 f8e3 	bl	80071e4 <arm_radix4_butterfly_q15>
 800701e:	eb04 05c5 	add.w	r5, r4, r5, lsl #3
 8007022:	4620      	mov	r0, r4
 8007024:	f9b0 6000 	ldrsh.w	r6, [r0]
 8007028:	f9b0 4002 	ldrsh.w	r4, [r0, #2]
 800702c:	f9b0 2004 	ldrsh.w	r2, [r0, #4]
 8007030:	f9b0 3006 	ldrsh.w	r3, [r0, #6]
 8007034:	0076      	lsls	r6, r6, #1
 8007036:	0064      	lsls	r4, r4, #1
 8007038:	0052      	lsls	r2, r2, #1
 800703a:	005b      	lsls	r3, r3, #1
 800703c:	8006      	strh	r6, [r0, #0]
 800703e:	8044      	strh	r4, [r0, #2]
 8007040:	8082      	strh	r2, [r0, #4]
 8007042:	80c3      	strh	r3, [r0, #6]
 8007044:	3008      	adds	r0, #8
 8007046:	4285      	cmp	r5, r0
 8007048:	d1ec      	bne.n	8007024 <arm_cfft_radix4by2_q15+0x74>
 800704a:	e8bd 87f0 	ldmia.w	sp!, {r4, r5, r6, r7, r8, r9, sl, pc}
 800704e:	4629      	mov	r1, r5
 8007050:	2302      	movs	r3, #2
 8007052:	f000 f8c7 	bl	80071e4 <arm_radix4_butterfly_q15>
 8007056:	4632      	mov	r2, r6
 8007058:	4629      	mov	r1, r5
 800705a:	4638      	mov	r0, r7
 800705c:	2302      	movs	r3, #2
 800705e:	e8bd 47f0 	ldmia.w	sp!, {r4, r5, r6, r7, r8, r9, sl, lr}
 8007062:	f000 b8bf 	b.w	80071e4 <arm_radix4_butterfly_q15>
 8007066:	bf00      	nop
 8007068:	ffff0000 	.word	0xffff0000

0800706c <arm_cfft_radix4by2_inverse_q15>:
 800706c:	e92d 47f0 	stmdb	sp!, {r4, r5, r6, r7, r8, r9, sl, lr}
 8007070:	084d      	lsrs	r5, r1, #1
 8007072:	eb00 0741 	add.w	r7, r0, r1, lsl #1
 8007076:	4616      	mov	r6, r2
 8007078:	d047      	beq.n	800710a <arm_cfft_radix4by2_inverse_q15+0x9e>
 800707a:	4604      	mov	r4, r0
 800707c:	f8df 80a4 	ldr.w	r8, [pc, #164]	@ 8007124 <arm_cfft_radix4by2_inverse_q15+0xb8>
 8007080:	4696      	mov	lr, r2
 8007082:	4638      	mov	r0, r7
 8007084:	4621      	mov	r1, r4
 8007086:	462a      	mov	r2, r5
 8007088:	f04f 0c00 	mov.w	ip, #0
 800708c:	680b      	ldr	r3, [r1, #0]
 800708e:	f8d0 a000 	ldr.w	sl, [r0]
 8007092:	fa93 f32c 	shadd16	r3, r3, ip
 8007096:	fa9a fa2c 	shadd16	sl, sl, ip
 800709a:	fa93 f92a 	shadd16	r9, r3, sl
 800709e:	fad3 fa1a 	qsub16	sl, r3, sl
 80070a2:	f85e 3b04 	ldr.w	r3, [lr], #4
 80070a6:	f841 9b04 	str.w	r9, [r1], #4
 80070aa:	fb43 f90a 	smusd	r9, r3, sl
 80070ae:	fb23 f31a 	smuadx	r3, r3, sl
 80070b2:	ea03 0308 	and.w	r3, r3, r8
 80070b6:	ea43 4319 	orr.w	r3, r3, r9, lsr #16
 80070ba:	3a01      	subs	r2, #1
 80070bc:	f840 3b04 	str.w	r3, [r0], #4
 80070c0:	d1e4      	bne.n	800708c <arm_cfft_radix4by2_inverse_q15+0x20>
 80070c2:	4629      	mov	r1, r5
 80070c4:	2302      	movs	r3, #2
 80070c6:	4632      	mov	r2, r6
 80070c8:	4620      	mov	r0, r4
 80070ca:	f000 fa35 	bl	8007538 <arm_radix4_butterfly_inverse_q15>
 80070ce:	4638      	mov	r0, r7
 80070d0:	4629      	mov	r1, r5
 80070d2:	4632      	mov	r2, r6
 80070d4:	2302      	movs	r3, #2
 80070d6:	f000 fa2f 	bl	8007538 <arm_radix4_butterfly_inverse_q15>
 80070da:	eb04 05c5 	add.w	r5, r4, r5, lsl #3
 80070de:	4620      	mov	r0, r4
 80070e0:	f9b0 6000 	ldrsh.w	r6, [r0]
 80070e4:	f9b0 4002 	ldrsh.w	r4, [r0, #2]
 80070e8:	f9b0 2004 	ldrsh.w	r2, [r0, #4]
 80070ec:	f9b0 3006 	ldrsh.w	r3, [r0, #6]
 80070f0:	0076      	lsls	r6, r6, #1
 80070f2:	0064      	lsls	r4, r4, #1
 80070f4:	0052      	lsls	r2, r2, #1
 80070f6:	005b      	lsls	r3, r3, #1
 80070f8:	8006      	strh	r6, [r0, #0]
 80070fa:	8044      	strh	r4, [r0, #2]
 80070fc:	8082      	strh	r2, [r0, #4]
 80070fe:	80c3      	strh	r3, [r0, #6]
 8007100:	3008      	adds	r0, #8
 8007102:	4285      	cmp	r5, r0
 8007104:	d1ec      	bne.n	80070e0 <arm_cfft_radix4by2_inverse_q15+0x74>
 8007106:	e8bd 87f0 	ldmia.w	sp!, {r4, r5, r6, r7, r8, r9, sl, pc}
 800710a:	4629      	mov	r1, r5
 800710c:	2302      	movs	r3, #2
 800710e:	f000 fa13 	bl	8007538 <arm_radix4_butterfly_inverse_q15>
 8007112:	4632      	mov	r2, r6
 8007114:	4629      	mov	r1, r5
 8007116:	4638      	mov	r0, r7
 8007118:	2302      	movs	r3, #2
 800711a:	e8bd 47f0 	ldmia.w	sp!, {r4, r5, r6, r7, r8, r9, sl, lr}
 800711e:	f000 ba0b 	b.w	8007538 <arm_radix4_butterfly_inverse_q15>
 8007122:	bf00      	nop
 8007124:	ffff0000 	.word	0xffff0000

08007128 <arm_cfft_q15>:
 8007128:	b5e0      	push	{r5, r6, r7, lr}
 800712a:	2a01      	cmp	r2, #1
 800712c:	460f      	mov	r7, r1
 800712e:	4605      	mov	r5, r0
 8007130:	8801      	ldrh	r1, [r0, #0]
 8007132:	461e      	mov	r6, r3
 8007134:	d02f      	beq.n	8007196 <arm_cfft_q15+0x6e>
 8007136:	f5b1 7f80 	cmp.w	r1, #256	@ 0x100
 800713a:	d026      	beq.n	800718a <arm_cfft_q15+0x62>
 800713c:	d908      	bls.n	8007150 <arm_cfft_q15+0x28>
 800713e:	f5b1 6f00 	cmp.w	r1, #2048	@ 0x800
 8007142:	d017      	beq.n	8007174 <arm_cfft_q15+0x4c>
 8007144:	d91b      	bls.n	800717e <arm_cfft_q15+0x56>
 8007146:	f5b1 5f80 	cmp.w	r1, #4096	@ 0x1000
 800714a:	d01e      	beq.n	800718a <arm_cfft_q15+0x62>
 800714c:	b93e      	cbnz	r6, 800715e <arm_cfft_q15+0x36>
 800714e:	bde0      	pop	{r5, r6, r7, pc}
 8007150:	2940      	cmp	r1, #64	@ 0x40
 8007152:	d01a      	beq.n	800718a <arm_cfft_q15+0x62>
 8007154:	d90a      	bls.n	800716c <arm_cfft_q15+0x44>
 8007156:	2980      	cmp	r1, #128	@ 0x80
 8007158:	d00c      	beq.n	8007174 <arm_cfft_q15+0x4c>
 800715a:	2e00      	cmp	r6, #0
 800715c:	d0f7      	beq.n	800714e <arm_cfft_q15+0x26>
 800715e:	68aa      	ldr	r2, [r5, #8]
 8007160:	89a9      	ldrh	r1, [r5, #12]
 8007162:	4638      	mov	r0, r7
 8007164:	e8bd 40e0 	ldmia.w	sp!, {r5, r6, r7, lr}
 8007168:	f000 bb90 	b.w	800788c <arm_bitreversal_16>
 800716c:	2910      	cmp	r1, #16
 800716e:	d00c      	beq.n	800718a <arm_cfft_q15+0x62>
 8007170:	2920      	cmp	r1, #32
 8007172:	d1eb      	bne.n	800714c <arm_cfft_q15+0x24>
 8007174:	686a      	ldr	r2, [r5, #4]
 8007176:	4638      	mov	r0, r7
 8007178:	f7ff ff1a 	bl	8006fb0 <arm_cfft_radix4by2_q15>
 800717c:	e7e6      	b.n	800714c <arm_cfft_q15+0x24>
 800717e:	f5b1 7f00 	cmp.w	r1, #512	@ 0x200
 8007182:	d0f7      	beq.n	8007174 <arm_cfft_q15+0x4c>
 8007184:	f5b1 6f80 	cmp.w	r1, #1024	@ 0x400
 8007188:	d1e0      	bne.n	800714c <arm_cfft_q15+0x24>
 800718a:	686a      	ldr	r2, [r5, #4]
 800718c:	2301      	movs	r3, #1
 800718e:	4638      	mov	r0, r7
 8007190:	f000 f828 	bl	80071e4 <arm_radix4_butterfly_q15>
 8007194:	e7da      	b.n	800714c <arm_cfft_q15+0x24>
 8007196:	f5b1 7f80 	cmp.w	r1, #256	@ 0x100
 800719a:	d01d      	beq.n	80071d8 <arm_cfft_q15+0xb0>
 800719c:	d907      	bls.n	80071ae <arm_cfft_q15+0x86>
 800719e:	f5b1 6f00 	cmp.w	r1, #2048	@ 0x800
 80071a2:	d00e      	beq.n	80071c2 <arm_cfft_q15+0x9a>
 80071a4:	d912      	bls.n	80071cc <arm_cfft_q15+0xa4>
 80071a6:	f5b1 5f80 	cmp.w	r1, #4096	@ 0x1000
 80071aa:	d1cf      	bne.n	800714c <arm_cfft_q15+0x24>
 80071ac:	e014      	b.n	80071d8 <arm_cfft_q15+0xb0>
 80071ae:	2940      	cmp	r1, #64	@ 0x40
 80071b0:	d012      	beq.n	80071d8 <arm_cfft_q15+0xb0>
 80071b2:	d902      	bls.n	80071ba <arm_cfft_q15+0x92>
 80071b4:	2980      	cmp	r1, #128	@ 0x80
 80071b6:	d004      	beq.n	80071c2 <arm_cfft_q15+0x9a>
 80071b8:	e7c8      	b.n	800714c <arm_cfft_q15+0x24>
 80071ba:	2910      	cmp	r1, #16
 80071bc:	d00c      	beq.n	80071d8 <arm_cfft_q15+0xb0>
 80071be:	2920      	cmp	r1, #32
 80071c0:	d1c4      	bne.n	800714c <arm_cfft_q15+0x24>
 80071c2:	686a      	ldr	r2, [r5, #4]
 80071c4:	4638      	mov	r0, r7
 80071c6:	f7ff ff51 	bl	800706c <arm_cfft_radix4by2_inverse_q15>
 80071ca:	e7bf      	b.n	800714c <arm_cfft_q15+0x24>
 80071cc:	f5b1 7f00 	cmp.w	r1, #512	@ 0x200
 80071d0:	d0f7      	beq.n	80071c2 <arm_cfft_q15+0x9a>
 80071d2:	f5b1 6f80 	cmp.w	r1, #1024	@ 0x400
 80071d6:	d1b9      	bne.n	800714c <arm_cfft_q15+0x24>
 80071d8:	686a      	ldr	r2, [r5, #4]
 80071da:	2301      	movs	r3, #1
 80071dc:	4638      	mov	r0, r7
 80071de:	f000 f9ab 	bl	8007538 <arm_radix4_butterfly_inverse_q15>
 80071e2:	e7b3      	b.n	800714c <arm_cfft_q15+0x24>

080071e4 <arm_radix4_butterfly_q15>:
 80071e4:	e92d 4ff0 	stmdb	sp!, {r4, r5, r6, r7, r8, r9, sl, fp, lr}
 80071e8:	b093      	sub	sp, #76	@ 0x4c
 80071ea:	f021 0a03 	bic.w	sl, r1, #3
 80071ee:	eb00 0c4a 	add.w	ip, r0, sl, lsl #1
 80071f2:	9210      	str	r2, [sp, #64]	@ 0x40
 80071f4:	2b01      	cmp	r3, #1
 80071f6:	ea4f 0291 	mov.w	r2, r1, lsr #2
 80071fa:	eb0c 050a 	add.w	r5, ip, sl
 80071fe:	9101      	str	r1, [sp, #4]
 8007200:	900f      	str	r0, [sp, #60]	@ 0x3c
 8007202:	9303      	str	r3, [sp, #12]
 8007204:	4482      	add	sl, r0
 8007206:	9211      	str	r2, [sp, #68]	@ 0x44
 8007208:	f040 8124 	bne.w	8007454 <arm_radix4_butterfly_q15+0x270>
 800720c:	9a10      	ldr	r2, [sp, #64]	@ 0x40
 800720e:	f8df e324 	ldr.w	lr, [pc, #804]	@ 8007534 <arm_radix4_butterfly_q15+0x350>
 8007212:	9e0f      	ldr	r6, [sp, #60]	@ 0x3c
 8007214:	f8cd a008 	str.w	sl, [sp, #8]
 8007218:	4693      	mov	fp, r2
 800721a:	4690      	mov	r8, r2
 800721c:	4657      	mov	r7, sl
 800721e:	2300      	movs	r3, #0
 8007220:	4691      	mov	r9, r2
 8007222:	6830      	ldr	r0, [r6, #0]
 8007224:	f8dc 2000 	ldr.w	r2, [ip]
 8007228:	6839      	ldr	r1, [r7, #0]
 800722a:	fa90 f023 	shadd16	r0, r0, r3
 800722e:	fa91 f123 	shadd16	r1, r1, r3
 8007232:	fa90 f023 	shadd16	r0, r0, r3
 8007236:	fa91 fa23 	shadd16	sl, r1, r3
 800723a:	fa92 f223 	shadd16	r2, r2, r3
 800723e:	6829      	ldr	r1, [r5, #0]
 8007240:	fa92 f223 	shadd16	r2, r2, r3
 8007244:	fa91 f123 	shadd16	r1, r1, r3
 8007248:	fa90 f412 	qadd16	r4, r0, r2
 800724c:	fa91 f123 	shadd16	r1, r1, r3
 8007250:	fa9a f111 	qadd16	r1, sl, r1
 8007254:	fa94 fa21 	shadd16	sl, r4, r1
 8007258:	f846 ab04 	str.w	sl, [r6], #4
 800725c:	fad4 f411 	qsub16	r4, r4, r1
 8007260:	fad0 f212 	qsub16	r2, r0, r2
 8007264:	f85b 1b08 	ldr.w	r1, [fp], #8
 8007268:	fb21 f004 	smuad	r0, r1, r4
 800726c:	fb41 f114 	smusdx	r1, r1, r4
 8007270:	ea01 010e 	and.w	r1, r1, lr
 8007274:	ea41 4110 	orr.w	r1, r1, r0, lsr #16
 8007278:	6838      	ldr	r0, [r7, #0]
 800727a:	f847 1b04 	str.w	r1, [r7], #4
 800727e:	fa90 f023 	shadd16	r0, r0, r3
 8007282:	682c      	ldr	r4, [r5, #0]
 8007284:	fa90 f023 	shadd16	r0, r0, r3
 8007288:	fa94 f423 	shadd16	r4, r4, r3
 800728c:	f859 1b04 	ldr.w	r1, [r9], #4
 8007290:	fa94 f423 	shadd16	r4, r4, r3
 8007294:	fad0 f014 	qsub16	r0, r0, r4
 8007298:	faa2 f410 	qasx	r4, r2, r0
 800729c:	fae2 f210 	qsax	r2, r2, r0
 80072a0:	fb21 fa02 	smuad	sl, r1, r2
 80072a4:	fb41 f212 	smusdx	r2, r1, r2
 80072a8:	ea02 020e 	and.w	r2, r2, lr
 80072ac:	ea42 421a 	orr.w	r2, r2, sl, lsr #16
 80072b0:	f84c 2b04 	str.w	r2, [ip], #4
 80072b4:	f858 2b0c 	ldr.w	r2, [r8], #12
 80072b8:	fb22 f104 	smuad	r1, r2, r4
 80072bc:	fb42 f214 	smusdx	r2, r2, r4
 80072c0:	ea02 020e 	and.w	r2, r2, lr
 80072c4:	ea42 4211 	orr.w	r2, r2, r1, lsr #16
 80072c8:	f845 2b04 	str.w	r2, [r5], #4
 80072cc:	9a02      	ldr	r2, [sp, #8]
 80072ce:	42b2      	cmp	r2, r6
 80072d0:	d1a7      	bne.n	8007222 <arm_radix4_butterfly_q15+0x3e>
 80072d2:	9a11      	ldr	r2, [sp, #68]	@ 0x44
 80072d4:	9b03      	ldr	r3, [sp, #12]
 80072d6:	2a04      	cmp	r2, #4
 80072d8:	ea4f 0383 	mov.w	r3, r3, lsl #2
 80072dc:	f240 8127 	bls.w	800752e <arm_radix4_butterfly_q15+0x34a>
 80072e0:	f8df a250 	ldr.w	sl, [pc, #592]	@ 8007534 <arm_radix4_butterfly_q15+0x350>
 80072e4:	920e      	str	r2, [sp, #56]	@ 0x38
 80072e6:	990e      	ldr	r1, [sp, #56]	@ 0x38
 80072e8:	9102      	str	r1, [sp, #8]
 80072ea:	4608      	mov	r0, r1
 80072ec:	eb03 0243 	add.w	r2, r3, r3, lsl #1
 80072f0:	0889      	lsrs	r1, r1, #2
 80072f2:	0092      	lsls	r2, r2, #2
 80072f4:	0086      	lsls	r6, r0, #2
 80072f6:	9801      	ldr	r0, [sp, #4]
 80072f8:	920d      	str	r2, [sp, #52]	@ 0x34
 80072fa:	008c      	lsls	r4, r1, #2
 80072fc:	009a      	lsls	r2, r3, #2
 80072fe:	00db      	lsls	r3, r3, #3
 8007300:	4288      	cmp	r0, r1
 8007302:	940a      	str	r4, [sp, #40]	@ 0x28
 8007304:	930b      	str	r3, [sp, #44]	@ 0x2c
 8007306:	4604      	mov	r4, r0
 8007308:	9b10      	ldr	r3, [sp, #64]	@ 0x40
 800730a:	980f      	ldr	r0, [sp, #60]	@ 0x3c
 800730c:	910e      	str	r1, [sp, #56]	@ 0x38
 800730e:	bf28      	it	cs
 8007310:	460c      	movcs	r4, r1
 8007312:	e9cd 0305 	strd	r0, r3, [sp, #20]
 8007316:	eb00 01c1 	add.w	r1, r0, r1, lsl #3
 800731a:	9308      	str	r3, [sp, #32]
 800731c:	9307      	str	r3, [sp, #28]
 800731e:	2300      	movs	r3, #0
 8007320:	940c      	str	r4, [sp, #48]	@ 0x30
 8007322:	9104      	str	r1, [sp, #16]
 8007324:	9209      	str	r2, [sp, #36]	@ 0x24
 8007326:	9303      	str	r3, [sp, #12]
 8007328:	9b08      	ldr	r3, [sp, #32]
 800732a:	9a05      	ldr	r2, [sp, #20]
 800732c:	f8d3 9000 	ldr.w	r9, [r3]
 8007330:	9b07      	ldr	r3, [sp, #28]
 8007332:	9f03      	ldr	r7, [sp, #12]
 8007334:	f8d3 8000 	ldr.w	r8, [r3]
 8007338:	9b06      	ldr	r3, [sp, #24]
 800733a:	f8d3 e000 	ldr.w	lr, [r3]
 800733e:	9b0a      	ldr	r3, [sp, #40]	@ 0x28
 8007340:	4615      	mov	r5, r2
 8007342:	1898      	adds	r0, r3, r2
 8007344:	9a04      	ldr	r2, [sp, #16]
 8007346:	4614      	mov	r4, r2
 8007348:	1899      	adds	r1, r3, r2
 800734a:	682a      	ldr	r2, [r5, #0]
 800734c:	6823      	ldr	r3, [r4, #0]
 800734e:	f8d0 b000 	ldr.w	fp, [r0]
 8007352:	fa92 fc13 	qadd16	ip, r2, r3
 8007356:	fad2 f213 	qsub16	r2, r2, r3
 800735a:	680b      	ldr	r3, [r1, #0]
 800735c:	fa9b f313 	qadd16	r3, fp, r3
 8007360:	fa9c fb23 	shadd16	fp, ip, r3
 8007364:	fadc f323 	shsub16	r3, ip, r3
 8007368:	f04f 0c00 	mov.w	ip, #0
 800736c:	fa9b fb2c 	shadd16	fp, fp, ip
 8007370:	f8c5 b000 	str.w	fp, [r5]
 8007374:	4435      	add	r5, r6
 8007376:	fb28 fb03 	smuad	fp, r8, r3
 800737a:	fb48 f313 	smusdx	r3, r8, r3
 800737e:	ea03 030a 	and.w	r3, r3, sl
 8007382:	ea43 431b 	orr.w	r3, r3, fp, lsr #16
 8007386:	f8d0 b000 	ldr.w	fp, [r0]
 800738a:	6003      	str	r3, [r0, #0]
 800738c:	f8d1 c000 	ldr.w	ip, [r1]
 8007390:	fadb fc1c 	qsub16	ip, fp, ip
 8007394:	4430      	add	r0, r6
 8007396:	faa2 f32c 	shasx	r3, r2, ip
 800739a:	fae2 f22c 	shsax	r2, r2, ip
 800739e:	fb29 fc02 	smuad	ip, r9, r2
 80073a2:	fb49 f212 	smusdx	r2, r9, r2
 80073a6:	ea02 020a 	and.w	r2, r2, sl
 80073aa:	ea42 421c 	orr.w	r2, r2, ip, lsr #16
 80073ae:	6022      	str	r2, [r4, #0]
 80073b0:	4434      	add	r4, r6
 80073b2:	fb2e f203 	smuad	r2, lr, r3
 80073b6:	fb4e f313 	smusdx	r3, lr, r3
 80073ba:	ea03 030a 	and.w	r3, r3, sl
 80073be:	ea43 4312 	orr.w	r3, r3, r2, lsr #16
 80073c2:	9a02      	ldr	r2, [sp, #8]
 80073c4:	600b      	str	r3, [r1, #0]
 80073c6:	9b01      	ldr	r3, [sp, #4]
 80073c8:	4417      	add	r7, r2
 80073ca:	42bb      	cmp	r3, r7
 80073cc:	4431      	add	r1, r6
 80073ce:	d8bc      	bhi.n	800734a <arm_radix4_butterfly_q15+0x166>
 80073d0:	e9dd 2108 	ldrd	r2, r1, [sp, #32]
 80073d4:	440a      	add	r2, r1
 80073d6:	9208      	str	r2, [sp, #32]
 80073d8:	990b      	ldr	r1, [sp, #44]	@ 0x2c
 80073da:	9a07      	ldr	r2, [sp, #28]
 80073dc:	9b03      	ldr	r3, [sp, #12]
 80073de:	440a      	add	r2, r1
 80073e0:	9207      	str	r2, [sp, #28]
 80073e2:	990d      	ldr	r1, [sp, #52]	@ 0x34
 80073e4:	9a06      	ldr	r2, [sp, #24]
 80073e6:	440a      	add	r2, r1
 80073e8:	9206      	str	r2, [sp, #24]
 80073ea:	9a05      	ldr	r2, [sp, #20]
 80073ec:	3204      	adds	r2, #4
 80073ee:	9205      	str	r2, [sp, #20]
 80073f0:	9a04      	ldr	r2, [sp, #16]
 80073f2:	3204      	adds	r2, #4
 80073f4:	9204      	str	r2, [sp, #16]
 80073f6:	9a0c      	ldr	r2, [sp, #48]	@ 0x30
 80073f8:	3301      	adds	r3, #1
 80073fa:	4293      	cmp	r3, r2
 80073fc:	9303      	str	r3, [sp, #12]
 80073fe:	d393      	bcc.n	8007328 <arm_radix4_butterfly_q15+0x144>
 8007400:	9a0e      	ldr	r2, [sp, #56]	@ 0x38
 8007402:	9b09      	ldr	r3, [sp, #36]	@ 0x24
 8007404:	2a04      	cmp	r2, #4
 8007406:	f63f af6e 	bhi.w	80072e6 <arm_radix4_butterfly_q15+0x102>
 800740a:	9c11      	ldr	r4, [sp, #68]	@ 0x44
 800740c:	9b0f      	ldr	r3, [sp, #60]	@ 0x3c
 800740e:	689d      	ldr	r5, [r3, #8]
 8007410:	68de      	ldr	r6, [r3, #12]
 8007412:	681a      	ldr	r2, [r3, #0]
 8007414:	6859      	ldr	r1, [r3, #4]
 8007416:	fa92 f015 	qadd16	r0, r2, r5
 800741a:	3c01      	subs	r4, #1
 800741c:	fad2 f215 	qsub16	r2, r2, r5
 8007420:	f103 0310 	add.w	r3, r3, #16
 8007424:	fa91 f516 	qadd16	r5, r1, r6
 8007428:	fad1 f116 	qsub16	r1, r1, r6
 800742c:	fa90 f625 	shadd16	r6, r0, r5
 8007430:	fad0 f025 	shsub16	r0, r0, r5
 8007434:	f843 6c10 	str.w	r6, [r3, #-16]
 8007438:	f843 0c0c 	str.w	r0, [r3, #-12]
 800743c:	fae2 f021 	shsax	r0, r2, r1
 8007440:	faa2 f221 	shasx	r2, r2, r1
 8007444:	f843 0c08 	str.w	r0, [r3, #-8]
 8007448:	f843 2c04 	str.w	r2, [r3, #-4]
 800744c:	d1df      	bne.n	800740e <arm_radix4_butterfly_q15+0x22a>
 800744e:	b013      	add	sp, #76	@ 0x4c
 8007450:	e8bd 8ff0 	ldmia.w	sp!, {r4, r5, r6, r7, r8, r9, sl, fp, pc}
 8007454:	2400      	movs	r4, #0
 8007456:	f8df e0dc 	ldr.w	lr, [pc, #220]	@ 8007534 <arm_radix4_butterfly_q15+0x350>
 800745a:	9f10      	ldr	r7, [sp, #64]	@ 0x40
 800745c:	4623      	mov	r3, r4
 800745e:	4680      	mov	r8, r0
 8007460:	4691      	mov	r9, r2
 8007462:	f8d8 0000 	ldr.w	r0, [r8]
 8007466:	f8dc 2000 	ldr.w	r2, [ip]
 800746a:	f8da 1000 	ldr.w	r1, [sl]
 800746e:	fa90 f023 	shadd16	r0, r0, r3
 8007472:	fa91 f123 	shadd16	r1, r1, r3
 8007476:	fa90 f023 	shadd16	r0, r0, r3
 800747a:	fa91 fb23 	shadd16	fp, r1, r3
 800747e:	fa92 f223 	shadd16	r2, r2, r3
 8007482:	6829      	ldr	r1, [r5, #0]
 8007484:	fa92 f223 	shadd16	r2, r2, r3
 8007488:	fa91 f123 	shadd16	r1, r1, r3
 800748c:	fa90 f612 	qadd16	r6, r0, r2
 8007490:	fa91 f123 	shadd16	r1, r1, r3
 8007494:	fa9b f111 	qadd16	r1, fp, r1
 8007498:	fa96 fb21 	shadd16	fp, r6, r1
 800749c:	f848 bb04 	str.w	fp, [r8], #4
 80074a0:	fad6 f611 	qsub16	r6, r6, r1
 80074a4:	fad0 f212 	qsub16	r2, r0, r2
 80074a8:	f857 1034 	ldr.w	r1, [r7, r4, lsl #3]
 80074ac:	fb21 f006 	smuad	r0, r1, r6
 80074b0:	fb41 f116 	smusdx	r1, r1, r6
 80074b4:	ea01 010e 	and.w	r1, r1, lr
 80074b8:	ea41 4110 	orr.w	r1, r1, r0, lsr #16
 80074bc:	f8da 0000 	ldr.w	r0, [sl]
 80074c0:	f84a 1b04 	str.w	r1, [sl], #4
 80074c4:	fa90 f023 	shadd16	r0, r0, r3
 80074c8:	682e      	ldr	r6, [r5, #0]
 80074ca:	fa90 f023 	shadd16	r0, r0, r3
 80074ce:	fa96 f623 	shadd16	r6, r6, r3
 80074d2:	f857 1024 	ldr.w	r1, [r7, r4, lsl #2]
 80074d6:	fa96 f623 	shadd16	r6, r6, r3
 80074da:	fad0 f016 	qsub16	r0, r0, r6
 80074de:	faa2 f610 	qasx	r6, r2, r0
 80074e2:	fae2 f210 	qsax	r2, r2, r0
 80074e6:	fb21 fb02 	smuad	fp, r1, r2
 80074ea:	fb41 f212 	smusdx	r2, r1, r2
 80074ee:	ea02 020e 	and.w	r2, r2, lr
 80074f2:	ea42 421b 	orr.w	r2, r2, fp, lsr #16
 80074f6:	f84c 2b04 	str.w	r2, [ip], #4
 80074fa:	eb04 0244 	add.w	r2, r4, r4, lsl #1
 80074fe:	f857 2022 	ldr.w	r2, [r7, r2, lsl #2]
 8007502:	fb22 f106 	smuad	r1, r2, r6
 8007506:	fb42 f216 	smusdx	r2, r2, r6
 800750a:	ea02 020e 	and.w	r2, r2, lr
 800750e:	ea42 4211 	orr.w	r2, r2, r1, lsr #16
 8007512:	f845 2b04 	str.w	r2, [r5], #4
 8007516:	9a03      	ldr	r2, [sp, #12]
 8007518:	f1b9 0901 	subs.w	r9, r9, #1
 800751c:	4414      	add	r4, r2
 800751e:	d1a0      	bne.n	8007462 <arm_radix4_butterfly_q15+0x27e>
 8007520:	9a11      	ldr	r2, [sp, #68]	@ 0x44
 8007522:	9b03      	ldr	r3, [sp, #12]
 8007524:	2a04      	cmp	r2, #4
 8007526:	ea4f 0383 	mov.w	r3, r3, lsl #2
 800752a:	f63f aed9 	bhi.w	80072e0 <arm_radix4_butterfly_q15+0xfc>
 800752e:	9b0f      	ldr	r3, [sp, #60]	@ 0x3c
 8007530:	4614      	mov	r4, r2
 8007532:	e76c      	b.n	800740e <arm_radix4_butterfly_q15+0x22a>
 8007534:	ffff0000 	.word	0xffff0000

08007538 <arm_radix4_butterfly_inverse_q15>:
 8007538:	e92d 4ff0 	stmdb	sp!, {r4, r5, r6, r7, r8, r9, sl, fp, lr}
 800753c:	b093      	sub	sp, #76	@ 0x4c
 800753e:	f021 0a03 	bic.w	sl, r1, #3
 8007542:	eb00 0c4a 	add.w	ip, r0, sl, lsl #1
 8007546:	9210      	str	r2, [sp, #64]	@ 0x40
 8007548:	2b01      	cmp	r3, #1
 800754a:	ea4f 0291 	mov.w	r2, r1, lsr #2
 800754e:	eb0c 050a 	add.w	r5, ip, sl
 8007552:	9101      	str	r1, [sp, #4]
 8007554:	900f      	str	r0, [sp, #60]	@ 0x3c
 8007556:	9303      	str	r3, [sp, #12]
 8007558:	4482      	add	sl, r0
 800755a:	9211      	str	r2, [sp, #68]	@ 0x44
 800755c:	f040 8124 	bne.w	80077a8 <arm_radix4_butterfly_inverse_q15+0x270>
 8007560:	9a10      	ldr	r2, [sp, #64]	@ 0x40
 8007562:	f8df e324 	ldr.w	lr, [pc, #804]	@ 8007888 <arm_radix4_butterfly_inverse_q15+0x350>
 8007566:	9e0f      	ldr	r6, [sp, #60]	@ 0x3c
 8007568:	f8cd a008 	str.w	sl, [sp, #8]
 800756c:	4693      	mov	fp, r2
 800756e:	4690      	mov	r8, r2
 8007570:	4657      	mov	r7, sl
 8007572:	2300      	movs	r3, #0
 8007574:	4691      	mov	r9, r2
 8007576:	6830      	ldr	r0, [r6, #0]
 8007578:	f8dc 2000 	ldr.w	r2, [ip]
 800757c:	6839      	ldr	r1, [r7, #0]
 800757e:	fa90 f023 	shadd16	r0, r0, r3
 8007582:	fa91 f123 	shadd16	r1, r1, r3
 8007586:	fa90 f023 	shadd16	r0, r0, r3
 800758a:	fa91 fa23 	shadd16	sl, r1, r3
 800758e:	fa92 f223 	shadd16	r2, r2, r3
 8007592:	6829      	ldr	r1, [r5, #0]
 8007594:	fa92 f223 	shadd16	r2, r2, r3
 8007598:	fa91 f123 	shadd16	r1, r1, r3
 800759c:	fa90 f412 	qadd16	r4, r0, r2
 80075a0:	fa91 f123 	shadd16	r1, r1, r3
 80075a4:	fa9a f111 	qadd16	r1, sl, r1
 80075a8:	fa94 fa21 	shadd16	sl, r4, r1
 80075ac:	f846 ab04 	str.w	sl, [r6], #4
 80075b0:	fad4 f411 	qsub16	r4, r4, r1
 80075b4:	fad0 f212 	qsub16	r2, r0, r2
 80075b8:	f85b 1b08 	ldr.w	r1, [fp], #8
 80075bc:	fb41 f004 	smusd	r0, r1, r4
 80075c0:	fb21 f114 	smuadx	r1, r1, r4
 80075c4:	ea01 010e 	and.w	r1, r1, lr
 80075c8:	ea41 4110 	orr.w	r1, r1, r0, lsr #16
 80075cc:	6838      	ldr	r0, [r7, #0]
 80075ce:	f847 1b04 	str.w	r1, [r7], #4
 80075d2:	fa90 f023 	shadd16	r0, r0, r3
 80075d6:	682c      	ldr	r4, [r5, #0]
 80075d8:	fa90 f023 	shadd16	r0, r0, r3
 80075dc:	fa94 f423 	shadd16	r4, r4, r3
 80075e0:	f859 1b04 	ldr.w	r1, [r9], #4
 80075e4:	fa94 f423 	shadd16	r4, r4, r3
 80075e8:	fad0 f014 	qsub16	r0, r0, r4
 80075ec:	fae2 f410 	qsax	r4, r2, r0
 80075f0:	faa2 f210 	qasx	r2, r2, r0
 80075f4:	fb41 fa02 	smusd	sl, r1, r2
 80075f8:	fb21 f212 	smuadx	r2, r1, r2
 80075fc:	ea02 020e 	and.w	r2, r2, lr
 8007600:	ea42 421a 	orr.w	r2, r2, sl, lsr #16
 8007604:	f84c 2b04 	str.w	r2, [ip], #4
 8007608:	f858 2b0c 	ldr.w	r2, [r8], #12
 800760c:	fb42 f104 	smusd	r1, r2, r4
 8007610:	fb22 f214 	smuadx	r2, r2, r4
 8007614:	ea02 020e 	and.w	r2, r2, lr
 8007618:	ea42 4211 	orr.w	r2, r2, r1, lsr #16
 800761c:	f845 2b04 	str.w	r2, [r5], #4
 8007620:	9a02      	ldr	r2, [sp, #8]
 8007622:	42b2      	cmp	r2, r6
 8007624:	d1a7      	bne.n	8007576 <arm_radix4_butterfly_inverse_q15+0x3e>
 8007626:	9a11      	ldr	r2, [sp, #68]	@ 0x44
 8007628:	9b03      	ldr	r3, [sp, #12]
 800762a:	2a04      	cmp	r2, #4
 800762c:	ea4f 0383 	mov.w	r3, r3, lsl #2
 8007630:	f240 8127 	bls.w	8007882 <arm_radix4_butterfly_inverse_q15+0x34a>
 8007634:	f8df a250 	ldr.w	sl, [pc, #592]	@ 8007888 <arm_radix4_butterfly_inverse_q15+0x350>
 8007638:	920e      	str	r2, [sp, #56]	@ 0x38
 800763a:	990e      	ldr	r1, [sp, #56]	@ 0x38
 800763c:	9102      	str	r1, [sp, #8]
 800763e:	4608      	mov	r0, r1
 8007640:	eb03 0243 	add.w	r2, r3, r3, lsl #1
 8007644:	0889      	lsrs	r1, r1, #2
 8007646:	0092      	lsls	r2, r2, #2
 8007648:	0086      	lsls	r6, r0, #2
 800764a:	9801      	ldr	r0, [sp, #4]
 800764c:	920d      	str	r2, [sp, #52]	@ 0x34
 800764e:	008c      	lsls	r4, r1, #2
 8007650:	009a      	lsls	r2, r3, #2
 8007652:	00db      	lsls	r3, r3, #3
 8007654:	4288      	cmp	r0, r1
 8007656:	940a      	str	r4, [sp, #40]	@ 0x28
 8007658:	930b      	str	r3, [sp, #44]	@ 0x2c
 800765a:	4604      	mov	r4, r0
 800765c:	9b10      	ldr	r3, [sp, #64]	@ 0x40
 800765e:	980f      	ldr	r0, [sp, #60]	@ 0x3c
 8007660:	910e      	str	r1, [sp, #56]	@ 0x38
 8007662:	bf28      	it	cs
 8007664:	460c      	movcs	r4, r1
 8007666:	e9cd 0305 	strd	r0, r3, [sp, #20]
 800766a:	eb00 01c1 	add.w	r1, r0, r1, lsl #3
 800766e:	9308      	str	r3, [sp, #32]
 8007670:	9307      	str	r3, [sp, #28]
 8007672:	2300      	movs	r3, #0
 8007674:	940c      	str	r4, [sp, #48]	@ 0x30
 8007676:	9104      	str	r1, [sp, #16]
 8007678:	9209      	str	r2, [sp, #36]	@ 0x24
 800767a:	9303      	str	r3, [sp, #12]
 800767c:	9b08      	ldr	r3, [sp, #32]
 800767e:	9a05      	ldr	r2, [sp, #20]
 8007680:	f8d3 9000 	ldr.w	r9, [r3]
 8007684:	9b07      	ldr	r3, [sp, #28]
 8007686:	9f03      	ldr	r7, [sp, #12]
 8007688:	f8d3 8000 	ldr.w	r8, [r3]
 800768c:	9b06      	ldr	r3, [sp, #24]
 800768e:	f8d3 e000 	ldr.w	lr, [r3]
 8007692:	9b0a      	ldr	r3, [sp, #40]	@ 0x28
 8007694:	4615      	mov	r5, r2
 8007696:	1898      	adds	r0, r3, r2
 8007698:	9a04      	ldr	r2, [sp, #16]
 800769a:	4614      	mov	r4, r2
 800769c:	1899      	adds	r1, r3, r2
 800769e:	682a      	ldr	r2, [r5, #0]
 80076a0:	6823      	ldr	r3, [r4, #0]
 80076a2:	f8d0 b000 	ldr.w	fp, [r0]
 80076a6:	fa92 fc13 	qadd16	ip, r2, r3
 80076aa:	fad2 f213 	qsub16	r2, r2, r3
 80076ae:	680b      	ldr	r3, [r1, #0]
 80076b0:	fa9b f313 	qadd16	r3, fp, r3
 80076b4:	fa9c fb23 	shadd16	fp, ip, r3
 80076b8:	fadc f323 	shsub16	r3, ip, r3
 80076bc:	f04f 0c00 	mov.w	ip, #0
 80076c0:	fa9b fb2c 	shadd16	fp, fp, ip
 80076c4:	f8c5 b000 	str.w	fp, [r5]
 80076c8:	4435      	add	r5, r6
 80076ca:	fb48 fb03 	smusd	fp, r8, r3
 80076ce:	fb28 f313 	smuadx	r3, r8, r3
 80076d2:	ea03 030a 	and.w	r3, r3, sl
 80076d6:	ea43 431b 	orr.w	r3, r3, fp, lsr #16
 80076da:	f8d0 b000 	ldr.w	fp, [r0]
 80076de:	6003      	str	r3, [r0, #0]
 80076e0:	f8d1 c000 	ldr.w	ip, [r1]
 80076e4:	fadb fc1c 	qsub16	ip, fp, ip
 80076e8:	4430      	add	r0, r6
 80076ea:	fae2 f32c 	shsax	r3, r2, ip
 80076ee:	faa2 f22c 	shasx	r2, r2, ip
 80076f2:	fb49 fc02 	smusd	ip, r9, r2
 80076f6:	fb29 f212 	smuadx	r2, r9, r2
 80076fa:	ea02 020a 	and.w	r2, r2, sl
 80076fe:	ea42 421c 	orr.w	r2, r2, ip, lsr #16
 8007702:	6022      	str	r2, [r4, #0]
 8007704:	4434      	add	r4, r6
 8007706:	fb4e f203 	smusd	r2, lr, r3
 800770a:	fb2e f313 	smuadx	r3, lr, r3
 800770e:	ea03 030a 	and.w	r3, r3, sl
 8007712:	ea43 4312 	orr.w	r3, r3, r2, lsr #16
 8007716:	9a02      	ldr	r2, [sp, #8]
 8007718:	600b      	str	r3, [r1, #0]
 800771a:	9b01      	ldr	r3, [sp, #4]
 800771c:	4417      	add	r7, r2
 800771e:	42bb      	cmp	r3, r7
 8007720:	4431      	add	r1, r6
 8007722:	d8bc      	bhi.n	800769e <arm_radix4_butterfly_inverse_q15+0x166>
 8007724:	e9dd 2108 	ldrd	r2, r1, [sp, #32]
 8007728:	440a      	add	r2, r1
 800772a:	9208      	str	r2, [sp, #32]
 800772c:	990b      	ldr	r1, [sp, #44]	@ 0x2c
 800772e:	9a07      	ldr	r2, [sp, #28]
 8007730:	9b03      	ldr	r3, [sp, #12]
 8007732:	440a      	add	r2, r1
 8007734:	9207      	str	r2, [sp, #28]
 8007736:	990d      	ldr	r1, [sp, #52]	@ 0x34
 8007738:	9a06      	ldr	r2, [sp, #24]
 800773a:	440a      	add	r2, r1
 800773c:	9206      	str	r2, [sp, #24]
 800773e:	9a05      	ldr	r2, [sp, #20]
 8007740:	3204      	adds	r2, #4
 8007742:	9205      	str	r2, [sp, #20]
 8007744:	9a04      	ldr	r2, [sp, #16]
 8007746:	3204      	adds	r2, #4
 8007748:	9204      	str	r2, [sp, #16]
 800774a:	9a0c      	ldr	r2, [sp, #48]	@ 0x30
 800774c:	3301      	adds	r3, #1
 800774e:	4293      	cmp	r3, r2
 8007750:	9303      	str	r3, [sp, #12]
 8007752:	d393      	bcc.n	800767c <arm_radix4_butterfly_inverse_q15+0x144>
 8007754:	9a0e      	ldr	r2, [sp, #56]	@ 0x38
 8007756:	9b09      	ldr	r3, [sp, #36]	@ 0x24
 8007758:	2a04      	cmp	r2, #4
 800775a:	f63f af6e 	bhi.w	800763a <arm_radix4_butterfly_inverse_q15+0x102>
 800775e:	9c11      	ldr	r4, [sp, #68]	@ 0x44
 8007760:	9b0f      	ldr	r3, [sp, #60]	@ 0x3c
 8007762:	689d      	ldr	r5, [r3, #8]
 8007764:	68de      	ldr	r6, [r3, #12]
 8007766:	681a      	ldr	r2, [r3, #0]
 8007768:	6859      	ldr	r1, [r3, #4]
 800776a:	fa92 f015 	qadd16	r0, r2, r5
 800776e:	3c01      	subs	r4, #1
 8007770:	fad2 f215 	qsub16	r2, r2, r5
 8007774:	f103 0310 	add.w	r3, r3, #16
 8007778:	fa91 f516 	qadd16	r5, r1, r6
 800777c:	fad1 f116 	qsub16	r1, r1, r6
 8007780:	fa90 f625 	shadd16	r6, r0, r5
 8007784:	fad0 f025 	shsub16	r0, r0, r5
 8007788:	f843 6c10 	str.w	r6, [r3, #-16]
 800778c:	f843 0c0c 	str.w	r0, [r3, #-12]
 8007790:	faa2 f021 	shasx	r0, r2, r1
 8007794:	fae2 f221 	shsax	r2, r2, r1
 8007798:	f843 0c08 	str.w	r0, [r3, #-8]
 800779c:	f843 2c04 	str.w	r2, [r3, #-4]
 80077a0:	d1df      	bne.n	8007762 <arm_radix4_butterfly_inverse_q15+0x22a>
 80077a2:	b013      	add	sp, #76	@ 0x4c
 80077a4:	e8bd 8ff0 	ldmia.w	sp!, {r4, r5, r6, r7, r8, r9, sl, fp, pc}
 80077a8:	2400      	movs	r4, #0
 80077aa:	f8df e0dc 	ldr.w	lr, [pc, #220]	@ 8007888 <arm_radix4_butterfly_inverse_q15+0x350>
 80077ae:	9f10      	ldr	r7, [sp, #64]	@ 0x40
 80077b0:	4623      	mov	r3, r4
 80077b2:	4680      	mov	r8, r0
 80077b4:	4691      	mov	r9, r2
 80077b6:	f8d8 0000 	ldr.w	r0, [r8]
 80077ba:	f8dc 2000 	ldr.w	r2, [ip]
 80077be:	f8da 1000 	ldr.w	r1, [sl]
 80077c2:	fa90 f023 	shadd16	r0, r0, r3
 80077c6:	fa91 f123 	shadd16	r1, r1, r3
 80077ca:	fa90 f023 	shadd16	r0, r0, r3
 80077ce:	fa91 fb23 	shadd16	fp, r1, r3
 80077d2:	fa92 f223 	shadd16	r2, r2, r3
 80077d6:	6829      	ldr	r1, [r5, #0]
 80077d8:	fa92 f223 	shadd16	r2, r2, r3
 80077dc:	fa91 f123 	shadd16	r1, r1, r3
 80077e0:	fa90 f612 	qadd16	r6, r0, r2
 80077e4:	fa91 f123 	shadd16	r1, r1, r3
 80077e8:	fa9b f111 	qadd16	r1, fp, r1
 80077ec:	fa96 fb21 	shadd16	fp, r6, r1
 80077f0:	f848 bb04 	str.w	fp, [r8], #4
 80077f4:	fad6 f611 	qsub16	r6, r6, r1
 80077f8:	fad0 f212 	qsub16	r2, r0, r2
 80077fc:	f857 1034 	ldr.w	r1, [r7, r4, lsl #3]
 8007800:	fb41 f006 	smusd	r0, r1, r6
 8007804:	fb21 f116 	smuadx	r1, r1, r6
 8007808:	ea01 010e 	and.w	r1, r1, lr
 800780c:	ea41 4110 	orr.w	r1, r1, r0, lsr #16
 8007810:	f8da 0000 	ldr.w	r0, [sl]
 8007814:	f84a 1b04 	str.w	r1, [sl], #4
 8007818:	fa90 f023 	shadd16	r0, r0, r3
 800781c:	682e      	ldr	r6, [r5, #0]
 800781e:	fa90 f023 	shadd16	r0, r0, r3
 8007822:	fa96 f623 	shadd16	r6, r6, r3
 8007826:	f857 1024 	ldr.w	r1, [r7, r4, lsl #2]
 800782a:	fa96 f623 	shadd16	r6, r6, r3
 800782e:	fad0 f016 	qsub16	r0, r0, r6
 8007832:	fae2 f610 	qsax	r6, r2, r0
 8007836:	faa2 f210 	qasx	r2, r2, r0
 800783a:	fb41 fb02 	smusd	fp, r1, r2
 800783e:	fb21 f212 	smuadx	r2, r1, r2
 8007842:	ea02 020e 	and.w	r2, r2, lr
 8007846:	ea42 421b 	orr.w	r2, r2, fp, lsr #16
 800784a:	f84c 2b04 	str.w	r2, [ip], #4
 800784e:	eb04 0244 	add.w	r2, r4, r4, lsl #1
 8007852:	f857 2022 	ldr.w	r2, [r7, r2, lsl #2]
 8007856:	fb42 f106 	smusd	r1, r2, r6
 800785a:	fb22 f216 	smuadx	r2, r2, r6
 800785e:	ea02 020e 	and.w	r2, r2, lr
 8007862:	ea42 4211 	orr.w	r2, r2, r1, lsr #16
 8007866:	f845 2b04 	str.w	r2, [r5], #4
 800786a:	9a03      	ldr	r2, [sp, #12]
 800786c:	f1b9 0901 	subs.w	r9, r9, #1
 8007870:	4414      	add	r4, r2
 8007872:	d1a0      	bne.n	80077b6 <arm_radix4_butterfly_inverse_q15+0x27e>
 8007874:	9a11      	ldr	r2, [sp, #68]	@ 0x44
 8007876:	9b03      	ldr	r3, [sp, #12]
 8007878:	2a04      	cmp	r2, #4
 800787a:	ea4f 0383 	mov.w	r3, r3, lsl #2
 800787e:	f63f aed9 	bhi.w	8007634 <arm_radix4_butterfly_inverse_q15+0xfc>
 8007882:	9b0f      	ldr	r3, [sp, #60]	@ 0x3c
 8007884:	4614      	mov	r4, r2
 8007886:	e76c      	b.n	8007762 <arm_radix4_butterfly_inverse_q15+0x22a>
 8007888:	ffff0000 	.word	0xffff0000

0800788c <arm_bitreversal_16>:
 800788c:	b1f1      	cbz	r1, 80078cc <arm_bitreversal_16+0x40>
 800788e:	b4f0      	push	{r4, r5, r6, r7}
 8007890:	2400      	movs	r4, #0
 8007892:	eb02 0544 	add.w	r5, r2, r4, lsl #1
 8007896:	f832 3014 	ldrh.w	r3, [r2, r4, lsl #1]
 800789a:	886d      	ldrh	r5, [r5, #2]
 800789c:	08ad      	lsrs	r5, r5, #2
 800789e:	089b      	lsrs	r3, r3, #2
 80078a0:	f830 6015 	ldrh.w	r6, [r0, r5, lsl #1]
 80078a4:	f830 7013 	ldrh.w	r7, [r0, r3, lsl #1]
 80078a8:	f820 6013 	strh.w	r6, [r0, r3, lsl #1]
 80078ac:	006e      	lsls	r6, r5, #1
 80078ae:	005b      	lsls	r3, r3, #1
 80078b0:	f820 7015 	strh.w	r7, [r0, r5, lsl #1]
 80078b4:	3302      	adds	r3, #2
 80078b6:	1cb5      	adds	r5, r6, #2
 80078b8:	3402      	adds	r4, #2
 80078ba:	b2a4      	uxth	r4, r4
 80078bc:	5ac6      	ldrh	r6, [r0, r3]
 80078be:	5b47      	ldrh	r7, [r0, r5]
 80078c0:	52c7      	strh	r7, [r0, r3]
 80078c2:	42a1      	cmp	r1, r4
 80078c4:	5346      	strh	r6, [r0, r5]
 80078c6:	d8e4      	bhi.n	8007892 <arm_bitreversal_16+0x6>
 80078c8:	bcf0      	pop	{r4, r5, r6, r7}
 80078ca:	4770      	bx	lr
 80078cc:	4770      	bx	lr
 80078ce:	bf00      	nop

080078d0 <std>:
 80078d0:	2300      	movs	r3, #0
 80078d2:	b510      	push	{r4, lr}
 80078d4:	4604      	mov	r4, r0
 80078d6:	e9c0 3300 	strd	r3, r3, [r0]
 80078da:	e9c0 3304 	strd	r3, r3, [r0, #16]
 80078de:	6083      	str	r3, [r0, #8]
 80078e0:	8181      	strh	r1, [r0, #12]
 80078e2:	6643      	str	r3, [r0, #100]	@ 0x64
 80078e4:	81c2      	strh	r2, [r0, #14]
 80078e6:	6183      	str	r3, [r0, #24]
 80078e8:	4619      	mov	r1, r3
 80078ea:	2208      	movs	r2, #8
 80078ec:	305c      	adds	r0, #92	@ 0x5c
 80078ee:	f000 faad 	bl	8007e4c <memset>
 80078f2:	4b0d      	ldr	r3, [pc, #52]	@ (8007928 <std+0x58>)
 80078f4:	6263      	str	r3, [r4, #36]	@ 0x24
 80078f6:	4b0d      	ldr	r3, [pc, #52]	@ (800792c <std+0x5c>)
 80078f8:	62a3      	str	r3, [r4, #40]	@ 0x28
 80078fa:	4b0d      	ldr	r3, [pc, #52]	@ (8007930 <std+0x60>)
 80078fc:	62e3      	str	r3, [r4, #44]	@ 0x2c
 80078fe:	4b0d      	ldr	r3, [pc, #52]	@ (8007934 <std+0x64>)
 8007900:	6323      	str	r3, [r4, #48]	@ 0x30
 8007902:	4b0d      	ldr	r3, [pc, #52]	@ (8007938 <std+0x68>)
 8007904:	6224      	str	r4, [r4, #32]
 8007906:	429c      	cmp	r4, r3
 8007908:	d006      	beq.n	8007918 <std+0x48>
 800790a:	f103 0268 	add.w	r2, r3, #104	@ 0x68
 800790e:	4294      	cmp	r4, r2
 8007910:	d002      	beq.n	8007918 <std+0x48>
 8007912:	33d0      	adds	r3, #208	@ 0xd0
 8007914:	429c      	cmp	r4, r3
 8007916:	d105      	bne.n	8007924 <std+0x54>
 8007918:	f104 0058 	add.w	r0, r4, #88	@ 0x58
 800791c:	e8bd 4010 	ldmia.w	sp!, {r4, lr}
 8007920:	f000 bb0c 	b.w	8007f3c <__retarget_lock_init_recursive>
 8007924:	bd10      	pop	{r4, pc}
 8007926:	bf00      	nop
 8007928:	08007c9d 	.word	0x08007c9d
 800792c:	08007cbf 	.word	0x08007cbf
 8007930:	08007cf7 	.word	0x08007cf7
 8007934:	08007d1b 	.word	0x08007d1b
 8007938:	20001e20 	.word	0x20001e20

0800793c <stdio_exit_handler>:
 800793c:	4a02      	ldr	r2, [pc, #8]	@ (8007948 <stdio_exit_handler+0xc>)
 800793e:	4903      	ldr	r1, [pc, #12]	@ (800794c <stdio_exit_handler+0x10>)
 8007940:	4803      	ldr	r0, [pc, #12]	@ (8007950 <stdio_exit_handler+0x14>)
 8007942:	f000 b869 	b.w	8007a18 <_fwalk_sglue>
 8007946:	bf00      	nop
 8007948:	2000040c 	.word	0x2000040c
 800794c:	08008809 	.word	0x08008809
 8007950:	2000041c 	.word	0x2000041c

08007954 <cleanup_stdio>:
 8007954:	6841      	ldr	r1, [r0, #4]
 8007956:	4b0c      	ldr	r3, [pc, #48]	@ (8007988 <cleanup_stdio+0x34>)
 8007958:	4299      	cmp	r1, r3
 800795a:	b510      	push	{r4, lr}
 800795c:	4604      	mov	r4, r0
 800795e:	d001      	beq.n	8007964 <cleanup_stdio+0x10>
 8007960:	f000 ff52 	bl	8008808 <_fflush_r>
 8007964:	68a1      	ldr	r1, [r4, #8]
 8007966:	4b09      	ldr	r3, [pc, #36]	@ (800798c <cleanup_stdio+0x38>)
 8007968:	4299      	cmp	r1, r3
 800796a:	d002      	beq.n	8007972 <cleanup_stdio+0x1e>
 800796c:	4620      	mov	r0, r4
 800796e:	f000 ff4b 	bl	8008808 <_fflush_r>
 8007972:	68e1      	ldr	r1, [r4, #12]
 8007974:	4b06      	ldr	r3, [pc, #24]	@ (8007990 <cleanup_stdio+0x3c>)
 8007976:	4299      	cmp	r1, r3
 8007978:	d004      	beq.n	8007984 <cleanup_stdio+0x30>
 800797a:	4620      	mov	r0, r4
 800797c:	e8bd 4010 	ldmia.w	sp!, {r4, lr}
 8007980:	f000 bf42 	b.w	8008808 <_fflush_r>
 8007984:	bd10      	pop	{r4, pc}
 8007986:	bf00      	nop
 8007988:	20001e20 	.word	0x20001e20
 800798c:	20001e88 	.word	0x20001e88
 8007990:	20001ef0 	.word	0x20001ef0

08007994 <global_stdio_init.part.0>:
 8007994:	b510      	push	{r4, lr}
 8007996:	4b0b      	ldr	r3, [pc, #44]	@ (80079c4 <global_stdio_init.part.0+0x30>)
 8007998:	4c0b      	ldr	r4, [pc, #44]	@ (80079c8 <global_stdio_init.part.0+0x34>)
 800799a:	4a0c      	ldr	r2, [pc, #48]	@ (80079cc <global_stdio_init.part.0+0x38>)
 800799c:	601a      	str	r2, [r3, #0]
 800799e:	4620      	mov	r0, r4
 80079a0:	2200      	movs	r2, #0
 80079a2:	2104      	movs	r1, #4
 80079a4:	f7ff ff94 	bl	80078d0 <std>
 80079a8:	f104 0068 	add.w	r0, r4, #104	@ 0x68
 80079ac:	2201      	movs	r2, #1
 80079ae:	2109      	movs	r1, #9
 80079b0:	f7ff ff8e 	bl	80078d0 <std>
 80079b4:	f104 00d0 	add.w	r0, r4, #208	@ 0xd0
 80079b8:	2202      	movs	r2, #2
 80079ba:	e8bd 4010 	ldmia.w	sp!, {r4, lr}
 80079be:	2112      	movs	r1, #18
 80079c0:	f7ff bf86 	b.w	80078d0 <std>
 80079c4:	20001f58 	.word	0x20001f58
 80079c8:	20001e20 	.word	0x20001e20
 80079cc:	0800793d 	.word	0x0800793d

080079d0 <__sfp_lock_acquire>:
 80079d0:	4801      	ldr	r0, [pc, #4]	@ (80079d8 <__sfp_lock_acquire+0x8>)
 80079d2:	f000 bab4 	b.w	8007f3e <__retarget_lock_acquire_recursive>
 80079d6:	bf00      	nop
 80079d8:	20001f61 	.word	0x20001f61

080079dc <__sfp_lock_release>:
 80079dc:	4801      	ldr	r0, [pc, #4]	@ (80079e4 <__sfp_lock_release+0x8>)
 80079de:	f000 baaf 	b.w	8007f40 <__retarget_lock_release_recursive>
 80079e2:	bf00      	nop
 80079e4:	20001f61 	.word	0x20001f61

080079e8 <__sinit>:
 80079e8:	b510      	push	{r4, lr}
 80079ea:	4604      	mov	r4, r0
 80079ec:	f7ff fff0 	bl	80079d0 <__sfp_lock_acquire>
 80079f0:	6a23      	ldr	r3, [r4, #32]
 80079f2:	b11b      	cbz	r3, 80079fc <__sinit+0x14>
 80079f4:	e8bd 4010 	ldmia.w	sp!, {r4, lr}
 80079f8:	f7ff bff0 	b.w	80079dc <__sfp_lock_release>
 80079fc:	4b04      	ldr	r3, [pc, #16]	@ (8007a10 <__sinit+0x28>)
 80079fe:	6223      	str	r3, [r4, #32]
 8007a00:	4b04      	ldr	r3, [pc, #16]	@ (8007a14 <__sinit+0x2c>)
 8007a02:	681b      	ldr	r3, [r3, #0]
 8007a04:	2b00      	cmp	r3, #0
 8007a06:	d1f5      	bne.n	80079f4 <__sinit+0xc>
 8007a08:	f7ff ffc4 	bl	8007994 <global_stdio_init.part.0>
 8007a0c:	e7f2      	b.n	80079f4 <__sinit+0xc>
 8007a0e:	bf00      	nop
 8007a10:	08007955 	.word	0x08007955
 8007a14:	20001f58 	.word	0x20001f58

08007a18 <_fwalk_sglue>:
 8007a18:	e92d 43f8 	stmdb	sp!, {r3, r4, r5, r6, r7, r8, r9, lr}
 8007a1c:	4607      	mov	r7, r0
 8007a1e:	4688      	mov	r8, r1
 8007a20:	4614      	mov	r4, r2
 8007a22:	2600      	movs	r6, #0
 8007a24:	e9d4 9501 	ldrd	r9, r5, [r4, #4]
 8007a28:	f1b9 0901 	subs.w	r9, r9, #1
 8007a2c:	d505      	bpl.n	8007a3a <_fwalk_sglue+0x22>
 8007a2e:	6824      	ldr	r4, [r4, #0]
 8007a30:	2c00      	cmp	r4, #0
 8007a32:	d1f7      	bne.n	8007a24 <_fwalk_sglue+0xc>
 8007a34:	4630      	mov	r0, r6
 8007a36:	e8bd 83f8 	ldmia.w	sp!, {r3, r4, r5, r6, r7, r8, r9, pc}
 8007a3a:	89ab      	ldrh	r3, [r5, #12]
 8007a3c:	2b01      	cmp	r3, #1
 8007a3e:	d907      	bls.n	8007a50 <_fwalk_sglue+0x38>
 8007a40:	f9b5 300e 	ldrsh.w	r3, [r5, #14]
 8007a44:	3301      	adds	r3, #1
 8007a46:	d003      	beq.n	8007a50 <_fwalk_sglue+0x38>
 8007a48:	4629      	mov	r1, r5
 8007a4a:	4638      	mov	r0, r7
 8007a4c:	47c0      	blx	r8
 8007a4e:	4306      	orrs	r6, r0
 8007a50:	3568      	adds	r5, #104	@ 0x68
 8007a52:	e7e9      	b.n	8007a28 <_fwalk_sglue+0x10>

08007a54 <iprintf>:
 8007a54:	b40f      	push	{r0, r1, r2, r3}
 8007a56:	b507      	push	{r0, r1, r2, lr}
 8007a58:	4906      	ldr	r1, [pc, #24]	@ (8007a74 <iprintf+0x20>)
 8007a5a:	ab04      	add	r3, sp, #16
 8007a5c:	6808      	ldr	r0, [r1, #0]
 8007a5e:	f853 2b04 	ldr.w	r2, [r3], #4
 8007a62:	6881      	ldr	r1, [r0, #8]
 8007a64:	9301      	str	r3, [sp, #4]
 8007a66:	f000 fba5 	bl	80081b4 <_vfiprintf_r>
 8007a6a:	b003      	add	sp, #12
 8007a6c:	f85d eb04 	ldr.w	lr, [sp], #4
 8007a70:	b004      	add	sp, #16
 8007a72:	4770      	bx	lr
 8007a74:	20000418 	.word	0x20000418

08007a78 <_puts_r>:
 8007a78:	6a03      	ldr	r3, [r0, #32]
 8007a7a:	b570      	push	{r4, r5, r6, lr}
 8007a7c:	6884      	ldr	r4, [r0, #8]
 8007a7e:	4605      	mov	r5, r0
 8007a80:	460e      	mov	r6, r1
 8007a82:	b90b      	cbnz	r3, 8007a88 <_puts_r+0x10>
 8007a84:	f7ff ffb0 	bl	80079e8 <__sinit>
 8007a88:	6e63      	ldr	r3, [r4, #100]	@ 0x64
 8007a8a:	07db      	lsls	r3, r3, #31
 8007a8c:	d405      	bmi.n	8007a9a <_puts_r+0x22>
 8007a8e:	89a3      	ldrh	r3, [r4, #12]
 8007a90:	0598      	lsls	r0, r3, #22
 8007a92:	d402      	bmi.n	8007a9a <_puts_r+0x22>
 8007a94:	6da0      	ldr	r0, [r4, #88]	@ 0x58
 8007a96:	f000 fa52 	bl	8007f3e <__retarget_lock_acquire_recursive>
 8007a9a:	89a3      	ldrh	r3, [r4, #12]
 8007a9c:	0719      	lsls	r1, r3, #28
 8007a9e:	d502      	bpl.n	8007aa6 <_puts_r+0x2e>
 8007aa0:	6923      	ldr	r3, [r4, #16]
 8007aa2:	2b00      	cmp	r3, #0
 8007aa4:	d135      	bne.n	8007b12 <_puts_r+0x9a>
 8007aa6:	4621      	mov	r1, r4
 8007aa8:	4628      	mov	r0, r5
 8007aaa:	f000 f979 	bl	8007da0 <__swsetup_r>
 8007aae:	b380      	cbz	r0, 8007b12 <_puts_r+0x9a>
 8007ab0:	f04f 35ff 	mov.w	r5, #4294967295
 8007ab4:	6e63      	ldr	r3, [r4, #100]	@ 0x64
 8007ab6:	07da      	lsls	r2, r3, #31
 8007ab8:	d405      	bmi.n	8007ac6 <_puts_r+0x4e>
 8007aba:	89a3      	ldrh	r3, [r4, #12]
 8007abc:	059b      	lsls	r3, r3, #22
 8007abe:	d402      	bmi.n	8007ac6 <_puts_r+0x4e>
 8007ac0:	6da0      	ldr	r0, [r4, #88]	@ 0x58
 8007ac2:	f000 fa3d 	bl	8007f40 <__retarget_lock_release_recursive>
 8007ac6:	4628      	mov	r0, r5
 8007ac8:	bd70      	pop	{r4, r5, r6, pc}
 8007aca:	2b00      	cmp	r3, #0
 8007acc:	da04      	bge.n	8007ad8 <_puts_r+0x60>
 8007ace:	69a2      	ldr	r2, [r4, #24]
 8007ad0:	429a      	cmp	r2, r3
 8007ad2:	dc17      	bgt.n	8007b04 <_puts_r+0x8c>
 8007ad4:	290a      	cmp	r1, #10
 8007ad6:	d015      	beq.n	8007b04 <_puts_r+0x8c>
 8007ad8:	6823      	ldr	r3, [r4, #0]
 8007ada:	1c5a      	adds	r2, r3, #1
 8007adc:	6022      	str	r2, [r4, #0]
 8007ade:	7019      	strb	r1, [r3, #0]
 8007ae0:	68a3      	ldr	r3, [r4, #8]
 8007ae2:	f816 1f01 	ldrb.w	r1, [r6, #1]!
 8007ae6:	3b01      	subs	r3, #1
 8007ae8:	60a3      	str	r3, [r4, #8]
 8007aea:	2900      	cmp	r1, #0
 8007aec:	d1ed      	bne.n	8007aca <_puts_r+0x52>
 8007aee:	2b00      	cmp	r3, #0
 8007af0:	da11      	bge.n	8007b16 <_puts_r+0x9e>
 8007af2:	4622      	mov	r2, r4
 8007af4:	210a      	movs	r1, #10
 8007af6:	4628      	mov	r0, r5
 8007af8:	f000 f913 	bl	8007d22 <__swbuf_r>
 8007afc:	3001      	adds	r0, #1
 8007afe:	d0d7      	beq.n	8007ab0 <_puts_r+0x38>
 8007b00:	250a      	movs	r5, #10
 8007b02:	e7d7      	b.n	8007ab4 <_puts_r+0x3c>
 8007b04:	4622      	mov	r2, r4
 8007b06:	4628      	mov	r0, r5
 8007b08:	f000 f90b 	bl	8007d22 <__swbuf_r>
 8007b0c:	3001      	adds	r0, #1
 8007b0e:	d1e7      	bne.n	8007ae0 <_puts_r+0x68>
 8007b10:	e7ce      	b.n	8007ab0 <_puts_r+0x38>
 8007b12:	3e01      	subs	r6, #1
 8007b14:	e7e4      	b.n	8007ae0 <_puts_r+0x68>
 8007b16:	6823      	ldr	r3, [r4, #0]
 8007b18:	1c5a      	adds	r2, r3, #1
 8007b1a:	6022      	str	r2, [r4, #0]
 8007b1c:	220a      	movs	r2, #10
 8007b1e:	701a      	strb	r2, [r3, #0]
 8007b20:	e7ee      	b.n	8007b00 <_puts_r+0x88>
	...

08007b24 <puts>:
 8007b24:	4b02      	ldr	r3, [pc, #8]	@ (8007b30 <puts+0xc>)
 8007b26:	4601      	mov	r1, r0
 8007b28:	6818      	ldr	r0, [r3, #0]
 8007b2a:	f7ff bfa5 	b.w	8007a78 <_puts_r>
 8007b2e:	bf00      	nop
 8007b30:	20000418 	.word	0x20000418

08007b34 <setvbuf>:
 8007b34:	e92d 43f7 	stmdb	sp!, {r0, r1, r2, r4, r5, r6, r7, r8, r9, lr}
 8007b38:	461d      	mov	r5, r3
 8007b3a:	4b57      	ldr	r3, [pc, #348]	@ (8007c98 <setvbuf+0x164>)
 8007b3c:	681f      	ldr	r7, [r3, #0]
 8007b3e:	4604      	mov	r4, r0
 8007b40:	460e      	mov	r6, r1
 8007b42:	4690      	mov	r8, r2
 8007b44:	b127      	cbz	r7, 8007b50 <setvbuf+0x1c>
 8007b46:	6a3b      	ldr	r3, [r7, #32]
 8007b48:	b913      	cbnz	r3, 8007b50 <setvbuf+0x1c>
 8007b4a:	4638      	mov	r0, r7
 8007b4c:	f7ff ff4c 	bl	80079e8 <__sinit>
 8007b50:	f1b8 0f02 	cmp.w	r8, #2
 8007b54:	d006      	beq.n	8007b64 <setvbuf+0x30>
 8007b56:	f1b8 0f01 	cmp.w	r8, #1
 8007b5a:	f200 809a 	bhi.w	8007c92 <setvbuf+0x15e>
 8007b5e:	2d00      	cmp	r5, #0
 8007b60:	f2c0 8097 	blt.w	8007c92 <setvbuf+0x15e>
 8007b64:	6e63      	ldr	r3, [r4, #100]	@ 0x64
 8007b66:	07d9      	lsls	r1, r3, #31
 8007b68:	d405      	bmi.n	8007b76 <setvbuf+0x42>
 8007b6a:	89a3      	ldrh	r3, [r4, #12]
 8007b6c:	059a      	lsls	r2, r3, #22
 8007b6e:	d402      	bmi.n	8007b76 <setvbuf+0x42>
 8007b70:	6da0      	ldr	r0, [r4, #88]	@ 0x58
 8007b72:	f000 f9e4 	bl	8007f3e <__retarget_lock_acquire_recursive>
 8007b76:	4621      	mov	r1, r4
 8007b78:	4638      	mov	r0, r7
 8007b7a:	f000 fe45 	bl	8008808 <_fflush_r>
 8007b7e:	6b61      	ldr	r1, [r4, #52]	@ 0x34
 8007b80:	b141      	cbz	r1, 8007b94 <setvbuf+0x60>
 8007b82:	f104 0344 	add.w	r3, r4, #68	@ 0x44
 8007b86:	4299      	cmp	r1, r3
 8007b88:	d002      	beq.n	8007b90 <setvbuf+0x5c>
 8007b8a:	4638      	mov	r0, r7
 8007b8c:	f000 f9e8 	bl	8007f60 <_free_r>
 8007b90:	2300      	movs	r3, #0
 8007b92:	6363      	str	r3, [r4, #52]	@ 0x34
 8007b94:	2300      	movs	r3, #0
 8007b96:	61a3      	str	r3, [r4, #24]
 8007b98:	6063      	str	r3, [r4, #4]
 8007b9a:	89a3      	ldrh	r3, [r4, #12]
 8007b9c:	061b      	lsls	r3, r3, #24
 8007b9e:	d503      	bpl.n	8007ba8 <setvbuf+0x74>
 8007ba0:	6921      	ldr	r1, [r4, #16]
 8007ba2:	4638      	mov	r0, r7
 8007ba4:	f000 f9dc 	bl	8007f60 <_free_r>
 8007ba8:	89a3      	ldrh	r3, [r4, #12]
 8007baa:	f423 634a 	bic.w	r3, r3, #3232	@ 0xca0
 8007bae:	f023 0303 	bic.w	r3, r3, #3
 8007bb2:	f1b8 0f02 	cmp.w	r8, #2
 8007bb6:	81a3      	strh	r3, [r4, #12]
 8007bb8:	d061      	beq.n	8007c7e <setvbuf+0x14a>
 8007bba:	ab01      	add	r3, sp, #4
 8007bbc:	466a      	mov	r2, sp
 8007bbe:	4621      	mov	r1, r4
 8007bc0:	4638      	mov	r0, r7
 8007bc2:	f000 fe49 	bl	8008858 <__swhatbuf_r>
 8007bc6:	89a3      	ldrh	r3, [r4, #12]
 8007bc8:	4318      	orrs	r0, r3
 8007bca:	81a0      	strh	r0, [r4, #12]
 8007bcc:	bb2d      	cbnz	r5, 8007c1a <setvbuf+0xe6>
 8007bce:	9d00      	ldr	r5, [sp, #0]
 8007bd0:	4628      	mov	r0, r5
 8007bd2:	f000 fa0f 	bl	8007ff4 <malloc>
 8007bd6:	4606      	mov	r6, r0
 8007bd8:	2800      	cmp	r0, #0
 8007bda:	d152      	bne.n	8007c82 <setvbuf+0x14e>
 8007bdc:	f8dd 9000 	ldr.w	r9, [sp]
 8007be0:	45a9      	cmp	r9, r5
 8007be2:	d140      	bne.n	8007c66 <setvbuf+0x132>
 8007be4:	f04f 35ff 	mov.w	r5, #4294967295
 8007be8:	f9b4 300c 	ldrsh.w	r3, [r4, #12]
 8007bec:	f043 0202 	orr.w	r2, r3, #2
 8007bf0:	81a2      	strh	r2, [r4, #12]
 8007bf2:	2200      	movs	r2, #0
 8007bf4:	60a2      	str	r2, [r4, #8]
 8007bf6:	f104 0247 	add.w	r2, r4, #71	@ 0x47
 8007bfa:	6022      	str	r2, [r4, #0]
 8007bfc:	6122      	str	r2, [r4, #16]
 8007bfe:	2201      	movs	r2, #1
 8007c00:	6162      	str	r2, [r4, #20]
 8007c02:	6e62      	ldr	r2, [r4, #100]	@ 0x64
 8007c04:	07d6      	lsls	r6, r2, #31
 8007c06:	d404      	bmi.n	8007c12 <setvbuf+0xde>
 8007c08:	0598      	lsls	r0, r3, #22
 8007c0a:	d402      	bmi.n	8007c12 <setvbuf+0xde>
 8007c0c:	6da0      	ldr	r0, [r4, #88]	@ 0x58
 8007c0e:	f000 f997 	bl	8007f40 <__retarget_lock_release_recursive>
 8007c12:	4628      	mov	r0, r5
 8007c14:	b003      	add	sp, #12
 8007c16:	e8bd 83f0 	ldmia.w	sp!, {r4, r5, r6, r7, r8, r9, pc}
 8007c1a:	2e00      	cmp	r6, #0
 8007c1c:	d0d8      	beq.n	8007bd0 <setvbuf+0x9c>
 8007c1e:	6a3b      	ldr	r3, [r7, #32]
 8007c20:	b913      	cbnz	r3, 8007c28 <setvbuf+0xf4>
 8007c22:	4638      	mov	r0, r7
 8007c24:	f7ff fee0 	bl	80079e8 <__sinit>
 8007c28:	f1b8 0f01 	cmp.w	r8, #1
 8007c2c:	bf08      	it	eq
 8007c2e:	89a3      	ldrheq	r3, [r4, #12]
 8007c30:	6026      	str	r6, [r4, #0]
 8007c32:	bf04      	itt	eq
 8007c34:	f043 0301 	orreq.w	r3, r3, #1
 8007c38:	81a3      	strheq	r3, [r4, #12]
 8007c3a:	f9b4 300c 	ldrsh.w	r3, [r4, #12]
 8007c3e:	f013 0208 	ands.w	r2, r3, #8
 8007c42:	e9c4 6504 	strd	r6, r5, [r4, #16]
 8007c46:	d01e      	beq.n	8007c86 <setvbuf+0x152>
 8007c48:	07d9      	lsls	r1, r3, #31
 8007c4a:	bf41      	itttt	mi
 8007c4c:	2200      	movmi	r2, #0
 8007c4e:	426d      	negmi	r5, r5
 8007c50:	60a2      	strmi	r2, [r4, #8]
 8007c52:	61a5      	strmi	r5, [r4, #24]
 8007c54:	bf58      	it	pl
 8007c56:	60a5      	strpl	r5, [r4, #8]
 8007c58:	6e62      	ldr	r2, [r4, #100]	@ 0x64
 8007c5a:	07d2      	lsls	r2, r2, #31
 8007c5c:	d401      	bmi.n	8007c62 <setvbuf+0x12e>
 8007c5e:	059b      	lsls	r3, r3, #22
 8007c60:	d513      	bpl.n	8007c8a <setvbuf+0x156>
 8007c62:	2500      	movs	r5, #0
 8007c64:	e7d5      	b.n	8007c12 <setvbuf+0xde>
 8007c66:	4648      	mov	r0, r9
 8007c68:	f000 f9c4 	bl	8007ff4 <malloc>
 8007c6c:	4606      	mov	r6, r0
 8007c6e:	2800      	cmp	r0, #0
 8007c70:	d0b8      	beq.n	8007be4 <setvbuf+0xb0>
 8007c72:	89a3      	ldrh	r3, [r4, #12]
 8007c74:	f043 0380 	orr.w	r3, r3, #128	@ 0x80
 8007c78:	81a3      	strh	r3, [r4, #12]
 8007c7a:	464d      	mov	r5, r9
 8007c7c:	e7cf      	b.n	8007c1e <setvbuf+0xea>
 8007c7e:	2500      	movs	r5, #0
 8007c80:	e7b2      	b.n	8007be8 <setvbuf+0xb4>
 8007c82:	46a9      	mov	r9, r5
 8007c84:	e7f5      	b.n	8007c72 <setvbuf+0x13e>
 8007c86:	60a2      	str	r2, [r4, #8]
 8007c88:	e7e6      	b.n	8007c58 <setvbuf+0x124>
 8007c8a:	6da0      	ldr	r0, [r4, #88]	@ 0x58
 8007c8c:	f000 f958 	bl	8007f40 <__retarget_lock_release_recursive>
 8007c90:	e7e7      	b.n	8007c62 <setvbuf+0x12e>
 8007c92:	f04f 35ff 	mov.w	r5, #4294967295
 8007c96:	e7bc      	b.n	8007c12 <setvbuf+0xde>
 8007c98:	20000418 	.word	0x20000418

08007c9c <__sread>:
 8007c9c:	b510      	push	{r4, lr}
 8007c9e:	460c      	mov	r4, r1
 8007ca0:	f9b1 100e 	ldrsh.w	r1, [r1, #14]
 8007ca4:	f000 f8fc 	bl	8007ea0 <_read_r>
 8007ca8:	2800      	cmp	r0, #0
 8007caa:	bfab      	itete	ge
 8007cac:	6d63      	ldrge	r3, [r4, #84]	@ 0x54
 8007cae:	89a3      	ldrhlt	r3, [r4, #12]
 8007cb0:	181b      	addge	r3, r3, r0
 8007cb2:	f423 5380 	biclt.w	r3, r3, #4096	@ 0x1000
 8007cb6:	bfac      	ite	ge
 8007cb8:	6563      	strge	r3, [r4, #84]	@ 0x54
 8007cba:	81a3      	strhlt	r3, [r4, #12]
 8007cbc:	bd10      	pop	{r4, pc}

08007cbe <__swrite>:
 8007cbe:	e92d 41f0 	stmdb	sp!, {r4, r5, r6, r7, r8, lr}
 8007cc2:	461f      	mov	r7, r3
 8007cc4:	898b      	ldrh	r3, [r1, #12]
 8007cc6:	05db      	lsls	r3, r3, #23
 8007cc8:	4605      	mov	r5, r0
 8007cca:	460c      	mov	r4, r1
 8007ccc:	4616      	mov	r6, r2
 8007cce:	d505      	bpl.n	8007cdc <__swrite+0x1e>
 8007cd0:	f9b1 100e 	ldrsh.w	r1, [r1, #14]
 8007cd4:	2302      	movs	r3, #2
 8007cd6:	2200      	movs	r2, #0
 8007cd8:	f000 f8d0 	bl	8007e7c <_lseek_r>
 8007cdc:	89a3      	ldrh	r3, [r4, #12]
 8007cde:	f9b4 100e 	ldrsh.w	r1, [r4, #14]
 8007ce2:	f423 5380 	bic.w	r3, r3, #4096	@ 0x1000
 8007ce6:	81a3      	strh	r3, [r4, #12]
 8007ce8:	4632      	mov	r2, r6
 8007cea:	463b      	mov	r3, r7
 8007cec:	4628      	mov	r0, r5
 8007cee:	e8bd 41f0 	ldmia.w	sp!, {r4, r5, r6, r7, r8, lr}
 8007cf2:	f000 b8e7 	b.w	8007ec4 <_write_r>

08007cf6 <__sseek>:
 8007cf6:	b510      	push	{r4, lr}
 8007cf8:	460c      	mov	r4, r1
 8007cfa:	f9b1 100e 	ldrsh.w	r1, [r1, #14]
 8007cfe:	f000 f8bd 	bl	8007e7c <_lseek_r>
 8007d02:	1c43      	adds	r3, r0, #1
 8007d04:	89a3      	ldrh	r3, [r4, #12]
 8007d06:	bf15      	itete	ne
 8007d08:	6560      	strne	r0, [r4, #84]	@ 0x54
 8007d0a:	f423 5380 	biceq.w	r3, r3, #4096	@ 0x1000
 8007d0e:	f443 5380 	orrne.w	r3, r3, #4096	@ 0x1000
 8007d12:	81a3      	strheq	r3, [r4, #12]
 8007d14:	bf18      	it	ne
 8007d16:	81a3      	strhne	r3, [r4, #12]
 8007d18:	bd10      	pop	{r4, pc}

08007d1a <__sclose>:
 8007d1a:	f9b1 100e 	ldrsh.w	r1, [r1, #14]
 8007d1e:	f000 b89d 	b.w	8007e5c <_close_r>

08007d22 <__swbuf_r>:
 8007d22:	b5f8      	push	{r3, r4, r5, r6, r7, lr}
 8007d24:	460e      	mov	r6, r1
 8007d26:	4614      	mov	r4, r2
 8007d28:	4605      	mov	r5, r0
 8007d2a:	b118      	cbz	r0, 8007d34 <__swbuf_r+0x12>
 8007d2c:	6a03      	ldr	r3, [r0, #32]
 8007d2e:	b90b      	cbnz	r3, 8007d34 <__swbuf_r+0x12>
 8007d30:	f7ff fe5a 	bl	80079e8 <__sinit>
 8007d34:	69a3      	ldr	r3, [r4, #24]
 8007d36:	60a3      	str	r3, [r4, #8]
 8007d38:	89a3      	ldrh	r3, [r4, #12]
 8007d3a:	071a      	lsls	r2, r3, #28
 8007d3c:	d501      	bpl.n	8007d42 <__swbuf_r+0x20>
 8007d3e:	6923      	ldr	r3, [r4, #16]
 8007d40:	b943      	cbnz	r3, 8007d54 <__swbuf_r+0x32>
 8007d42:	4621      	mov	r1, r4
 8007d44:	4628      	mov	r0, r5
 8007d46:	f000 f82b 	bl	8007da0 <__swsetup_r>
 8007d4a:	b118      	cbz	r0, 8007d54 <__swbuf_r+0x32>
 8007d4c:	f04f 37ff 	mov.w	r7, #4294967295
 8007d50:	4638      	mov	r0, r7
 8007d52:	bdf8      	pop	{r3, r4, r5, r6, r7, pc}
 8007d54:	6823      	ldr	r3, [r4, #0]
 8007d56:	6922      	ldr	r2, [r4, #16]
 8007d58:	1a98      	subs	r0, r3, r2
 8007d5a:	6963      	ldr	r3, [r4, #20]
 8007d5c:	b2f6      	uxtb	r6, r6
 8007d5e:	4283      	cmp	r3, r0
 8007d60:	4637      	mov	r7, r6
 8007d62:	dc05      	bgt.n	8007d70 <__swbuf_r+0x4e>
 8007d64:	4621      	mov	r1, r4
 8007d66:	4628      	mov	r0, r5
 8007d68:	f000 fd4e 	bl	8008808 <_fflush_r>
 8007d6c:	2800      	cmp	r0, #0
 8007d6e:	d1ed      	bne.n	8007d4c <__swbuf_r+0x2a>
 8007d70:	68a3      	ldr	r3, [r4, #8]
 8007d72:	3b01      	subs	r3, #1
 8007d74:	60a3      	str	r3, [r4, #8]
 8007d76:	6823      	ldr	r3, [r4, #0]
 8007d78:	1c5a      	adds	r2, r3, #1
 8007d7a:	6022      	str	r2, [r4, #0]
 8007d7c:	701e      	strb	r6, [r3, #0]
 8007d7e:	6962      	ldr	r2, [r4, #20]
 8007d80:	1c43      	adds	r3, r0, #1
 8007d82:	429a      	cmp	r2, r3
 8007d84:	d004      	beq.n	8007d90 <__swbuf_r+0x6e>
 8007d86:	89a3      	ldrh	r3, [r4, #12]
 8007d88:	07db      	lsls	r3, r3, #31
 8007d8a:	d5e1      	bpl.n	8007d50 <__swbuf_r+0x2e>
 8007d8c:	2e0a      	cmp	r6, #10
 8007d8e:	d1df      	bne.n	8007d50 <__swbuf_r+0x2e>
 8007d90:	4621      	mov	r1, r4
 8007d92:	4628      	mov	r0, r5
 8007d94:	f000 fd38 	bl	8008808 <_fflush_r>
 8007d98:	2800      	cmp	r0, #0
 8007d9a:	d0d9      	beq.n	8007d50 <__swbuf_r+0x2e>
 8007d9c:	e7d6      	b.n	8007d4c <__swbuf_r+0x2a>
	...

08007da0 <__swsetup_r>:
 8007da0:	b538      	push	{r3, r4, r5, lr}
 8007da2:	4b29      	ldr	r3, [pc, #164]	@ (8007e48 <__swsetup_r+0xa8>)
 8007da4:	4605      	mov	r5, r0
 8007da6:	6818      	ldr	r0, [r3, #0]
 8007da8:	460c      	mov	r4, r1
 8007daa:	b118      	cbz	r0, 8007db4 <__swsetup_r+0x14>
 8007dac:	6a03      	ldr	r3, [r0, #32]
 8007dae:	b90b      	cbnz	r3, 8007db4 <__swsetup_r+0x14>
 8007db0:	f7ff fe1a 	bl	80079e8 <__sinit>
 8007db4:	f9b4 300c 	ldrsh.w	r3, [r4, #12]
 8007db8:	0719      	lsls	r1, r3, #28
 8007dba:	d422      	bmi.n	8007e02 <__swsetup_r+0x62>
 8007dbc:	06da      	lsls	r2, r3, #27
 8007dbe:	d407      	bmi.n	8007dd0 <__swsetup_r+0x30>
 8007dc0:	2209      	movs	r2, #9
 8007dc2:	602a      	str	r2, [r5, #0]
 8007dc4:	f043 0340 	orr.w	r3, r3, #64	@ 0x40
 8007dc8:	81a3      	strh	r3, [r4, #12]
 8007dca:	f04f 30ff 	mov.w	r0, #4294967295
 8007dce:	e033      	b.n	8007e38 <__swsetup_r+0x98>
 8007dd0:	0758      	lsls	r0, r3, #29
 8007dd2:	d512      	bpl.n	8007dfa <__swsetup_r+0x5a>
 8007dd4:	6b61      	ldr	r1, [r4, #52]	@ 0x34
 8007dd6:	b141      	cbz	r1, 8007dea <__swsetup_r+0x4a>
 8007dd8:	f104 0344 	add.w	r3, r4, #68	@ 0x44
 8007ddc:	4299      	cmp	r1, r3
 8007dde:	d002      	beq.n	8007de6 <__swsetup_r+0x46>
 8007de0:	4628      	mov	r0, r5
 8007de2:	f000 f8bd 	bl	8007f60 <_free_r>
 8007de6:	2300      	movs	r3, #0
 8007de8:	6363      	str	r3, [r4, #52]	@ 0x34
 8007dea:	89a3      	ldrh	r3, [r4, #12]
 8007dec:	f023 0324 	bic.w	r3, r3, #36	@ 0x24
 8007df0:	81a3      	strh	r3, [r4, #12]
 8007df2:	2300      	movs	r3, #0
 8007df4:	6063      	str	r3, [r4, #4]
 8007df6:	6923      	ldr	r3, [r4, #16]
 8007df8:	6023      	str	r3, [r4, #0]
 8007dfa:	89a3      	ldrh	r3, [r4, #12]
 8007dfc:	f043 0308 	orr.w	r3, r3, #8
 8007e00:	81a3      	strh	r3, [r4, #12]
 8007e02:	6923      	ldr	r3, [r4, #16]
 8007e04:	b94b      	cbnz	r3, 8007e1a <__swsetup_r+0x7a>
 8007e06:	89a3      	ldrh	r3, [r4, #12]
 8007e08:	f403 7320 	and.w	r3, r3, #640	@ 0x280
 8007e0c:	f5b3 7f00 	cmp.w	r3, #512	@ 0x200
 8007e10:	d003      	beq.n	8007e1a <__swsetup_r+0x7a>
 8007e12:	4621      	mov	r1, r4
 8007e14:	4628      	mov	r0, r5
 8007e16:	f000 fd45 	bl	80088a4 <__smakebuf_r>
 8007e1a:	f9b4 300c 	ldrsh.w	r3, [r4, #12]
 8007e1e:	f013 0201 	ands.w	r2, r3, #1
 8007e22:	d00a      	beq.n	8007e3a <__swsetup_r+0x9a>
 8007e24:	2200      	movs	r2, #0
 8007e26:	60a2      	str	r2, [r4, #8]
 8007e28:	6962      	ldr	r2, [r4, #20]
 8007e2a:	4252      	negs	r2, r2
 8007e2c:	61a2      	str	r2, [r4, #24]
 8007e2e:	6922      	ldr	r2, [r4, #16]
 8007e30:	b942      	cbnz	r2, 8007e44 <__swsetup_r+0xa4>
 8007e32:	f013 0080 	ands.w	r0, r3, #128	@ 0x80
 8007e36:	d1c5      	bne.n	8007dc4 <__swsetup_r+0x24>
 8007e38:	bd38      	pop	{r3, r4, r5, pc}
 8007e3a:	0799      	lsls	r1, r3, #30
 8007e3c:	bf58      	it	pl
 8007e3e:	6962      	ldrpl	r2, [r4, #20]
 8007e40:	60a2      	str	r2, [r4, #8]
 8007e42:	e7f4      	b.n	8007e2e <__swsetup_r+0x8e>
 8007e44:	2000      	movs	r0, #0
 8007e46:	e7f7      	b.n	8007e38 <__swsetup_r+0x98>
 8007e48:	20000418 	.word	0x20000418

08007e4c <memset>:
 8007e4c:	4402      	add	r2, r0
 8007e4e:	4603      	mov	r3, r0
 8007e50:	4293      	cmp	r3, r2
 8007e52:	d100      	bne.n	8007e56 <memset+0xa>
 8007e54:	4770      	bx	lr
 8007e56:	f803 1b01 	strb.w	r1, [r3], #1
 8007e5a:	e7f9      	b.n	8007e50 <memset+0x4>

08007e5c <_close_r>:
 8007e5c:	b538      	push	{r3, r4, r5, lr}
 8007e5e:	4d06      	ldr	r5, [pc, #24]	@ (8007e78 <_close_r+0x1c>)
 8007e60:	2300      	movs	r3, #0
 8007e62:	4604      	mov	r4, r0
 8007e64:	4608      	mov	r0, r1
 8007e66:	602b      	str	r3, [r5, #0]
 8007e68:	f7f9 f8e6 	bl	8001038 <_close>
 8007e6c:	1c43      	adds	r3, r0, #1
 8007e6e:	d102      	bne.n	8007e76 <_close_r+0x1a>
 8007e70:	682b      	ldr	r3, [r5, #0]
 8007e72:	b103      	cbz	r3, 8007e76 <_close_r+0x1a>
 8007e74:	6023      	str	r3, [r4, #0]
 8007e76:	bd38      	pop	{r3, r4, r5, pc}
 8007e78:	20001f5c 	.word	0x20001f5c

08007e7c <_lseek_r>:
 8007e7c:	b538      	push	{r3, r4, r5, lr}
 8007e7e:	4d07      	ldr	r5, [pc, #28]	@ (8007e9c <_lseek_r+0x20>)
 8007e80:	4604      	mov	r4, r0
 8007e82:	4608      	mov	r0, r1
 8007e84:	4611      	mov	r1, r2
 8007e86:	2200      	movs	r2, #0
 8007e88:	602a      	str	r2, [r5, #0]
 8007e8a:	461a      	mov	r2, r3
 8007e8c:	f7f9 f8e0 	bl	8001050 <_lseek>
 8007e90:	1c43      	adds	r3, r0, #1
 8007e92:	d102      	bne.n	8007e9a <_lseek_r+0x1e>
 8007e94:	682b      	ldr	r3, [r5, #0]
 8007e96:	b103      	cbz	r3, 8007e9a <_lseek_r+0x1e>
 8007e98:	6023      	str	r3, [r4, #0]
 8007e9a:	bd38      	pop	{r3, r4, r5, pc}
 8007e9c:	20001f5c 	.word	0x20001f5c

08007ea0 <_read_r>:
 8007ea0:	b538      	push	{r3, r4, r5, lr}
 8007ea2:	4d07      	ldr	r5, [pc, #28]	@ (8007ec0 <_read_r+0x20>)
 8007ea4:	4604      	mov	r4, r0
 8007ea6:	4608      	mov	r0, r1
 8007ea8:	4611      	mov	r1, r2
 8007eaa:	2200      	movs	r2, #0
 8007eac:	602a      	str	r2, [r5, #0]
 8007eae:	461a      	mov	r2, r3
 8007eb0:	f7f9 f8d6 	bl	8001060 <_read>
 8007eb4:	1c43      	adds	r3, r0, #1
 8007eb6:	d102      	bne.n	8007ebe <_read_r+0x1e>
 8007eb8:	682b      	ldr	r3, [r5, #0]
 8007eba:	b103      	cbz	r3, 8007ebe <_read_r+0x1e>
 8007ebc:	6023      	str	r3, [r4, #0]
 8007ebe:	bd38      	pop	{r3, r4, r5, pc}
 8007ec0:	20001f5c 	.word	0x20001f5c

08007ec4 <_write_r>:
 8007ec4:	b538      	push	{r3, r4, r5, lr}
 8007ec6:	4d07      	ldr	r5, [pc, #28]	@ (8007ee4 <_write_r+0x20>)
 8007ec8:	4604      	mov	r4, r0
 8007eca:	4608      	mov	r0, r1
 8007ecc:	4611      	mov	r1, r2
 8007ece:	2200      	movs	r2, #0
 8007ed0:	602a      	str	r2, [r5, #0]
 8007ed2:	461a      	mov	r2, r3
 8007ed4:	f7f9 f896 	bl	8001004 <_write>
 8007ed8:	1c43      	adds	r3, r0, #1
 8007eda:	d102      	bne.n	8007ee2 <_write_r+0x1e>
 8007edc:	682b      	ldr	r3, [r5, #0]
 8007ede:	b103      	cbz	r3, 8007ee2 <_write_r+0x1e>
 8007ee0:	6023      	str	r3, [r4, #0]
 8007ee2:	bd38      	pop	{r3, r4, r5, pc}
 8007ee4:	20001f5c 	.word	0x20001f5c

08007ee8 <__errno>:
 8007ee8:	4b01      	ldr	r3, [pc, #4]	@ (8007ef0 <__errno+0x8>)
 8007eea:	6818      	ldr	r0, [r3, #0]
 8007eec:	4770      	bx	lr
 8007eee:	bf00      	nop
 8007ef0:	20000418 	.word	0x20000418

08007ef4 <__libc_init_array>:
 8007ef4:	b570      	push	{r4, r5, r6, lr}
 8007ef6:	4d0d      	ldr	r5, [pc, #52]	@ (8007f2c <__libc_init_array+0x38>)
 8007ef8:	4c0d      	ldr	r4, [pc, #52]	@ (8007f30 <__libc_init_array+0x3c>)
 8007efa:	1b64      	subs	r4, r4, r5
 8007efc:	10a4      	asrs	r4, r4, #2
 8007efe:	2600      	movs	r6, #0
 8007f00:	42a6      	cmp	r6, r4
 8007f02:	d109      	bne.n	8007f18 <__libc_init_array+0x24>
 8007f04:	4d0b      	ldr	r5, [pc, #44]	@ (8007f34 <__libc_init_array+0x40>)
 8007f06:	4c0c      	ldr	r4, [pc, #48]	@ (8007f38 <__libc_init_array+0x44>)
 8007f08:	f000 fd3a 	bl	8008980 <_init>
 8007f0c:	1b64      	subs	r4, r4, r5
 8007f0e:	10a4      	asrs	r4, r4, #2
 8007f10:	2600      	movs	r6, #0
 8007f12:	42a6      	cmp	r6, r4
 8007f14:	d105      	bne.n	8007f22 <__libc_init_array+0x2e>
 8007f16:	bd70      	pop	{r4, r5, r6, pc}
 8007f18:	f855 3b04 	ldr.w	r3, [r5], #4
 8007f1c:	4798      	blx	r3
 8007f1e:	3601      	adds	r6, #1
 8007f20:	e7ee      	b.n	8007f00 <__libc_init_array+0xc>
 8007f22:	f855 3b04 	ldr.w	r3, [r5], #4
 8007f26:	4798      	blx	r3
 8007f28:	3601      	adds	r6, #1
 8007f2a:	e7f2      	b.n	8007f12 <__libc_init_array+0x1e>
 8007f2c:	0801b6e8 	.word	0x0801b6e8
 8007f30:	0801b6e8 	.word	0x0801b6e8
 8007f34:	0801b6e8 	.word	0x0801b6e8
 8007f38:	0801b6ec 	.word	0x0801b6ec

08007f3c <__retarget_lock_init_recursive>:
 8007f3c:	4770      	bx	lr

08007f3e <__retarget_lock_acquire_recursive>:
 8007f3e:	4770      	bx	lr

08007f40 <__retarget_lock_release_recursive>:
 8007f40:	4770      	bx	lr

08007f42 <memcpy>:
 8007f42:	440a      	add	r2, r1
 8007f44:	4291      	cmp	r1, r2
 8007f46:	f100 33ff 	add.w	r3, r0, #4294967295
 8007f4a:	d100      	bne.n	8007f4e <memcpy+0xc>
 8007f4c:	4770      	bx	lr
 8007f4e:	b510      	push	{r4, lr}
 8007f50:	f811 4b01 	ldrb.w	r4, [r1], #1
 8007f54:	f803 4f01 	strb.w	r4, [r3, #1]!
 8007f58:	4291      	cmp	r1, r2
 8007f5a:	d1f9      	bne.n	8007f50 <memcpy+0xe>
 8007f5c:	bd10      	pop	{r4, pc}
	...

08007f60 <_free_r>:
 8007f60:	b538      	push	{r3, r4, r5, lr}
 8007f62:	4605      	mov	r5, r0
 8007f64:	2900      	cmp	r1, #0
 8007f66:	d041      	beq.n	8007fec <_free_r+0x8c>
 8007f68:	f851 3c04 	ldr.w	r3, [r1, #-4]
 8007f6c:	1f0c      	subs	r4, r1, #4
 8007f6e:	2b00      	cmp	r3, #0
 8007f70:	bfb8      	it	lt
 8007f72:	18e4      	addlt	r4, r4, r3
 8007f74:	f000 f8e8 	bl	8008148 <__malloc_lock>
 8007f78:	4a1d      	ldr	r2, [pc, #116]	@ (8007ff0 <_free_r+0x90>)
 8007f7a:	6813      	ldr	r3, [r2, #0]
 8007f7c:	b933      	cbnz	r3, 8007f8c <_free_r+0x2c>
 8007f7e:	6063      	str	r3, [r4, #4]
 8007f80:	6014      	str	r4, [r2, #0]
 8007f82:	4628      	mov	r0, r5
 8007f84:	e8bd 4038 	ldmia.w	sp!, {r3, r4, r5, lr}
 8007f88:	f000 b8e4 	b.w	8008154 <__malloc_unlock>
 8007f8c:	42a3      	cmp	r3, r4
 8007f8e:	d908      	bls.n	8007fa2 <_free_r+0x42>
 8007f90:	6820      	ldr	r0, [r4, #0]
 8007f92:	1821      	adds	r1, r4, r0
 8007f94:	428b      	cmp	r3, r1
 8007f96:	bf01      	itttt	eq
 8007f98:	6819      	ldreq	r1, [r3, #0]
 8007f9a:	685b      	ldreq	r3, [r3, #4]
 8007f9c:	1809      	addeq	r1, r1, r0
 8007f9e:	6021      	streq	r1, [r4, #0]
 8007fa0:	e7ed      	b.n	8007f7e <_free_r+0x1e>
 8007fa2:	461a      	mov	r2, r3
 8007fa4:	685b      	ldr	r3, [r3, #4]
 8007fa6:	b10b      	cbz	r3, 8007fac <_free_r+0x4c>
 8007fa8:	42a3      	cmp	r3, r4
 8007faa:	d9fa      	bls.n	8007fa2 <_free_r+0x42>
 8007fac:	6811      	ldr	r1, [r2, #0]
 8007fae:	1850      	adds	r0, r2, r1
 8007fb0:	42a0      	cmp	r0, r4
 8007fb2:	d10b      	bne.n	8007fcc <_free_r+0x6c>
 8007fb4:	6820      	ldr	r0, [r4, #0]
 8007fb6:	4401      	add	r1, r0
 8007fb8:	1850      	adds	r0, r2, r1
 8007fba:	4283      	cmp	r3, r0
 8007fbc:	6011      	str	r1, [r2, #0]
 8007fbe:	d1e0      	bne.n	8007f82 <_free_r+0x22>
 8007fc0:	6818      	ldr	r0, [r3, #0]
 8007fc2:	685b      	ldr	r3, [r3, #4]
 8007fc4:	6053      	str	r3, [r2, #4]
 8007fc6:	4408      	add	r0, r1
 8007fc8:	6010      	str	r0, [r2, #0]
 8007fca:	e7da      	b.n	8007f82 <_free_r+0x22>
 8007fcc:	d902      	bls.n	8007fd4 <_free_r+0x74>
 8007fce:	230c      	movs	r3, #12
 8007fd0:	602b      	str	r3, [r5, #0]
 8007fd2:	e7d6      	b.n	8007f82 <_free_r+0x22>
 8007fd4:	6820      	ldr	r0, [r4, #0]
 8007fd6:	1821      	adds	r1, r4, r0
 8007fd8:	428b      	cmp	r3, r1
 8007fda:	bf04      	itt	eq
 8007fdc:	6819      	ldreq	r1, [r3, #0]
 8007fde:	685b      	ldreq	r3, [r3, #4]
 8007fe0:	6063      	str	r3, [r4, #4]
 8007fe2:	bf04      	itt	eq
 8007fe4:	1809      	addeq	r1, r1, r0
 8007fe6:	6021      	streq	r1, [r4, #0]
 8007fe8:	6054      	str	r4, [r2, #4]
 8007fea:	e7ca      	b.n	8007f82 <_free_r+0x22>
 8007fec:	bd38      	pop	{r3, r4, r5, pc}
 8007fee:	bf00      	nop
 8007ff0:	20001f68 	.word	0x20001f68

08007ff4 <malloc>:
 8007ff4:	4b02      	ldr	r3, [pc, #8]	@ (8008000 <malloc+0xc>)
 8007ff6:	4601      	mov	r1, r0
 8007ff8:	6818      	ldr	r0, [r3, #0]
 8007ffa:	f000 b825 	b.w	8008048 <_malloc_r>
 8007ffe:	bf00      	nop
 8008000:	20000418 	.word	0x20000418

08008004 <sbrk_aligned>:
 8008004:	b570      	push	{r4, r5, r6, lr}
 8008006:	4e0f      	ldr	r6, [pc, #60]	@ (8008044 <sbrk_aligned+0x40>)
 8008008:	460c      	mov	r4, r1
 800800a:	6831      	ldr	r1, [r6, #0]
 800800c:	4605      	mov	r5, r0
 800800e:	b911      	cbnz	r1, 8008016 <sbrk_aligned+0x12>
 8008010:	f000 fca6 	bl	8008960 <_sbrk_r>
 8008014:	6030      	str	r0, [r6, #0]
 8008016:	4621      	mov	r1, r4
 8008018:	4628      	mov	r0, r5
 800801a:	f000 fca1 	bl	8008960 <_sbrk_r>
 800801e:	1c43      	adds	r3, r0, #1
 8008020:	d103      	bne.n	800802a <sbrk_aligned+0x26>
 8008022:	f04f 34ff 	mov.w	r4, #4294967295
 8008026:	4620      	mov	r0, r4
 8008028:	bd70      	pop	{r4, r5, r6, pc}
 800802a:	1cc4      	adds	r4, r0, #3
 800802c:	f024 0403 	bic.w	r4, r4, #3
 8008030:	42a0      	cmp	r0, r4
 8008032:	d0f8      	beq.n	8008026 <sbrk_aligned+0x22>
 8008034:	1a21      	subs	r1, r4, r0
 8008036:	4628      	mov	r0, r5
 8008038:	f000 fc92 	bl	8008960 <_sbrk_r>
 800803c:	3001      	adds	r0, #1
 800803e:	d1f2      	bne.n	8008026 <sbrk_aligned+0x22>
 8008040:	e7ef      	b.n	8008022 <sbrk_aligned+0x1e>
 8008042:	bf00      	nop
 8008044:	20001f64 	.word	0x20001f64

08008048 <_malloc_r>:
 8008048:	e92d 43f8 	stmdb	sp!, {r3, r4, r5, r6, r7, r8, r9, lr}
 800804c:	1ccd      	adds	r5, r1, #3
 800804e:	f025 0503 	bic.w	r5, r5, #3
 8008052:	3508      	adds	r5, #8
 8008054:	2d0c      	cmp	r5, #12
 8008056:	bf38      	it	cc
 8008058:	250c      	movcc	r5, #12
 800805a:	2d00      	cmp	r5, #0
 800805c:	4606      	mov	r6, r0
 800805e:	db01      	blt.n	8008064 <_malloc_r+0x1c>
 8008060:	42a9      	cmp	r1, r5
 8008062:	d904      	bls.n	800806e <_malloc_r+0x26>
 8008064:	230c      	movs	r3, #12
 8008066:	6033      	str	r3, [r6, #0]
 8008068:	2000      	movs	r0, #0
 800806a:	e8bd 83f8 	ldmia.w	sp!, {r3, r4, r5, r6, r7, r8, r9, pc}
 800806e:	f8df 80d4 	ldr.w	r8, [pc, #212]	@ 8008144 <_malloc_r+0xfc>
 8008072:	f000 f869 	bl	8008148 <__malloc_lock>
 8008076:	f8d8 3000 	ldr.w	r3, [r8]
 800807a:	461c      	mov	r4, r3
 800807c:	bb44      	cbnz	r4, 80080d0 <_malloc_r+0x88>
 800807e:	4629      	mov	r1, r5
 8008080:	4630      	mov	r0, r6
 8008082:	f7ff ffbf 	bl	8008004 <sbrk_aligned>
 8008086:	1c43      	adds	r3, r0, #1
 8008088:	4604      	mov	r4, r0
 800808a:	d158      	bne.n	800813e <_malloc_r+0xf6>
 800808c:	f8d8 4000 	ldr.w	r4, [r8]
 8008090:	4627      	mov	r7, r4
 8008092:	2f00      	cmp	r7, #0
 8008094:	d143      	bne.n	800811e <_malloc_r+0xd6>
 8008096:	2c00      	cmp	r4, #0
 8008098:	d04b      	beq.n	8008132 <_malloc_r+0xea>
 800809a:	6823      	ldr	r3, [r4, #0]
 800809c:	4639      	mov	r1, r7
 800809e:	4630      	mov	r0, r6
 80080a0:	eb04 0903 	add.w	r9, r4, r3
 80080a4:	f000 fc5c 	bl	8008960 <_sbrk_r>
 80080a8:	4581      	cmp	r9, r0
 80080aa:	d142      	bne.n	8008132 <_malloc_r+0xea>
 80080ac:	6821      	ldr	r1, [r4, #0]
 80080ae:	1a6d      	subs	r5, r5, r1
 80080b0:	4629      	mov	r1, r5
 80080b2:	4630      	mov	r0, r6
 80080b4:	f7ff ffa6 	bl	8008004 <sbrk_aligned>
 80080b8:	3001      	adds	r0, #1
 80080ba:	d03a      	beq.n	8008132 <_malloc_r+0xea>
 80080bc:	6823      	ldr	r3, [r4, #0]
 80080be:	442b      	add	r3, r5
 80080c0:	6023      	str	r3, [r4, #0]
 80080c2:	f8d8 3000 	ldr.w	r3, [r8]
 80080c6:	685a      	ldr	r2, [r3, #4]
 80080c8:	bb62      	cbnz	r2, 8008124 <_malloc_r+0xdc>
 80080ca:	f8c8 7000 	str.w	r7, [r8]
 80080ce:	e00f      	b.n	80080f0 <_malloc_r+0xa8>
 80080d0:	6822      	ldr	r2, [r4, #0]
 80080d2:	1b52      	subs	r2, r2, r5
 80080d4:	d420      	bmi.n	8008118 <_malloc_r+0xd0>
 80080d6:	2a0b      	cmp	r2, #11
 80080d8:	d917      	bls.n	800810a <_malloc_r+0xc2>
 80080da:	1961      	adds	r1, r4, r5
 80080dc:	42a3      	cmp	r3, r4
 80080de:	6025      	str	r5, [r4, #0]
 80080e0:	bf18      	it	ne
 80080e2:	6059      	strne	r1, [r3, #4]
 80080e4:	6863      	ldr	r3, [r4, #4]
 80080e6:	bf08      	it	eq
 80080e8:	f8c8 1000 	streq.w	r1, [r8]
 80080ec:	5162      	str	r2, [r4, r5]
 80080ee:	604b      	str	r3, [r1, #4]
 80080f0:	4630      	mov	r0, r6
 80080f2:	f000 f82f 	bl	8008154 <__malloc_unlock>
 80080f6:	f104 000b 	add.w	r0, r4, #11
 80080fa:	1d23      	adds	r3, r4, #4
 80080fc:	f020 0007 	bic.w	r0, r0, #7
 8008100:	1ac2      	subs	r2, r0, r3
 8008102:	bf1c      	itt	ne
 8008104:	1a1b      	subne	r3, r3, r0
 8008106:	50a3      	strne	r3, [r4, r2]
 8008108:	e7af      	b.n	800806a <_malloc_r+0x22>
 800810a:	6862      	ldr	r2, [r4, #4]
 800810c:	42a3      	cmp	r3, r4
 800810e:	bf0c      	ite	eq
 8008110:	f8c8 2000 	streq.w	r2, [r8]
 8008114:	605a      	strne	r2, [r3, #4]
 8008116:	e7eb      	b.n	80080f0 <_malloc_r+0xa8>
 8008118:	4623      	mov	r3, r4
 800811a:	6864      	ldr	r4, [r4, #4]
 800811c:	e7ae      	b.n	800807c <_malloc_r+0x34>
 800811e:	463c      	mov	r4, r7
 8008120:	687f      	ldr	r7, [r7, #4]
 8008122:	e7b6      	b.n	8008092 <_malloc_r+0x4a>
 8008124:	461a      	mov	r2, r3
 8008126:	685b      	ldr	r3, [r3, #4]
 8008128:	42a3      	cmp	r3, r4
 800812a:	d1fb      	bne.n	8008124 <_malloc_r+0xdc>
 800812c:	2300      	movs	r3, #0
 800812e:	6053      	str	r3, [r2, #4]
 8008130:	e7de      	b.n	80080f0 <_malloc_r+0xa8>
 8008132:	230c      	movs	r3, #12
 8008134:	6033      	str	r3, [r6, #0]
 8008136:	4630      	mov	r0, r6
 8008138:	f000 f80c 	bl	8008154 <__malloc_unlock>
 800813c:	e794      	b.n	8008068 <_malloc_r+0x20>
 800813e:	6005      	str	r5, [r0, #0]
 8008140:	e7d6      	b.n	80080f0 <_malloc_r+0xa8>
 8008142:	bf00      	nop
 8008144:	20001f68 	.word	0x20001f68

08008148 <__malloc_lock>:
 8008148:	4801      	ldr	r0, [pc, #4]	@ (8008150 <__malloc_lock+0x8>)
 800814a:	f7ff bef8 	b.w	8007f3e <__retarget_lock_acquire_recursive>
 800814e:	bf00      	nop
 8008150:	20001f60 	.word	0x20001f60

08008154 <__malloc_unlock>:
 8008154:	4801      	ldr	r0, [pc, #4]	@ (800815c <__malloc_unlock+0x8>)
 8008156:	f7ff bef3 	b.w	8007f40 <__retarget_lock_release_recursive>
 800815a:	bf00      	nop
 800815c:	20001f60 	.word	0x20001f60

08008160 <__sfputc_r>:
 8008160:	6893      	ldr	r3, [r2, #8]
 8008162:	3b01      	subs	r3, #1
 8008164:	2b00      	cmp	r3, #0
 8008166:	b410      	push	{r4}
 8008168:	6093      	str	r3, [r2, #8]
 800816a:	da08      	bge.n	800817e <__sfputc_r+0x1e>
 800816c:	6994      	ldr	r4, [r2, #24]
 800816e:	42a3      	cmp	r3, r4
 8008170:	db01      	blt.n	8008176 <__sfputc_r+0x16>
 8008172:	290a      	cmp	r1, #10
 8008174:	d103      	bne.n	800817e <__sfputc_r+0x1e>
 8008176:	f85d 4b04 	ldr.w	r4, [sp], #4
 800817a:	f7ff bdd2 	b.w	8007d22 <__swbuf_r>
 800817e:	6813      	ldr	r3, [r2, #0]
 8008180:	1c58      	adds	r0, r3, #1
 8008182:	6010      	str	r0, [r2, #0]
 8008184:	7019      	strb	r1, [r3, #0]
 8008186:	4608      	mov	r0, r1
 8008188:	f85d 4b04 	ldr.w	r4, [sp], #4
 800818c:	4770      	bx	lr

0800818e <__sfputs_r>:
 800818e:	b5f8      	push	{r3, r4, r5, r6, r7, lr}
 8008190:	4606      	mov	r6, r0
 8008192:	460f      	mov	r7, r1
 8008194:	4614      	mov	r4, r2
 8008196:	18d5      	adds	r5, r2, r3
 8008198:	42ac      	cmp	r4, r5
 800819a:	d101      	bne.n	80081a0 <__sfputs_r+0x12>
 800819c:	2000      	movs	r0, #0
 800819e:	e007      	b.n	80081b0 <__sfputs_r+0x22>
 80081a0:	f814 1b01 	ldrb.w	r1, [r4], #1
 80081a4:	463a      	mov	r2, r7
 80081a6:	4630      	mov	r0, r6
 80081a8:	f7ff ffda 	bl	8008160 <__sfputc_r>
 80081ac:	1c43      	adds	r3, r0, #1
 80081ae:	d1f3      	bne.n	8008198 <__sfputs_r+0xa>
 80081b0:	bdf8      	pop	{r3, r4, r5, r6, r7, pc}
	...

080081b4 <_vfiprintf_r>:
 80081b4:	e92d 4ff0 	stmdb	sp!, {r4, r5, r6, r7, r8, r9, sl, fp, lr}
 80081b8:	460d      	mov	r5, r1
 80081ba:	b09d      	sub	sp, #116	@ 0x74
 80081bc:	4614      	mov	r4, r2
 80081be:	4698      	mov	r8, r3
 80081c0:	4606      	mov	r6, r0
 80081c2:	b118      	cbz	r0, 80081cc <_vfiprintf_r+0x18>
 80081c4:	6a03      	ldr	r3, [r0, #32]
 80081c6:	b90b      	cbnz	r3, 80081cc <_vfiprintf_r+0x18>
 80081c8:	f7ff fc0e 	bl	80079e8 <__sinit>
 80081cc:	6e6b      	ldr	r3, [r5, #100]	@ 0x64
 80081ce:	07d9      	lsls	r1, r3, #31
 80081d0:	d405      	bmi.n	80081de <_vfiprintf_r+0x2a>
 80081d2:	89ab      	ldrh	r3, [r5, #12]
 80081d4:	059a      	lsls	r2, r3, #22
 80081d6:	d402      	bmi.n	80081de <_vfiprintf_r+0x2a>
 80081d8:	6da8      	ldr	r0, [r5, #88]	@ 0x58
 80081da:	f7ff feb0 	bl	8007f3e <__retarget_lock_acquire_recursive>
 80081de:	89ab      	ldrh	r3, [r5, #12]
 80081e0:	071b      	lsls	r3, r3, #28
 80081e2:	d501      	bpl.n	80081e8 <_vfiprintf_r+0x34>
 80081e4:	692b      	ldr	r3, [r5, #16]
 80081e6:	b99b      	cbnz	r3, 8008210 <_vfiprintf_r+0x5c>
 80081e8:	4629      	mov	r1, r5
 80081ea:	4630      	mov	r0, r6
 80081ec:	f7ff fdd8 	bl	8007da0 <__swsetup_r>
 80081f0:	b170      	cbz	r0, 8008210 <_vfiprintf_r+0x5c>
 80081f2:	6e6b      	ldr	r3, [r5, #100]	@ 0x64
 80081f4:	07dc      	lsls	r4, r3, #31
 80081f6:	d504      	bpl.n	8008202 <_vfiprintf_r+0x4e>
 80081f8:	f04f 30ff 	mov.w	r0, #4294967295
 80081fc:	b01d      	add	sp, #116	@ 0x74
 80081fe:	e8bd 8ff0 	ldmia.w	sp!, {r4, r5, r6, r7, r8, r9, sl, fp, pc}
 8008202:	89ab      	ldrh	r3, [r5, #12]
 8008204:	0598      	lsls	r0, r3, #22
 8008206:	d4f7      	bmi.n	80081f8 <_vfiprintf_r+0x44>
 8008208:	6da8      	ldr	r0, [r5, #88]	@ 0x58
 800820a:	f7ff fe99 	bl	8007f40 <__retarget_lock_release_recursive>
 800820e:	e7f3      	b.n	80081f8 <_vfiprintf_r+0x44>
 8008210:	2300      	movs	r3, #0
 8008212:	9309      	str	r3, [sp, #36]	@ 0x24
 8008214:	2320      	movs	r3, #32
 8008216:	f88d 3029 	strb.w	r3, [sp, #41]	@ 0x29
 800821a:	f8cd 800c 	str.w	r8, [sp, #12]
 800821e:	2330      	movs	r3, #48	@ 0x30
 8008220:	f8df 81ac 	ldr.w	r8, [pc, #428]	@ 80083d0 <_vfiprintf_r+0x21c>
 8008224:	f88d 302a 	strb.w	r3, [sp, #42]	@ 0x2a
 8008228:	f04f 0901 	mov.w	r9, #1
 800822c:	4623      	mov	r3, r4
 800822e:	469a      	mov	sl, r3
 8008230:	f813 2b01 	ldrb.w	r2, [r3], #1
 8008234:	b10a      	cbz	r2, 800823a <_vfiprintf_r+0x86>
 8008236:	2a25      	cmp	r2, #37	@ 0x25
 8008238:	d1f9      	bne.n	800822e <_vfiprintf_r+0x7a>
 800823a:	ebba 0b04 	subs.w	fp, sl, r4
 800823e:	d00b      	beq.n	8008258 <_vfiprintf_r+0xa4>
 8008240:	465b      	mov	r3, fp
 8008242:	4622      	mov	r2, r4
 8008244:	4629      	mov	r1, r5
 8008246:	4630      	mov	r0, r6
 8008248:	f7ff ffa1 	bl	800818e <__sfputs_r>
 800824c:	3001      	adds	r0, #1
 800824e:	f000 80a7 	beq.w	80083a0 <_vfiprintf_r+0x1ec>
 8008252:	9a09      	ldr	r2, [sp, #36]	@ 0x24
 8008254:	445a      	add	r2, fp
 8008256:	9209      	str	r2, [sp, #36]	@ 0x24
 8008258:	f89a 3000 	ldrb.w	r3, [sl]
 800825c:	2b00      	cmp	r3, #0
 800825e:	f000 809f 	beq.w	80083a0 <_vfiprintf_r+0x1ec>
 8008262:	2300      	movs	r3, #0
 8008264:	f04f 32ff 	mov.w	r2, #4294967295
 8008268:	e9cd 2305 	strd	r2, r3, [sp, #20]
 800826c:	f10a 0a01 	add.w	sl, sl, #1
 8008270:	9304      	str	r3, [sp, #16]
 8008272:	9307      	str	r3, [sp, #28]
 8008274:	f88d 3053 	strb.w	r3, [sp, #83]	@ 0x53
 8008278:	931a      	str	r3, [sp, #104]	@ 0x68
 800827a:	4654      	mov	r4, sl
 800827c:	2205      	movs	r2, #5
 800827e:	f814 1b01 	ldrb.w	r1, [r4], #1
 8008282:	4853      	ldr	r0, [pc, #332]	@ (80083d0 <_vfiprintf_r+0x21c>)
 8008284:	f7f7 ffb4 	bl	80001f0 <memchr>
 8008288:	9a04      	ldr	r2, [sp, #16]
 800828a:	b9d8      	cbnz	r0, 80082c4 <_vfiprintf_r+0x110>
 800828c:	06d1      	lsls	r1, r2, #27
 800828e:	bf44      	itt	mi
 8008290:	2320      	movmi	r3, #32
 8008292:	f88d 3053 	strbmi.w	r3, [sp, #83]	@ 0x53
 8008296:	0713      	lsls	r3, r2, #28
 8008298:	bf44      	itt	mi
 800829a:	232b      	movmi	r3, #43	@ 0x2b
 800829c:	f88d 3053 	strbmi.w	r3, [sp, #83]	@ 0x53
 80082a0:	f89a 3000 	ldrb.w	r3, [sl]
 80082a4:	2b2a      	cmp	r3, #42	@ 0x2a
 80082a6:	d015      	beq.n	80082d4 <_vfiprintf_r+0x120>
 80082a8:	9a07      	ldr	r2, [sp, #28]
 80082aa:	4654      	mov	r4, sl
 80082ac:	2000      	movs	r0, #0
 80082ae:	f04f 0c0a 	mov.w	ip, #10
 80082b2:	4621      	mov	r1, r4
 80082b4:	f811 3b01 	ldrb.w	r3, [r1], #1
 80082b8:	3b30      	subs	r3, #48	@ 0x30
 80082ba:	2b09      	cmp	r3, #9
 80082bc:	d94b      	bls.n	8008356 <_vfiprintf_r+0x1a2>
 80082be:	b1b0      	cbz	r0, 80082ee <_vfiprintf_r+0x13a>
 80082c0:	9207      	str	r2, [sp, #28]
 80082c2:	e014      	b.n	80082ee <_vfiprintf_r+0x13a>
 80082c4:	eba0 0308 	sub.w	r3, r0, r8
 80082c8:	fa09 f303 	lsl.w	r3, r9, r3
 80082cc:	4313      	orrs	r3, r2
 80082ce:	9304      	str	r3, [sp, #16]
 80082d0:	46a2      	mov	sl, r4
 80082d2:	e7d2      	b.n	800827a <_vfiprintf_r+0xc6>
 80082d4:	9b03      	ldr	r3, [sp, #12]
 80082d6:	1d19      	adds	r1, r3, #4
 80082d8:	681b      	ldr	r3, [r3, #0]
 80082da:	9103      	str	r1, [sp, #12]
 80082dc:	2b00      	cmp	r3, #0
 80082de:	bfbb      	ittet	lt
 80082e0:	425b      	neglt	r3, r3
 80082e2:	f042 0202 	orrlt.w	r2, r2, #2
 80082e6:	9307      	strge	r3, [sp, #28]
 80082e8:	9307      	strlt	r3, [sp, #28]
 80082ea:	bfb8      	it	lt
 80082ec:	9204      	strlt	r2, [sp, #16]
 80082ee:	7823      	ldrb	r3, [r4, #0]
 80082f0:	2b2e      	cmp	r3, #46	@ 0x2e
 80082f2:	d10a      	bne.n	800830a <_vfiprintf_r+0x156>
 80082f4:	7863      	ldrb	r3, [r4, #1]
 80082f6:	2b2a      	cmp	r3, #42	@ 0x2a
 80082f8:	d132      	bne.n	8008360 <_vfiprintf_r+0x1ac>
 80082fa:	9b03      	ldr	r3, [sp, #12]
 80082fc:	1d1a      	adds	r2, r3, #4
 80082fe:	681b      	ldr	r3, [r3, #0]
 8008300:	9203      	str	r2, [sp, #12]
 8008302:	ea43 73e3 	orr.w	r3, r3, r3, asr #31
 8008306:	3402      	adds	r4, #2
 8008308:	9305      	str	r3, [sp, #20]
 800830a:	f8df a0d4 	ldr.w	sl, [pc, #212]	@ 80083e0 <_vfiprintf_r+0x22c>
 800830e:	7821      	ldrb	r1, [r4, #0]
 8008310:	2203      	movs	r2, #3
 8008312:	4650      	mov	r0, sl
 8008314:	f7f7 ff6c 	bl	80001f0 <memchr>
 8008318:	b138      	cbz	r0, 800832a <_vfiprintf_r+0x176>
 800831a:	9b04      	ldr	r3, [sp, #16]
 800831c:	eba0 000a 	sub.w	r0, r0, sl
 8008320:	2240      	movs	r2, #64	@ 0x40
 8008322:	4082      	lsls	r2, r0
 8008324:	4313      	orrs	r3, r2
 8008326:	3401      	adds	r4, #1
 8008328:	9304      	str	r3, [sp, #16]
 800832a:	f814 1b01 	ldrb.w	r1, [r4], #1
 800832e:	4829      	ldr	r0, [pc, #164]	@ (80083d4 <_vfiprintf_r+0x220>)
 8008330:	f88d 1028 	strb.w	r1, [sp, #40]	@ 0x28
 8008334:	2206      	movs	r2, #6
 8008336:	f7f7 ff5b 	bl	80001f0 <memchr>
 800833a:	2800      	cmp	r0, #0
 800833c:	d03f      	beq.n	80083be <_vfiprintf_r+0x20a>
 800833e:	4b26      	ldr	r3, [pc, #152]	@ (80083d8 <_vfiprintf_r+0x224>)
 8008340:	bb1b      	cbnz	r3, 800838a <_vfiprintf_r+0x1d6>
 8008342:	9b03      	ldr	r3, [sp, #12]
 8008344:	3307      	adds	r3, #7
 8008346:	f023 0307 	bic.w	r3, r3, #7
 800834a:	3308      	adds	r3, #8
 800834c:	9303      	str	r3, [sp, #12]
 800834e:	9b09      	ldr	r3, [sp, #36]	@ 0x24
 8008350:	443b      	add	r3, r7
 8008352:	9309      	str	r3, [sp, #36]	@ 0x24
 8008354:	e76a      	b.n	800822c <_vfiprintf_r+0x78>
 8008356:	fb0c 3202 	mla	r2, ip, r2, r3
 800835a:	460c      	mov	r4, r1
 800835c:	2001      	movs	r0, #1
 800835e:	e7a8      	b.n	80082b2 <_vfiprintf_r+0xfe>
 8008360:	2300      	movs	r3, #0
 8008362:	3401      	adds	r4, #1
 8008364:	9305      	str	r3, [sp, #20]
 8008366:	4619      	mov	r1, r3
 8008368:	f04f 0c0a 	mov.w	ip, #10
 800836c:	4620      	mov	r0, r4
 800836e:	f810 2b01 	ldrb.w	r2, [r0], #1
 8008372:	3a30      	subs	r2, #48	@ 0x30
 8008374:	2a09      	cmp	r2, #9
 8008376:	d903      	bls.n	8008380 <_vfiprintf_r+0x1cc>
 8008378:	2b00      	cmp	r3, #0
 800837a:	d0c6      	beq.n	800830a <_vfiprintf_r+0x156>
 800837c:	9105      	str	r1, [sp, #20]
 800837e:	e7c4      	b.n	800830a <_vfiprintf_r+0x156>
 8008380:	fb0c 2101 	mla	r1, ip, r1, r2
 8008384:	4604      	mov	r4, r0
 8008386:	2301      	movs	r3, #1
 8008388:	e7f0      	b.n	800836c <_vfiprintf_r+0x1b8>
 800838a:	ab03      	add	r3, sp, #12
 800838c:	9300      	str	r3, [sp, #0]
 800838e:	462a      	mov	r2, r5
 8008390:	4b12      	ldr	r3, [pc, #72]	@ (80083dc <_vfiprintf_r+0x228>)
 8008392:	a904      	add	r1, sp, #16
 8008394:	4630      	mov	r0, r6
 8008396:	f3af 8000 	nop.w
 800839a:	4607      	mov	r7, r0
 800839c:	1c78      	adds	r0, r7, #1
 800839e:	d1d6      	bne.n	800834e <_vfiprintf_r+0x19a>
 80083a0:	6e6b      	ldr	r3, [r5, #100]	@ 0x64
 80083a2:	07d9      	lsls	r1, r3, #31
 80083a4:	d405      	bmi.n	80083b2 <_vfiprintf_r+0x1fe>
 80083a6:	89ab      	ldrh	r3, [r5, #12]
 80083a8:	059a      	lsls	r2, r3, #22
 80083aa:	d402      	bmi.n	80083b2 <_vfiprintf_r+0x1fe>
 80083ac:	6da8      	ldr	r0, [r5, #88]	@ 0x58
 80083ae:	f7ff fdc7 	bl	8007f40 <__retarget_lock_release_recursive>
 80083b2:	89ab      	ldrh	r3, [r5, #12]
 80083b4:	065b      	lsls	r3, r3, #25
 80083b6:	f53f af1f 	bmi.w	80081f8 <_vfiprintf_r+0x44>
 80083ba:	9809      	ldr	r0, [sp, #36]	@ 0x24
 80083bc:	e71e      	b.n	80081fc <_vfiprintf_r+0x48>
 80083be:	ab03      	add	r3, sp, #12
 80083c0:	9300      	str	r3, [sp, #0]
 80083c2:	462a      	mov	r2, r5
 80083c4:	4b05      	ldr	r3, [pc, #20]	@ (80083dc <_vfiprintf_r+0x228>)
 80083c6:	a904      	add	r1, sp, #16
 80083c8:	4630      	mov	r0, r6
 80083ca:	f000 f879 	bl	80084c0 <_printf_i>
 80083ce:	e7e4      	b.n	800839a <_vfiprintf_r+0x1e6>
 80083d0:	0801b6ac 	.word	0x0801b6ac
 80083d4:	0801b6b6 	.word	0x0801b6b6
 80083d8:	00000000 	.word	0x00000000
 80083dc:	0800818f 	.word	0x0800818f
 80083e0:	0801b6b2 	.word	0x0801b6b2

080083e4 <_printf_common>:
 80083e4:	e92d 47f0 	stmdb	sp!, {r4, r5, r6, r7, r8, r9, sl, lr}
 80083e8:	4616      	mov	r6, r2
 80083ea:	4698      	mov	r8, r3
 80083ec:	688a      	ldr	r2, [r1, #8]
 80083ee:	690b      	ldr	r3, [r1, #16]
 80083f0:	f8dd 9020 	ldr.w	r9, [sp, #32]
 80083f4:	4293      	cmp	r3, r2
 80083f6:	bfb8      	it	lt
 80083f8:	4613      	movlt	r3, r2
 80083fa:	6033      	str	r3, [r6, #0]
 80083fc:	f891 2043 	ldrb.w	r2, [r1, #67]	@ 0x43
 8008400:	4607      	mov	r7, r0
 8008402:	460c      	mov	r4, r1
 8008404:	b10a      	cbz	r2, 800840a <_printf_common+0x26>
 8008406:	3301      	adds	r3, #1
 8008408:	6033      	str	r3, [r6, #0]
 800840a:	6823      	ldr	r3, [r4, #0]
 800840c:	0699      	lsls	r1, r3, #26
 800840e:	bf42      	ittt	mi
 8008410:	6833      	ldrmi	r3, [r6, #0]
 8008412:	3302      	addmi	r3, #2
 8008414:	6033      	strmi	r3, [r6, #0]
 8008416:	6825      	ldr	r5, [r4, #0]
 8008418:	f015 0506 	ands.w	r5, r5, #6
 800841c:	d106      	bne.n	800842c <_printf_common+0x48>
 800841e:	f104 0a19 	add.w	sl, r4, #25
 8008422:	68e3      	ldr	r3, [r4, #12]
 8008424:	6832      	ldr	r2, [r6, #0]
 8008426:	1a9b      	subs	r3, r3, r2
 8008428:	42ab      	cmp	r3, r5
 800842a:	dc26      	bgt.n	800847a <_printf_common+0x96>
 800842c:	f894 3043 	ldrb.w	r3, [r4, #67]	@ 0x43
 8008430:	6822      	ldr	r2, [r4, #0]
 8008432:	3b00      	subs	r3, #0
 8008434:	bf18      	it	ne
 8008436:	2301      	movne	r3, #1
 8008438:	0692      	lsls	r2, r2, #26
 800843a:	d42b      	bmi.n	8008494 <_printf_common+0xb0>
 800843c:	f104 0243 	add.w	r2, r4, #67	@ 0x43
 8008440:	4641      	mov	r1, r8
 8008442:	4638      	mov	r0, r7
 8008444:	47c8      	blx	r9
 8008446:	3001      	adds	r0, #1
 8008448:	d01e      	beq.n	8008488 <_printf_common+0xa4>
 800844a:	6823      	ldr	r3, [r4, #0]
 800844c:	6922      	ldr	r2, [r4, #16]
 800844e:	f003 0306 	and.w	r3, r3, #6
 8008452:	2b04      	cmp	r3, #4
 8008454:	bf02      	ittt	eq
 8008456:	68e5      	ldreq	r5, [r4, #12]
 8008458:	6833      	ldreq	r3, [r6, #0]
 800845a:	1aed      	subeq	r5, r5, r3
 800845c:	68a3      	ldr	r3, [r4, #8]
 800845e:	bf0c      	ite	eq
 8008460:	ea25 75e5 	biceq.w	r5, r5, r5, asr #31
 8008464:	2500      	movne	r5, #0
 8008466:	4293      	cmp	r3, r2
 8008468:	bfc4      	itt	gt
 800846a:	1a9b      	subgt	r3, r3, r2
 800846c:	18ed      	addgt	r5, r5, r3
 800846e:	2600      	movs	r6, #0
 8008470:	341a      	adds	r4, #26
 8008472:	42b5      	cmp	r5, r6
 8008474:	d11a      	bne.n	80084ac <_printf_common+0xc8>
 8008476:	2000      	movs	r0, #0
 8008478:	e008      	b.n	800848c <_printf_common+0xa8>
 800847a:	2301      	movs	r3, #1
 800847c:	4652      	mov	r2, sl
 800847e:	4641      	mov	r1, r8
 8008480:	4638      	mov	r0, r7
 8008482:	47c8      	blx	r9
 8008484:	3001      	adds	r0, #1
 8008486:	d103      	bne.n	8008490 <_printf_common+0xac>
 8008488:	f04f 30ff 	mov.w	r0, #4294967295
 800848c:	e8bd 87f0 	ldmia.w	sp!, {r4, r5, r6, r7, r8, r9, sl, pc}
 8008490:	3501      	adds	r5, #1
 8008492:	e7c6      	b.n	8008422 <_printf_common+0x3e>
 8008494:	18e1      	adds	r1, r4, r3
 8008496:	1c5a      	adds	r2, r3, #1
 8008498:	2030      	movs	r0, #48	@ 0x30
 800849a:	f881 0043 	strb.w	r0, [r1, #67]	@ 0x43
 800849e:	4422      	add	r2, r4
 80084a0:	f894 1045 	ldrb.w	r1, [r4, #69]	@ 0x45
 80084a4:	f882 1043 	strb.w	r1, [r2, #67]	@ 0x43
 80084a8:	3302      	adds	r3, #2
 80084aa:	e7c7      	b.n	800843c <_printf_common+0x58>
 80084ac:	2301      	movs	r3, #1
 80084ae:	4622      	mov	r2, r4
 80084b0:	4641      	mov	r1, r8
 80084b2:	4638      	mov	r0, r7
 80084b4:	47c8      	blx	r9
 80084b6:	3001      	adds	r0, #1
 80084b8:	d0e6      	beq.n	8008488 <_printf_common+0xa4>
 80084ba:	3601      	adds	r6, #1
 80084bc:	e7d9      	b.n	8008472 <_printf_common+0x8e>
	...

080084c0 <_printf_i>:
 80084c0:	e92d 47ff 	stmdb	sp!, {r0, r1, r2, r3, r4, r5, r6, r7, r8, r9, sl, lr}
 80084c4:	7e0f      	ldrb	r7, [r1, #24]
 80084c6:	9e0c      	ldr	r6, [sp, #48]	@ 0x30
 80084c8:	2f78      	cmp	r7, #120	@ 0x78
 80084ca:	4691      	mov	r9, r2
 80084cc:	4680      	mov	r8, r0
 80084ce:	460c      	mov	r4, r1
 80084d0:	469a      	mov	sl, r3
 80084d2:	f101 0243 	add.w	r2, r1, #67	@ 0x43
 80084d6:	d807      	bhi.n	80084e8 <_printf_i+0x28>
 80084d8:	2f62      	cmp	r7, #98	@ 0x62
 80084da:	d80a      	bhi.n	80084f2 <_printf_i+0x32>
 80084dc:	2f00      	cmp	r7, #0
 80084de:	f000 80d2 	beq.w	8008686 <_printf_i+0x1c6>
 80084e2:	2f58      	cmp	r7, #88	@ 0x58
 80084e4:	f000 80b9 	beq.w	800865a <_printf_i+0x19a>
 80084e8:	f104 0642 	add.w	r6, r4, #66	@ 0x42
 80084ec:	f884 7042 	strb.w	r7, [r4, #66]	@ 0x42
 80084f0:	e03a      	b.n	8008568 <_printf_i+0xa8>
 80084f2:	f1a7 0363 	sub.w	r3, r7, #99	@ 0x63
 80084f6:	2b15      	cmp	r3, #21
 80084f8:	d8f6      	bhi.n	80084e8 <_printf_i+0x28>
 80084fa:	a101      	add	r1, pc, #4	@ (adr r1, 8008500 <_printf_i+0x40>)
 80084fc:	f851 f023 	ldr.w	pc, [r1, r3, lsl #2]
 8008500:	08008559 	.word	0x08008559
 8008504:	0800856d 	.word	0x0800856d
 8008508:	080084e9 	.word	0x080084e9
 800850c:	080084e9 	.word	0x080084e9
 8008510:	080084e9 	.word	0x080084e9
 8008514:	080084e9 	.word	0x080084e9
 8008518:	0800856d 	.word	0x0800856d
 800851c:	080084e9 	.word	0x080084e9
 8008520:	080084e9 	.word	0x080084e9
 8008524:	080084e9 	.word	0x080084e9
 8008528:	080084e9 	.word	0x080084e9
 800852c:	0800866d 	.word	0x0800866d
 8008530:	08008597 	.word	0x08008597
 8008534:	08008627 	.word	0x08008627
 8008538:	080084e9 	.word	0x080084e9
 800853c:	080084e9 	.word	0x080084e9
 8008540:	0800868f 	.word	0x0800868f
 8008544:	080084e9 	.word	0x080084e9
 8008548:	08008597 	.word	0x08008597
 800854c:	080084e9 	.word	0x080084e9
 8008550:	080084e9 	.word	0x080084e9
 8008554:	0800862f 	.word	0x0800862f
 8008558:	6833      	ldr	r3, [r6, #0]
 800855a:	1d1a      	adds	r2, r3, #4
 800855c:	681b      	ldr	r3, [r3, #0]
 800855e:	6032      	str	r2, [r6, #0]
 8008560:	f104 0642 	add.w	r6, r4, #66	@ 0x42
 8008564:	f884 3042 	strb.w	r3, [r4, #66]	@ 0x42
 8008568:	2301      	movs	r3, #1
 800856a:	e09d      	b.n	80086a8 <_printf_i+0x1e8>
 800856c:	6833      	ldr	r3, [r6, #0]
 800856e:	6820      	ldr	r0, [r4, #0]
 8008570:	1d19      	adds	r1, r3, #4
 8008572:	6031      	str	r1, [r6, #0]
 8008574:	0606      	lsls	r6, r0, #24
 8008576:	d501      	bpl.n	800857c <_printf_i+0xbc>
 8008578:	681d      	ldr	r5, [r3, #0]
 800857a:	e003      	b.n	8008584 <_printf_i+0xc4>
 800857c:	0645      	lsls	r5, r0, #25
 800857e:	d5fb      	bpl.n	8008578 <_printf_i+0xb8>
 8008580:	f9b3 5000 	ldrsh.w	r5, [r3]
 8008584:	2d00      	cmp	r5, #0
 8008586:	da03      	bge.n	8008590 <_printf_i+0xd0>
 8008588:	232d      	movs	r3, #45	@ 0x2d
 800858a:	426d      	negs	r5, r5
 800858c:	f884 3043 	strb.w	r3, [r4, #67]	@ 0x43
 8008590:	4859      	ldr	r0, [pc, #356]	@ (80086f8 <_printf_i+0x238>)
 8008592:	230a      	movs	r3, #10
 8008594:	e011      	b.n	80085ba <_printf_i+0xfa>
 8008596:	6821      	ldr	r1, [r4, #0]
 8008598:	6833      	ldr	r3, [r6, #0]
 800859a:	0608      	lsls	r0, r1, #24
 800859c:	f853 5b04 	ldr.w	r5, [r3], #4
 80085a0:	d402      	bmi.n	80085a8 <_printf_i+0xe8>
 80085a2:	0649      	lsls	r1, r1, #25
 80085a4:	bf48      	it	mi
 80085a6:	b2ad      	uxthmi	r5, r5
 80085a8:	2f6f      	cmp	r7, #111	@ 0x6f
 80085aa:	4853      	ldr	r0, [pc, #332]	@ (80086f8 <_printf_i+0x238>)
 80085ac:	6033      	str	r3, [r6, #0]
 80085ae:	bf14      	ite	ne
 80085b0:	230a      	movne	r3, #10
 80085b2:	2308      	moveq	r3, #8
 80085b4:	2100      	movs	r1, #0
 80085b6:	f884 1043 	strb.w	r1, [r4, #67]	@ 0x43
 80085ba:	6866      	ldr	r6, [r4, #4]
 80085bc:	60a6      	str	r6, [r4, #8]
 80085be:	2e00      	cmp	r6, #0
 80085c0:	bfa2      	ittt	ge
 80085c2:	6821      	ldrge	r1, [r4, #0]
 80085c4:	f021 0104 	bicge.w	r1, r1, #4
 80085c8:	6021      	strge	r1, [r4, #0]
 80085ca:	b90d      	cbnz	r5, 80085d0 <_printf_i+0x110>
 80085cc:	2e00      	cmp	r6, #0
 80085ce:	d04b      	beq.n	8008668 <_printf_i+0x1a8>
 80085d0:	4616      	mov	r6, r2
 80085d2:	fbb5 f1f3 	udiv	r1, r5, r3
 80085d6:	fb03 5711 	mls	r7, r3, r1, r5
 80085da:	5dc7      	ldrb	r7, [r0, r7]
 80085dc:	f806 7d01 	strb.w	r7, [r6, #-1]!
 80085e0:	462f      	mov	r7, r5
 80085e2:	42bb      	cmp	r3, r7
 80085e4:	460d      	mov	r5, r1
 80085e6:	d9f4      	bls.n	80085d2 <_printf_i+0x112>
 80085e8:	2b08      	cmp	r3, #8
 80085ea:	d10b      	bne.n	8008604 <_printf_i+0x144>
 80085ec:	6823      	ldr	r3, [r4, #0]
 80085ee:	07df      	lsls	r7, r3, #31
 80085f0:	d508      	bpl.n	8008604 <_printf_i+0x144>
 80085f2:	6923      	ldr	r3, [r4, #16]
 80085f4:	6861      	ldr	r1, [r4, #4]
 80085f6:	4299      	cmp	r1, r3
 80085f8:	bfde      	ittt	le
 80085fa:	2330      	movle	r3, #48	@ 0x30
 80085fc:	f806 3c01 	strble.w	r3, [r6, #-1]
 8008600:	f106 36ff 	addle.w	r6, r6, #4294967295
 8008604:	1b92      	subs	r2, r2, r6
 8008606:	6122      	str	r2, [r4, #16]
 8008608:	f8cd a000 	str.w	sl, [sp]
 800860c:	464b      	mov	r3, r9
 800860e:	aa03      	add	r2, sp, #12
 8008610:	4621      	mov	r1, r4
 8008612:	4640      	mov	r0, r8
 8008614:	f7ff fee6 	bl	80083e4 <_printf_common>
 8008618:	3001      	adds	r0, #1
 800861a:	d14a      	bne.n	80086b2 <_printf_i+0x1f2>
 800861c:	f04f 30ff 	mov.w	r0, #4294967295
 8008620:	b004      	add	sp, #16
 8008622:	e8bd 87f0 	ldmia.w	sp!, {r4, r5, r6, r7, r8, r9, sl, pc}
 8008626:	6823      	ldr	r3, [r4, #0]
 8008628:	f043 0320 	orr.w	r3, r3, #32
 800862c:	6023      	str	r3, [r4, #0]
 800862e:	4833      	ldr	r0, [pc, #204]	@ (80086fc <_printf_i+0x23c>)
 8008630:	2778      	movs	r7, #120	@ 0x78
 8008632:	f884 7045 	strb.w	r7, [r4, #69]	@ 0x45
 8008636:	6823      	ldr	r3, [r4, #0]
 8008638:	6831      	ldr	r1, [r6, #0]
 800863a:	061f      	lsls	r7, r3, #24
 800863c:	f851 5b04 	ldr.w	r5, [r1], #4
 8008640:	d402      	bmi.n	8008648 <_printf_i+0x188>
 8008642:	065f      	lsls	r7, r3, #25
 8008644:	bf48      	it	mi
 8008646:	b2ad      	uxthmi	r5, r5
 8008648:	6031      	str	r1, [r6, #0]
 800864a:	07d9      	lsls	r1, r3, #31
 800864c:	bf44      	itt	mi
 800864e:	f043 0320 	orrmi.w	r3, r3, #32
 8008652:	6023      	strmi	r3, [r4, #0]
 8008654:	b11d      	cbz	r5, 800865e <_printf_i+0x19e>
 8008656:	2310      	movs	r3, #16
 8008658:	e7ac      	b.n	80085b4 <_printf_i+0xf4>
 800865a:	4827      	ldr	r0, [pc, #156]	@ (80086f8 <_printf_i+0x238>)
 800865c:	e7e9      	b.n	8008632 <_printf_i+0x172>
 800865e:	6823      	ldr	r3, [r4, #0]
 8008660:	f023 0320 	bic.w	r3, r3, #32
 8008664:	6023      	str	r3, [r4, #0]
 8008666:	e7f6      	b.n	8008656 <_printf_i+0x196>
 8008668:	4616      	mov	r6, r2
 800866a:	e7bd      	b.n	80085e8 <_printf_i+0x128>
 800866c:	6833      	ldr	r3, [r6, #0]
 800866e:	6825      	ldr	r5, [r4, #0]
 8008670:	6961      	ldr	r1, [r4, #20]
 8008672:	1d18      	adds	r0, r3, #4
 8008674:	6030      	str	r0, [r6, #0]
 8008676:	062e      	lsls	r6, r5, #24
 8008678:	681b      	ldr	r3, [r3, #0]
 800867a:	d501      	bpl.n	8008680 <_printf_i+0x1c0>
 800867c:	6019      	str	r1, [r3, #0]
 800867e:	e002      	b.n	8008686 <_printf_i+0x1c6>
 8008680:	0668      	lsls	r0, r5, #25
 8008682:	d5fb      	bpl.n	800867c <_printf_i+0x1bc>
 8008684:	8019      	strh	r1, [r3, #0]
 8008686:	2300      	movs	r3, #0
 8008688:	6123      	str	r3, [r4, #16]
 800868a:	4616      	mov	r6, r2
 800868c:	e7bc      	b.n	8008608 <_printf_i+0x148>
 800868e:	6833      	ldr	r3, [r6, #0]
 8008690:	1d1a      	adds	r2, r3, #4
 8008692:	6032      	str	r2, [r6, #0]
 8008694:	681e      	ldr	r6, [r3, #0]
 8008696:	6862      	ldr	r2, [r4, #4]
 8008698:	2100      	movs	r1, #0
 800869a:	4630      	mov	r0, r6
 800869c:	f7f7 fda8 	bl	80001f0 <memchr>
 80086a0:	b108      	cbz	r0, 80086a6 <_printf_i+0x1e6>
 80086a2:	1b80      	subs	r0, r0, r6
 80086a4:	6060      	str	r0, [r4, #4]
 80086a6:	6863      	ldr	r3, [r4, #4]
 80086a8:	6123      	str	r3, [r4, #16]
 80086aa:	2300      	movs	r3, #0
 80086ac:	f884 3043 	strb.w	r3, [r4, #67]	@ 0x43
 80086b0:	e7aa      	b.n	8008608 <_printf_i+0x148>
 80086b2:	6923      	ldr	r3, [r4, #16]
 80086b4:	4632      	mov	r2, r6
 80086b6:	4649      	mov	r1, r9
 80086b8:	4640      	mov	r0, r8
 80086ba:	47d0      	blx	sl
 80086bc:	3001      	adds	r0, #1
 80086be:	d0ad      	beq.n	800861c <_printf_i+0x15c>
 80086c0:	6823      	ldr	r3, [r4, #0]
 80086c2:	079b      	lsls	r3, r3, #30
 80086c4:	d413      	bmi.n	80086ee <_printf_i+0x22e>
 80086c6:	68e0      	ldr	r0, [r4, #12]
 80086c8:	9b03      	ldr	r3, [sp, #12]
 80086ca:	4298      	cmp	r0, r3
 80086cc:	bfb8      	it	lt
 80086ce:	4618      	movlt	r0, r3
 80086d0:	e7a6      	b.n	8008620 <_printf_i+0x160>
 80086d2:	2301      	movs	r3, #1
 80086d4:	4632      	mov	r2, r6
 80086d6:	4649      	mov	r1, r9
 80086d8:	4640      	mov	r0, r8
 80086da:	47d0      	blx	sl
 80086dc:	3001      	adds	r0, #1
 80086de:	d09d      	beq.n	800861c <_printf_i+0x15c>
 80086e0:	3501      	adds	r5, #1
 80086e2:	68e3      	ldr	r3, [r4, #12]
 80086e4:	9903      	ldr	r1, [sp, #12]
 80086e6:	1a5b      	subs	r3, r3, r1
 80086e8:	42ab      	cmp	r3, r5
 80086ea:	dcf2      	bgt.n	80086d2 <_printf_i+0x212>
 80086ec:	e7eb      	b.n	80086c6 <_printf_i+0x206>
 80086ee:	2500      	movs	r5, #0
 80086f0:	f104 0619 	add.w	r6, r4, #25
 80086f4:	e7f5      	b.n	80086e2 <_printf_i+0x222>
 80086f6:	bf00      	nop
 80086f8:	0801b6bd 	.word	0x0801b6bd
 80086fc:	0801b6ce 	.word	0x0801b6ce

08008700 <__sflush_r>:
 8008700:	f9b1 200c 	ldrsh.w	r2, [r1, #12]
 8008704:	e92d 41f0 	stmdb	sp!, {r4, r5, r6, r7, r8, lr}
 8008708:	0716      	lsls	r6, r2, #28
 800870a:	4605      	mov	r5, r0
 800870c:	460c      	mov	r4, r1
 800870e:	d454      	bmi.n	80087ba <__sflush_r+0xba>
 8008710:	684b      	ldr	r3, [r1, #4]
 8008712:	2b00      	cmp	r3, #0
 8008714:	dc02      	bgt.n	800871c <__sflush_r+0x1c>
 8008716:	6c0b      	ldr	r3, [r1, #64]	@ 0x40
 8008718:	2b00      	cmp	r3, #0
 800871a:	dd48      	ble.n	80087ae <__sflush_r+0xae>
 800871c:	6ae6      	ldr	r6, [r4, #44]	@ 0x2c
 800871e:	2e00      	cmp	r6, #0
 8008720:	d045      	beq.n	80087ae <__sflush_r+0xae>
 8008722:	2300      	movs	r3, #0
 8008724:	f412 5280 	ands.w	r2, r2, #4096	@ 0x1000
 8008728:	682f      	ldr	r7, [r5, #0]
 800872a:	6a21      	ldr	r1, [r4, #32]
 800872c:	602b      	str	r3, [r5, #0]
 800872e:	d030      	beq.n	8008792 <__sflush_r+0x92>
 8008730:	6d62      	ldr	r2, [r4, #84]	@ 0x54
 8008732:	89a3      	ldrh	r3, [r4, #12]
 8008734:	0759      	lsls	r1, r3, #29
 8008736:	d505      	bpl.n	8008744 <__sflush_r+0x44>
 8008738:	6863      	ldr	r3, [r4, #4]
 800873a:	1ad2      	subs	r2, r2, r3
 800873c:	6b63      	ldr	r3, [r4, #52]	@ 0x34
 800873e:	b10b      	cbz	r3, 8008744 <__sflush_r+0x44>
 8008740:	6c23      	ldr	r3, [r4, #64]	@ 0x40
 8008742:	1ad2      	subs	r2, r2, r3
 8008744:	2300      	movs	r3, #0
 8008746:	6ae6      	ldr	r6, [r4, #44]	@ 0x2c
 8008748:	6a21      	ldr	r1, [r4, #32]
 800874a:	4628      	mov	r0, r5
 800874c:	47b0      	blx	r6
 800874e:	1c43      	adds	r3, r0, #1
 8008750:	89a3      	ldrh	r3, [r4, #12]
 8008752:	d106      	bne.n	8008762 <__sflush_r+0x62>
 8008754:	6829      	ldr	r1, [r5, #0]
 8008756:	291d      	cmp	r1, #29
 8008758:	d82b      	bhi.n	80087b2 <__sflush_r+0xb2>
 800875a:	4a2a      	ldr	r2, [pc, #168]	@ (8008804 <__sflush_r+0x104>)
 800875c:	410a      	asrs	r2, r1
 800875e:	07d6      	lsls	r6, r2, #31
 8008760:	d427      	bmi.n	80087b2 <__sflush_r+0xb2>
 8008762:	2200      	movs	r2, #0
 8008764:	6062      	str	r2, [r4, #4]
 8008766:	04d9      	lsls	r1, r3, #19
 8008768:	6922      	ldr	r2, [r4, #16]
 800876a:	6022      	str	r2, [r4, #0]
 800876c:	d504      	bpl.n	8008778 <__sflush_r+0x78>
 800876e:	1c42      	adds	r2, r0, #1
 8008770:	d101      	bne.n	8008776 <__sflush_r+0x76>
 8008772:	682b      	ldr	r3, [r5, #0]
 8008774:	b903      	cbnz	r3, 8008778 <__sflush_r+0x78>
 8008776:	6560      	str	r0, [r4, #84]	@ 0x54
 8008778:	6b61      	ldr	r1, [r4, #52]	@ 0x34
 800877a:	602f      	str	r7, [r5, #0]
 800877c:	b1b9      	cbz	r1, 80087ae <__sflush_r+0xae>
 800877e:	f104 0344 	add.w	r3, r4, #68	@ 0x44
 8008782:	4299      	cmp	r1, r3
 8008784:	d002      	beq.n	800878c <__sflush_r+0x8c>
 8008786:	4628      	mov	r0, r5
 8008788:	f7ff fbea 	bl	8007f60 <_free_r>
 800878c:	2300      	movs	r3, #0
 800878e:	6363      	str	r3, [r4, #52]	@ 0x34
 8008790:	e00d      	b.n	80087ae <__sflush_r+0xae>
 8008792:	2301      	movs	r3, #1
 8008794:	4628      	mov	r0, r5
 8008796:	47b0      	blx	r6
 8008798:	4602      	mov	r2, r0
 800879a:	1c50      	adds	r0, r2, #1
 800879c:	d1c9      	bne.n	8008732 <__sflush_r+0x32>
 800879e:	682b      	ldr	r3, [r5, #0]
 80087a0:	2b00      	cmp	r3, #0
 80087a2:	d0c6      	beq.n	8008732 <__sflush_r+0x32>
 80087a4:	2b1d      	cmp	r3, #29
 80087a6:	d001      	beq.n	80087ac <__sflush_r+0xac>
 80087a8:	2b16      	cmp	r3, #22
 80087aa:	d11e      	bne.n	80087ea <__sflush_r+0xea>
 80087ac:	602f      	str	r7, [r5, #0]
 80087ae:	2000      	movs	r0, #0
 80087b0:	e022      	b.n	80087f8 <__sflush_r+0xf8>
 80087b2:	f043 0340 	orr.w	r3, r3, #64	@ 0x40
 80087b6:	b21b      	sxth	r3, r3
 80087b8:	e01b      	b.n	80087f2 <__sflush_r+0xf2>
 80087ba:	690f      	ldr	r7, [r1, #16]
 80087bc:	2f00      	cmp	r7, #0
 80087be:	d0f6      	beq.n	80087ae <__sflush_r+0xae>
 80087c0:	0793      	lsls	r3, r2, #30
 80087c2:	680e      	ldr	r6, [r1, #0]
 80087c4:	bf08      	it	eq
 80087c6:	694b      	ldreq	r3, [r1, #20]
 80087c8:	600f      	str	r7, [r1, #0]
 80087ca:	bf18      	it	ne
 80087cc:	2300      	movne	r3, #0
 80087ce:	eba6 0807 	sub.w	r8, r6, r7
 80087d2:	608b      	str	r3, [r1, #8]
 80087d4:	f1b8 0f00 	cmp.w	r8, #0
 80087d8:	dde9      	ble.n	80087ae <__sflush_r+0xae>
 80087da:	6a21      	ldr	r1, [r4, #32]
 80087dc:	6aa6      	ldr	r6, [r4, #40]	@ 0x28
 80087de:	4643      	mov	r3, r8
 80087e0:	463a      	mov	r2, r7
 80087e2:	4628      	mov	r0, r5
 80087e4:	47b0      	blx	r6
 80087e6:	2800      	cmp	r0, #0
 80087e8:	dc08      	bgt.n	80087fc <__sflush_r+0xfc>
 80087ea:	f9b4 300c 	ldrsh.w	r3, [r4, #12]
 80087ee:	f043 0340 	orr.w	r3, r3, #64	@ 0x40
 80087f2:	81a3      	strh	r3, [r4, #12]
 80087f4:	f04f 30ff 	mov.w	r0, #4294967295
 80087f8:	e8bd 81f0 	ldmia.w	sp!, {r4, r5, r6, r7, r8, pc}
 80087fc:	4407      	add	r7, r0
 80087fe:	eba8 0800 	sub.w	r8, r8, r0
 8008802:	e7e7      	b.n	80087d4 <__sflush_r+0xd4>
 8008804:	dfbffffe 	.word	0xdfbffffe

08008808 <_fflush_r>:
 8008808:	b538      	push	{r3, r4, r5, lr}
 800880a:	690b      	ldr	r3, [r1, #16]
 800880c:	4605      	mov	r5, r0
 800880e:	460c      	mov	r4, r1
 8008810:	b913      	cbnz	r3, 8008818 <_fflush_r+0x10>
 8008812:	2500      	movs	r5, #0
 8008814:	4628      	mov	r0, r5
 8008816:	bd38      	pop	{r3, r4, r5, pc}
 8008818:	b118      	cbz	r0, 8008822 <_fflush_r+0x1a>
 800881a:	6a03      	ldr	r3, [r0, #32]
 800881c:	b90b      	cbnz	r3, 8008822 <_fflush_r+0x1a>
 800881e:	f7ff f8e3 	bl	80079e8 <__sinit>
 8008822:	f9b4 300c 	ldrsh.w	r3, [r4, #12]
 8008826:	2b00      	cmp	r3, #0
 8008828:	d0f3      	beq.n	8008812 <_fflush_r+0xa>
 800882a:	6e62      	ldr	r2, [r4, #100]	@ 0x64
 800882c:	07d0      	lsls	r0, r2, #31
 800882e:	d404      	bmi.n	800883a <_fflush_r+0x32>
 8008830:	0599      	lsls	r1, r3, #22
 8008832:	d402      	bmi.n	800883a <_fflush_r+0x32>
 8008834:	6da0      	ldr	r0, [r4, #88]	@ 0x58
 8008836:	f7ff fb82 	bl	8007f3e <__retarget_lock_acquire_recursive>
 800883a:	4628      	mov	r0, r5
 800883c:	4621      	mov	r1, r4
 800883e:	f7ff ff5f 	bl	8008700 <__sflush_r>
 8008842:	6e63      	ldr	r3, [r4, #100]	@ 0x64
 8008844:	07da      	lsls	r2, r3, #31
 8008846:	4605      	mov	r5, r0
 8008848:	d4e4      	bmi.n	8008814 <_fflush_r+0xc>
 800884a:	89a3      	ldrh	r3, [r4, #12]
 800884c:	059b      	lsls	r3, r3, #22
 800884e:	d4e1      	bmi.n	8008814 <_fflush_r+0xc>
 8008850:	6da0      	ldr	r0, [r4, #88]	@ 0x58
 8008852:	f7ff fb75 	bl	8007f40 <__retarget_lock_release_recursive>
 8008856:	e7dd      	b.n	8008814 <_fflush_r+0xc>

08008858 <__swhatbuf_r>:
 8008858:	b570      	push	{r4, r5, r6, lr}
 800885a:	460c      	mov	r4, r1
 800885c:	f9b1 100e 	ldrsh.w	r1, [r1, #14]
 8008860:	2900      	cmp	r1, #0
 8008862:	b096      	sub	sp, #88	@ 0x58
 8008864:	4615      	mov	r5, r2
 8008866:	461e      	mov	r6, r3
 8008868:	da0d      	bge.n	8008886 <__swhatbuf_r+0x2e>
 800886a:	89a3      	ldrh	r3, [r4, #12]
 800886c:	f013 0f80 	tst.w	r3, #128	@ 0x80
 8008870:	f04f 0100 	mov.w	r1, #0
 8008874:	bf14      	ite	ne
 8008876:	2340      	movne	r3, #64	@ 0x40
 8008878:	f44f 6380 	moveq.w	r3, #1024	@ 0x400
 800887c:	2000      	movs	r0, #0
 800887e:	6031      	str	r1, [r6, #0]
 8008880:	602b      	str	r3, [r5, #0]
 8008882:	b016      	add	sp, #88	@ 0x58
 8008884:	bd70      	pop	{r4, r5, r6, pc}
 8008886:	466a      	mov	r2, sp
 8008888:	f000 f848 	bl	800891c <_fstat_r>
 800888c:	2800      	cmp	r0, #0
 800888e:	dbec      	blt.n	800886a <__swhatbuf_r+0x12>
 8008890:	9901      	ldr	r1, [sp, #4]
 8008892:	f401 4170 	and.w	r1, r1, #61440	@ 0xf000
 8008896:	f5a1 5300 	sub.w	r3, r1, #8192	@ 0x2000
 800889a:	4259      	negs	r1, r3
 800889c:	4159      	adcs	r1, r3
 800889e:	f44f 6380 	mov.w	r3, #1024	@ 0x400
 80088a2:	e7eb      	b.n	800887c <__swhatbuf_r+0x24>

080088a4 <__smakebuf_r>:
 80088a4:	898b      	ldrh	r3, [r1, #12]
 80088a6:	b5f7      	push	{r0, r1, r2, r4, r5, r6, r7, lr}
 80088a8:	079d      	lsls	r5, r3, #30
 80088aa:	4606      	mov	r6, r0
 80088ac:	460c      	mov	r4, r1
 80088ae:	d507      	bpl.n	80088c0 <__smakebuf_r+0x1c>
 80088b0:	f104 0347 	add.w	r3, r4, #71	@ 0x47
 80088b4:	6023      	str	r3, [r4, #0]
 80088b6:	6123      	str	r3, [r4, #16]
 80088b8:	2301      	movs	r3, #1
 80088ba:	6163      	str	r3, [r4, #20]
 80088bc:	b003      	add	sp, #12
 80088be:	bdf0      	pop	{r4, r5, r6, r7, pc}
 80088c0:	ab01      	add	r3, sp, #4
 80088c2:	466a      	mov	r2, sp
 80088c4:	f7ff ffc8 	bl	8008858 <__swhatbuf_r>
 80088c8:	9f00      	ldr	r7, [sp, #0]
 80088ca:	4605      	mov	r5, r0
 80088cc:	4639      	mov	r1, r7
 80088ce:	4630      	mov	r0, r6
 80088d0:	f7ff fbba 	bl	8008048 <_malloc_r>
 80088d4:	b948      	cbnz	r0, 80088ea <__smakebuf_r+0x46>
 80088d6:	f9b4 300c 	ldrsh.w	r3, [r4, #12]
 80088da:	059a      	lsls	r2, r3, #22
 80088dc:	d4ee      	bmi.n	80088bc <__smakebuf_r+0x18>
 80088de:	f023 0303 	bic.w	r3, r3, #3
 80088e2:	f043 0302 	orr.w	r3, r3, #2
 80088e6:	81a3      	strh	r3, [r4, #12]
 80088e8:	e7e2      	b.n	80088b0 <__smakebuf_r+0xc>
 80088ea:	89a3      	ldrh	r3, [r4, #12]
 80088ec:	6020      	str	r0, [r4, #0]
 80088ee:	f043 0380 	orr.w	r3, r3, #128	@ 0x80
 80088f2:	81a3      	strh	r3, [r4, #12]
 80088f4:	9b01      	ldr	r3, [sp, #4]
 80088f6:	e9c4 0704 	strd	r0, r7, [r4, #16]
 80088fa:	b15b      	cbz	r3, 8008914 <__smakebuf_r+0x70>
 80088fc:	f9b4 100e 	ldrsh.w	r1, [r4, #14]
 8008900:	4630      	mov	r0, r6
 8008902:	f000 f81d 	bl	8008940 <_isatty_r>
 8008906:	b128      	cbz	r0, 8008914 <__smakebuf_r+0x70>
 8008908:	89a3      	ldrh	r3, [r4, #12]
 800890a:	f023 0303 	bic.w	r3, r3, #3
 800890e:	f043 0301 	orr.w	r3, r3, #1
 8008912:	81a3      	strh	r3, [r4, #12]
 8008914:	89a3      	ldrh	r3, [r4, #12]
 8008916:	431d      	orrs	r5, r3
 8008918:	81a5      	strh	r5, [r4, #12]
 800891a:	e7cf      	b.n	80088bc <__smakebuf_r+0x18>

0800891c <_fstat_r>:
 800891c:	b538      	push	{r3, r4, r5, lr}
 800891e:	4d07      	ldr	r5, [pc, #28]	@ (800893c <_fstat_r+0x20>)
 8008920:	2300      	movs	r3, #0
 8008922:	4604      	mov	r4, r0
 8008924:	4608      	mov	r0, r1
 8008926:	4611      	mov	r1, r2
 8008928:	602b      	str	r3, [r5, #0]
 800892a:	f7f8 fbb1 	bl	8001090 <_fstat>
 800892e:	1c43      	adds	r3, r0, #1
 8008930:	d102      	bne.n	8008938 <_fstat_r+0x1c>
 8008932:	682b      	ldr	r3, [r5, #0]
 8008934:	b103      	cbz	r3, 8008938 <_fstat_r+0x1c>
 8008936:	6023      	str	r3, [r4, #0]
 8008938:	bd38      	pop	{r3, r4, r5, pc}
 800893a:	bf00      	nop
 800893c:	20001f5c 	.word	0x20001f5c

08008940 <_isatty_r>:
 8008940:	b538      	push	{r3, r4, r5, lr}
 8008942:	4d06      	ldr	r5, [pc, #24]	@ (800895c <_isatty_r+0x1c>)
 8008944:	2300      	movs	r3, #0
 8008946:	4604      	mov	r4, r0
 8008948:	4608      	mov	r0, r1
 800894a:	602b      	str	r3, [r5, #0]
 800894c:	f7f8 fb4e 	bl	8000fec <_isatty>
 8008950:	1c43      	adds	r3, r0, #1
 8008952:	d102      	bne.n	800895a <_isatty_r+0x1a>
 8008954:	682b      	ldr	r3, [r5, #0]
 8008956:	b103      	cbz	r3, 800895a <_isatty_r+0x1a>
 8008958:	6023      	str	r3, [r4, #0]
 800895a:	bd38      	pop	{r3, r4, r5, pc}
 800895c:	20001f5c 	.word	0x20001f5c

08008960 <_sbrk_r>:
 8008960:	b538      	push	{r3, r4, r5, lr}
 8008962:	4d06      	ldr	r5, [pc, #24]	@ (800897c <_sbrk_r+0x1c>)
 8008964:	2300      	movs	r3, #0
 8008966:	4604      	mov	r4, r0
 8008968:	4608      	mov	r0, r1
 800896a:	602b      	str	r3, [r5, #0]
 800896c:	f7f9 fdbc 	bl	80024e8 <_sbrk>
 8008970:	1c43      	adds	r3, r0, #1
 8008972:	d102      	bne.n	800897a <_sbrk_r+0x1a>
 8008974:	682b      	ldr	r3, [r5, #0]
 8008976:	b103      	cbz	r3, 800897a <_sbrk_r+0x1a>
 8008978:	6023      	str	r3, [r4, #0]
 800897a:	bd38      	pop	{r3, r4, r5, pc}
 800897c:	20001f5c 	.word	0x20001f5c

08008980 <_init>:
 8008980:	b5f8      	push	{r3, r4, r5, r6, r7, lr}
 8008982:	bf00      	nop
 8008984:	bcf8      	pop	{r3, r4, r5, r6, r7}
 8008986:	bc08      	pop	{r3}
 8008988:	469e      	mov	lr, r3
 800898a:	4770      	bx	lr

0800898c <_fini>:
 800898c:	b5f8      	push	{r3, r4, r5, r6, r7, lr}
 800898e:	bf00      	nop
 8008990:	bcf8      	pop	{r3, r4, r5, r6, r7}
 8008992:	bc08      	pop	{r3}
 8008994:	469e      	mov	lr, r3
 8008996:	4770      	bx	lr
