
lms_ctr_app.elf:     file format elf32-littlenios2
lms_ctr_app.elf
architecture: nios2:r1, flags 0x00000112:
EXEC_P, HAS_SYMS, D_PAGED
start address 0x00100230

Program Header:
    LOAD off    0x00001000 vaddr 0x00100000 paddr 0x00100000 align 2**12
         filesz 0x00000020 memsz 0x00000020 flags r-x
    LOAD off    0x00001020 vaddr 0x00100020 paddr 0x00100020 align 2**12
         filesz 0x00004b34 memsz 0x00004b34 flags r-x
    LOAD off    0x00006000 vaddr 0x00200000 paddr 0x00104b54 align 2**12
         filesz 0x00000814 memsz 0x00000afc flags rw-

Sections:
Idx Name          Size      VMA       LMA       File off  Algn
  0 .entry        00000020  00100000  00100000  00001000  2**5
                  CONTENTS, ALLOC, LOAD, READONLY, CODE
  1 .exceptions   00000210  00100020  00100020  00001020  2**2
                  CONTENTS, ALLOC, LOAD, READONLY, CODE
  2 .text         00004924  00100230  00100230  00001230  2**2
                  CONTENTS, ALLOC, LOAD, READONLY, CODE
  3 .rodata       00000038  00200000  00104b54  00006000  2**2
                  CONTENTS, ALLOC, LOAD, READONLY, DATA
  4 .rwdata       000007dc  00200038  00104b8c  00006038  2**2
                  CONTENTS, ALLOC, LOAD, DATA, SMALL_DATA
  5 .bss          000002e8  00200814  00105368  00006814  2**2
                  ALLOC, SMALL_DATA
  6 .onchip_flash_0_data 00000000  00105368  00105368  00006814  2**0
                  CONTENTS
  7 .onchip_memory2_0 00000000  00200afc  00200afc  00006814  2**0
                  CONTENTS
  8 .comment      00000023  00000000  00000000  00006814  2**0
                  CONTENTS, READONLY
  9 .debug_aranges 00000200  00000000  00000000  00006838  2**3
                  CONTENTS, READONLY, DEBUGGING
 10 .debug_info   00002f22  00000000  00000000  00006a38  2**0
                  CONTENTS, READONLY, DEBUGGING
 11 .debug_abbrev 00000cb4  00000000  00000000  0000995a  2**0
                  CONTENTS, READONLY, DEBUGGING
 12 .debug_line   00001204  00000000  00000000  0000a60e  2**0
                  CONTENTS, READONLY, DEBUGGING
 13 .debug_frame  000001dc  00000000  00000000  0000b814  2**2
                  CONTENTS, READONLY, DEBUGGING
 14 .debug_str    00000b41  00000000  00000000  0000b9f0  2**0
                  CONTENTS, READONLY, DEBUGGING
 15 .debug_loc    00000e77  00000000  00000000  0000c531  2**0
                  CONTENTS, READONLY, DEBUGGING
 16 .debug_alt_sim_info 00000040  00000000  00000000  0000d3a8  2**2
                  CONTENTS, READONLY, DEBUGGING
 17 .debug_ranges 00000178  00000000  00000000  0000d3e8  2**3
                  CONTENTS, READONLY, DEBUGGING
 18 .thread_model 00000003  00000000  00000000  0000f78c  2**0
                  CONTENTS, READONLY
 19 .cpu          00000009  00000000  00000000  0000f78f  2**0
                  CONTENTS, READONLY
 20 .qsys         00000001  00000000  00000000  0000f798  2**0
                  CONTENTS, READONLY
 21 .simulation_enabled 00000001  00000000  00000000  0000f799  2**0
                  CONTENTS, READONLY
 22 .sysid_hash   00000004  00000000  00000000  0000f79a  2**0
                  CONTENTS, READONLY
 23 .sysid_base   00000004  00000000  00000000  0000f79e  2**0
                  CONTENTS, READONLY
 24 .sysid_time   00000004  00000000  00000000  0000f7a2  2**0
                  CONTENTS, READONLY
 25 .stderr_dev   00000004  00000000  00000000  0000f7a6  2**0
                  CONTENTS, READONLY
 26 .stdin_dev    00000004  00000000  00000000  0000f7aa  2**0
                  CONTENTS, READONLY
 27 .stdout_dev   00000004  00000000  00000000  0000f7ae  2**0
                  CONTENTS, READONLY
 28 .sopc_system_name 00000007  00000000  00000000  0000f7b2  2**0
                  CONTENTS, READONLY
 29 .sopcinfo     00077a5e  00000000  00000000  0000f7b9  2**0
                  CONTENTS, READONLY
SYMBOL TABLE:
00100000 l    d  .entry	00000000 .entry
00100020 l    d  .exceptions	00000000 .exceptions
00100230 l    d  .text	00000000 .text
00200000 l    d  .rodata	00000000 .rodata
00200038 l    d  .rwdata	00000000 .rwdata
00200814 l    d  .bss	00000000 .bss
00105368 l    d  .onchip_flash_0_data	00000000 .onchip_flash_0_data
00200afc l    d  .onchip_memory2_0	00000000 .onchip_memory2_0
00000000 l    d  .comment	00000000 .comment
00000000 l    d  .debug_aranges	00000000 .debug_aranges
00000000 l    d  .debug_info	00000000 .debug_info
00000000 l    d  .debug_abbrev	00000000 .debug_abbrev
00000000 l    d  .debug_line	00000000 .debug_line
00000000 l    d  .debug_frame	00000000 .debug_frame
00000000 l    d  .debug_str	00000000 .debug_str
00000000 l    d  .debug_loc	00000000 .debug_loc
00000000 l    d  .debug_alt_sim_info	00000000 .debug_alt_sim_info
00000000 l    d  .debug_ranges	00000000 .debug_ranges
00000000 l    df *ABS*	00000000 ../lms_ctr_bsp//obj/HAL/src/crt0.o
00100268 l       .text	00000000 alt_after_alt_main
00000000 l    df *ABS*	00000000 alt_irq_handler.c
00000000 l    df *ABS*	00000000 alt_instruction_exception_entry.c
00000000 l    df *ABS*	00000000 i2c_opencores.c
00000000 l    df *ABS*	00000000 main.c
00000000 l    df *ABS*	00000000 spi_flash_lib.c
00000000 l    df *ABS*	00000000 lib2-divmod.c
00000000 l    df *ABS*	00000000 lib2-mul.c
00000000 l    df *ABS*	00000000 memcpy.c
00000000 l    df *ABS*	00000000 memset.c
00000000 l    df *ABS*	00000000 alt_load.c
001020f4 l     F .text	00000068 alt_load_section
00000000 l    df *ABS*	00000000 alt_main.c
00000000 l    df *ABS*	00000000 alt_usleep.c
00000000 l    df *ABS*	00000000 alt_sys_init.c
00102270 l     F .text	00000034 alt_dev_reg
00200038 l     O .rwdata	000000c4 uart
002000fc l     O .rwdata	00000100 onchip_flash_0
00000000 l    df *ABS*	00000000 altera_avalon_spi.c
00000000 l    df *ABS*	00000000 altera_avalon_uart_fd.c
00000000 l    df *ABS*	00000000 altera_avalon_uart_init.c
001026fc l     F .text	0000009c altera_avalon_uart_irq
00102798 l     F .text	000000e4 altera_avalon_uart_rxirq
0010287c l     F .text	00000148 altera_avalon_uart_txirq
00000000 l    df *ABS*	00000000 altera_avalon_uart_read.c
00102a18 l     F .text	0000003c alt_get_errno
00000000 l    df *ABS*	00000000 altera_avalon_uart_write.c
00102c30 l     F .text	0000003c alt_get_errno
00000000 l    df *ABS*	00000000 altera_onchip_flash.c
00102e18 l     F .text	00000034 alt_flash_device_register
00000000 l    df *ABS*	00000000 alt_busy_sleep.c
00000000 l    df *ABS*	00000000 alt_close.c
00103eb0 l     F .text	0000003c alt_get_errno
00000000 l    df *ABS*	00000000 alt_dcache_flush.c
00000000 l    df *ABS*	00000000 alt_dcache_flush_all.c
00000000 l    df *ABS*	00000000 alt_dev.c
0010400c l     F .text	0000002c alt_dev_null_write
00000000 l    df *ABS*	00000000 alt_dev_llist_insert.c
00104038 l     F .text	0000003c alt_get_errno
00000000 l    df *ABS*	00000000 alt_do_ctors.c
00000000 l    df *ABS*	00000000 alt_do_dtors.c
00000000 l    df *ABS*	00000000 alt_errno.c
00000000 l    df *ABS*	00000000 alt_flash_dev.c
00000000 l    df *ABS*	00000000 alt_icache_flush_all.c
00000000 l    df *ABS*	00000000 alt_iic.c
00000000 l    df *ABS*	00000000 alt_iic_isr_register.c
00000000 l    df *ABS*	00000000 alt_irq_vars.c
00000000 l    df *ABS*	00000000 alt_release_fd.c
00000000 l    df *ABS*	00000000 altera_nios2_gen2_irq.c
00000000 l    df *ABS*	00000000 alt_find_dev.c
00000000 l    df *ABS*	00000000 atexit.c
00000000 l    df *ABS*	00000000 exit.c
00000000 l    df *ABS*	00000000 impure.c
002003a4 l     O .rwdata	00000424 impure_data
00000000 l    df *ABS*	00000000 int_errno.c
00000000 l    df *ABS*	00000000 memcmp.c
00000000 l    df *ABS*	00000000 strlen.c
00000000 l    df *ABS*	00000000 __atexit.c
00000000 l    df *ABS*	00000000 __call_atexit.c
00000000 l    df *ABS*	00000000 alt_exit.c
00200874 g     O .bss	00000004 alt_instruction_exception_handler
001021e0 g     F .text	00000060 alt_main
002009fc g     O .bss	00000100 alt_irq
00101a30 g     F .text	00000178 FlashSpiTransfer
00104b8c g       *ABS*	00000000 __flash_rwdata_start
002007d0 g     O .rwdata	00000004 Board_Config_FPGA
00200838 g     O .bss	00000001 block
0020087c g     O .bss	00000040 glEp0Buffer_Tx
002007d4 g     O .rwdata	00000002 converted_val
00200839 g     O .bss	00000001 data_cnt
0020083c g     O .bss	00000004 byte1
00200840 g     O .bss	00000002 dac_data
001045d8 g     F .text	00000024 altera_nios2_gen2_irq_init
00100000 g     F .entry	0000000c __reset
00200824 g     O .bss	00000004 address
00100020 g       *ABS*	00000000 __flash_exceptions_start
00200878 g     O .bss	00000004 errno
00200868 g     O .bss	00000004 alt_argv
002087c8 g       *ABS*	00000000 _gp
00102240 g     F .text	00000030 usleep
00200842 g     O .bss	00000001 MCU_retries
00103cc8 g     F .text	00000090 alt_onchip_flash_poll_for_status_write_passed
00200224 g     O .rwdata	00000180 alt_fd_list
00200843 g     O .bss	00000004 sc_brdg_data
001045fc g     F .text	00000090 alt_find_dev
00101e84 g     F .text	00000148 memcpy
00100000 g       *ABS*	00000000 __alt_mem_onchip_flash_0_data
00104b54 g       *ABS*	00000000 __DTOR_END__
0010468c g     F .text	0000009c alt_exception_cause_generated_bad_addr
001002e0 g     F .text	00000038 I2C_start
00200000 g       *ABS*	00000000 __alt_mem_onchip_memory2_0
00101da0 g     F .text	00000064 .hidden __udivsi3
00103c38 g     F .text	00000090 alt_onchip_flash_poll_for_status_erase_passed
002007c8 g     O .rwdata	00000004 CFM0EndAddress
00200818 g     O .bss	00000001 Flash
002007e0 g     O .rwdata	00000008 altera_onchip_flash_list
002007cc g     O .rwdata	00000004 CFM0StartAddress
00101968 g     F .text	000000c8 CyFxSpiWaitForStatus
00100648 g     F .text	000000ac rd_dac_val
00103fc4 g     F .text	00000028 alt_dcache_flush
00102fb4 g     F .text	00000168 alt_onchip_flash_erase_block
002007f8 g     O .rwdata	00000004 alt_max_fd
0020080c g     O .rwdata	00000004 _global_impure_ptr
00100404 g     F .text	00000014 set_led
00200afc g       *ABS*	00000000 __bss_end
00104464 g     F .text	000000f0 alt_iic_isr_register
00102650 g     F .text	000000ac altera_avalon_uart_init
00200848 g     O .bss	00000004 fpga_data
00104418 g     F .text	0000004c alt_ic_irq_enabled
0020084c g     O .bss	00000001 state
00200870 g     O .bss	00000004 alt_irq_active
001000fc g     F .exceptions	000000d4 alt_irq_handler
002001fc g     O .rwdata	00000028 alt_dev_null
00103fec g     F .text	00000020 alt_dcache_flush_all
00200814 g       *ABS*	00000000 __ram_rwdata_end
00100500 g     F .text	00000110 testEEPROM
002007f0 g     O .rwdata	00000008 alt_dev_list
00200830 g     O .bss	00000004 flash_page_data_cnt
00200038 g       *ABS*	00000000 __ram_rodata_end
00101e04 g     F .text	00000058 .hidden __umodsi3
00100610 g     F .text	00000038 boot_from_flash
00200afc g       *ABS*	00000000 end
00200850 g     O .bss	00000004 last_portion
00102c6c g     F .text	000001ac altera_avalon_uart_write
001001d0 g     F .exceptions	00000060 alt_instruction_exception_entry
00104b54 g       *ABS*	00000000 __CTOR_LIST__
00201000 g       *ABS*	00000000 __alt_stack_pointer
00200854 g     O .bss	00000004 current_portion
001025a0 g     F .text	00000060 altera_avalon_uart_write_fd
00102600 g     F .text	00000050 altera_avalon_uart_close_fd
00102f18 g     F .text	0000009c alt_onchip_flash_get_info
001018f8 g     F .text	00000008 FlashSpiFastRead
001049a0 g     F .text	00000180 __call_exitprocs
00200858 g     O .bss	00000001 test
00100230 g     F .text	0000003c _start
00102344 g     F .text	000001fc alt_avalon_spi_command
001022dc g     F .text	00000068 alt_sys_init
00104888 g     F .text	00000118 __register_exitproc
00101900 g     F .text	00000068 FlashSpiRead
00101e5c g     F .text	00000028 .hidden __mulsi3
00200038 g       *ABS*	00000000 __ram_rwdata_start
00200000 g       *ABS*	00000000 __ram_rodata_start
00103d58 g     F .text	00000158 alt_busy_sleep
00104774 g     F .text	0000007c memcmp
00200afc g       *ABS*	00000000 __alt_stack_base
00102e4c g     F .text	000000cc alt_onchip_flash_read
00200820 g     O .bss	00000004 byte
00104074 g     F .text	000000a4 alt_dev_llist_insert
00200800 g     O .rwdata	00000008 alt_flash_dev_list
00200814 g       *ABS*	00000000 __bss_start
00101fcc g     F .text	00000128 memset
001006f4 g     F .text	000011c4 main
0020086c g     O .bss	00000004 alt_envp
001003d0 g     F .text	00000034 getFifoData
00200860 g     O .bss	00000001 spiFastRead
00100418 g     F .text	000000e8 Configure_LM75
002007fc g     O .rwdata	00000004 alt_errno
00103ba8 g     F .text	00000090 alt_onchip_flash_poll_for_status_to_go_idle
00101ca8 g     F .text	00000084 .hidden __divsi3
00104b54 g       *ABS*	00000000 __CTOR_END__
001036cc g     F .text	000004dc altera_onchip_flash_init
00100318 g     F .text	0000002c I2C_read
00104b54 g       *ABS*	00000000 __flash_rodata_start
00104b54 g       *ABS*	00000000 __DTOR_LIST__
001022a4 g     F .text	00000038 alt_irq_init
00104554 g     F .text	00000084 alt_release_fd
00104728 g     F .text	00000014 atexit
002007d8 g     O .rwdata	00000004 LMS_Ctrl_Packet_Rx
00200810 g     O .rwdata	00000004 _impure_ptr
00200864 g     O .bss	00000004 alt_argc
00104178 g     F .text	00000060 _do_dtors
00100020 g       .exceptions	00000000 alt_irq_entry
002007e8 g     O .rwdata	00000008 alt_fs_list
0010311c g     F .text	000002d8 alt_onchip_flash_write_block
002007d6 g     O .rwdata	00000001 dac_val
00200834 g     O .bss	00000004 flash_page
0010026c g     F .text	00000074 I2C_init
00100020 g       *ABS*	00000000 __ram_exceptions_start
001042b4 g     F .text	00000050 alt_ic_isr_register
00200814 g       *ABS*	00000000 _edata
00102540 g     F .text	00000060 altera_avalon_uart_read_fd
001033f4 g     F .text	000002d8 alt_onchip_flash_write
00200afc g       *ABS*	00000000 _end
001041d8 g     F .text	00000068 alt_flash_open_dev
00100230 g       *ABS*	00000000 __ram_exceptions_end
0020082c g     O .bss	00000004 flash_data_cnt_free
0010438c g     F .text	0000008c alt_ic_irq_disable
00200859 g     O .bss	00000001 cmd_errors
0010473c g     F .text	00000038 exit
00104240 g     F .text	00000054 alt_flash_close_dev
00101d2c g     F .text	00000074 .hidden __modsi3
001018b8 g     F .text	00000040 ReverseBitOrder
00201000 g       *ABS*	00000000 __alt_data_end
00100020 g     F .exceptions	00000000 alt_exception
002008bc g     O .bss	00000100 flash_page_data
001029c4 g     F .text	00000054 altera_avalon_uart_close
00200814 g     O .bss	00000004 boot_img_en
00104b20 g     F .text	00000034 _exit
00100380 g     F .text	00000050 Check_many_blocks
001047f0 g     F .text	00000098 strlen
00200828 g     O .bss	00000004 flash_data_counter_to_copy
002007dc g     O .rwdata	00000004 LMS_Ctrl_Packet_Tx
00104294 g     F .text	00000020 alt_icache_flush_all
00200808 g     O .rwdata	00000004 alt_priority_mask
00104304 g     F .text	00000088 alt_ic_irq_enable
00102a54 g     F .text	000001dc altera_avalon_uart_read
0020085c g     O .bss	00000004 fpga_byte
00104118 g     F .text	00000060 _do_ctors
00103eec g     F .text	000000d8 close
0020081c g     O .bss	00000004 word
00101ba8 g     F .text	00000100 FlashSpiEraseSector
0010215c g     F .text	00000084 alt_load
00100344 g     F .text	0000003c I2C_write
002009bc g     O .bss	00000040 glEp0Buffer_Rx



Disassembly of section .entry:

00100000 <__reset>:
  100000:	00400434 	movhi	at,16
  100004:	08408c14 	ori	at,at,560
  100008:	0800683a 	jmp	at
	...

Disassembly of section .exceptions:

00100020 <alt_exception>:
  100020:	deffed04 	addi	sp,sp,-76
  100024:	dfc00015 	stw	ra,0(sp)
  100028:	d8400215 	stw	at,8(sp)
  10002c:	d8800315 	stw	r2,12(sp)
  100030:	d8c00415 	stw	r3,16(sp)
  100034:	d9000515 	stw	r4,20(sp)
  100038:	d9400615 	stw	r5,24(sp)
  10003c:	d9800715 	stw	r6,28(sp)
  100040:	d9c00815 	stw	r7,32(sp)
  100044:	000b307a 	rdctl	r5,estatus
  100048:	da000915 	stw	r8,36(sp)
  10004c:	da400a15 	stw	r9,40(sp)
  100050:	da800b15 	stw	r10,44(sp)
  100054:	dac00c15 	stw	r11,48(sp)
  100058:	db000d15 	stw	r12,52(sp)
  10005c:	db400e15 	stw	r13,56(sp)
  100060:	db800f15 	stw	r14,60(sp)
  100064:	dbc01015 	stw	r15,64(sp)
  100068:	d9401115 	stw	r5,68(sp)
  10006c:	ebffff04 	addi	r15,ea,-4
  100070:	dbc01215 	stw	r15,72(sp)
  100074:	0009313a 	rdctl	r4,ipending
  100078:	2880004c 	andi	r2,r5,1
  10007c:	10000326 	beq	r2,zero,10008c <alt_exception+0x6c>
  100080:	20000226 	beq	r4,zero,10008c <alt_exception+0x6c>
  100084:	01000fc0 	call	1000fc <alt_irq_handler>
  100088:	00000706 	br	1000a8 <alt_exception+0x88>
  10008c:	df401215 	stw	ea,72(sp)
  100090:	e8bfff17 	ldw	r2,-4(ea)
  100094:	e93fff04 	addi	r4,ea,-4
  100098:	01001d00 	call	1001d0 <alt_instruction_exception_entry>
  10009c:	1000021e 	bne	r2,zero,1000a8 <alt_exception+0x88>
  1000a0:	ebffff04 	addi	r15,ea,-4
  1000a4:	dbc01215 	stw	r15,72(sp)
  1000a8:	d9401117 	ldw	r5,68(sp)
  1000ac:	df401217 	ldw	ea,72(sp)
  1000b0:	dfc00017 	ldw	ra,0(sp)
  1000b4:	2801707a 	wrctl	estatus,r5
  1000b8:	d8400217 	ldw	at,8(sp)
  1000bc:	d8800317 	ldw	r2,12(sp)
  1000c0:	d8c00417 	ldw	r3,16(sp)
  1000c4:	d9000517 	ldw	r4,20(sp)
  1000c8:	d9400617 	ldw	r5,24(sp)
  1000cc:	d9800717 	ldw	r6,28(sp)
  1000d0:	d9c00817 	ldw	r7,32(sp)
  1000d4:	da000917 	ldw	r8,36(sp)
  1000d8:	da400a17 	ldw	r9,40(sp)
  1000dc:	da800b17 	ldw	r10,44(sp)
  1000e0:	dac00c17 	ldw	r11,48(sp)
  1000e4:	db000d17 	ldw	r12,52(sp)
  1000e8:	db400e17 	ldw	r13,56(sp)
  1000ec:	db800f17 	ldw	r14,60(sp)
  1000f0:	dbc01017 	ldw	r15,64(sp)
  1000f4:	dec01304 	addi	sp,sp,76
  1000f8:	ef80083a 	eret

001000fc <alt_irq_handler>:
  1000fc:	defff904 	addi	sp,sp,-28
  100100:	dfc00615 	stw	ra,24(sp)
  100104:	df000515 	stw	fp,20(sp)
  100108:	df000504 	addi	fp,sp,20
  10010c:	0001883a 	nop
  100110:	0005313a 	rdctl	r2,ipending
  100114:	e0bffe15 	stw	r2,-8(fp)
  100118:	e0bffe17 	ldw	r2,-8(fp)
  10011c:	e0bffb15 	stw	r2,-20(fp)
  100120:	e03ffd15 	stw	zero,-12(fp)
  100124:	00800044 	movi	r2,1
  100128:	e0bffc15 	stw	r2,-16(fp)
  10012c:	e0fffb17 	ldw	r3,-20(fp)
  100130:	e0bffc17 	ldw	r2,-16(fp)
  100134:	1884703a 	and	r2,r3,r2
  100138:	10001426 	beq	r2,zero,10018c <alt_irq_handler+0x90>
  10013c:	00800834 	movhi	r2,32
  100140:	10827f04 	addi	r2,r2,2556
  100144:	e0fffd17 	ldw	r3,-12(fp)
  100148:	180690fa 	slli	r3,r3,3
  10014c:	10c5883a 	add	r2,r2,r3
  100150:	10c00017 	ldw	r3,0(r2)
  100154:	00800834 	movhi	r2,32
  100158:	10827f04 	addi	r2,r2,2556
  10015c:	e13ffd17 	ldw	r4,-12(fp)
  100160:	200890fa 	slli	r4,r4,3
  100164:	1105883a 	add	r2,r2,r4
  100168:	10800104 	addi	r2,r2,4
  10016c:	10800017 	ldw	r2,0(r2)
  100170:	1009883a 	mov	r4,r2
  100174:	183ee83a 	callr	r3
  100178:	0001883a 	nop
  10017c:	0005313a 	rdctl	r2,ipending
  100180:	e0bfff15 	stw	r2,-4(fp)
  100184:	e0bfff17 	ldw	r2,-4(fp)
  100188:	00000706 	br	1001a8 <alt_irq_handler+0xac>
  10018c:	e0bffc17 	ldw	r2,-16(fp)
  100190:	1085883a 	add	r2,r2,r2
  100194:	e0bffc15 	stw	r2,-16(fp)
  100198:	e0bffd17 	ldw	r2,-12(fp)
  10019c:	10800044 	addi	r2,r2,1
  1001a0:	e0bffd15 	stw	r2,-12(fp)
  1001a4:	003fe106 	br	10012c <_gp+0xffef7964>
  1001a8:	e0bffb15 	stw	r2,-20(fp)
  1001ac:	e0bffb17 	ldw	r2,-20(fp)
  1001b0:	103fdb1e 	bne	r2,zero,100120 <_gp+0xffef7958>
  1001b4:	0001883a 	nop
  1001b8:	0001883a 	nop
  1001bc:	e037883a 	mov	sp,fp
  1001c0:	dfc00117 	ldw	ra,4(sp)
  1001c4:	df000017 	ldw	fp,0(sp)
  1001c8:	dec00204 	addi	sp,sp,8
  1001cc:	f800283a 	ret

001001d0 <alt_instruction_exception_entry>:
  1001d0:	defffb04 	addi	sp,sp,-20
  1001d4:	dfc00415 	stw	ra,16(sp)
  1001d8:	df000315 	stw	fp,12(sp)
  1001dc:	df000304 	addi	fp,sp,12
  1001e0:	e13fff15 	stw	r4,-4(fp)
  1001e4:	00bfffc4 	movi	r2,-1
  1001e8:	e0bffd15 	stw	r2,-12(fp)
  1001ec:	e03ffe15 	stw	zero,-8(fp)
  1001f0:	d0a02b17 	ldw	r2,-32596(gp)
  1001f4:	10000726 	beq	r2,zero,100214 <alt_instruction_exception_entry+0x44>
  1001f8:	d0a02b17 	ldw	r2,-32596(gp)
  1001fc:	e0fffd17 	ldw	r3,-12(fp)
  100200:	e1bffe17 	ldw	r6,-8(fp)
  100204:	e17fff17 	ldw	r5,-4(fp)
  100208:	1809883a 	mov	r4,r3
  10020c:	103ee83a 	callr	r2
  100210:	00000206 	br	10021c <alt_instruction_exception_entry+0x4c>
  100214:	003da03a 	break	0
  100218:	0005883a 	mov	r2,zero
  10021c:	e037883a 	mov	sp,fp
  100220:	dfc00117 	ldw	ra,4(sp)
  100224:	df000017 	ldw	fp,0(sp)
  100228:	dec00204 	addi	sp,sp,8
  10022c:	f800283a 	ret

Disassembly of section .text:

00100230 <_start>:
  100230:	06c00834 	movhi	sp,32
  100234:	dec40014 	ori	sp,sp,4096
  100238:	06800834 	movhi	gp,32
  10023c:	d6a1f214 	ori	gp,gp,34760
  100240:	00800834 	movhi	r2,32
  100244:	10820514 	ori	r2,r2,2068
  100248:	00c00834 	movhi	r3,32
  10024c:	18c2bf14 	ori	r3,r3,2812
  100250:	10c00326 	beq	r2,r3,100260 <_start+0x30>
  100254:	10000015 	stw	zero,0(r2)
  100258:	10800104 	addi	r2,r2,4
  10025c:	10fffd36 	bltu	r2,r3,100254 <_gp+0xffef7a8c>
  100260:	010215c0 	call	10215c <alt_load>
  100264:	01021e00 	call	1021e0 <alt_main>

00100268 <alt_after_alt_main>:
  100268:	003fff06 	br	100268 <_gp+0xffef7aa0>

0010026c <I2C_init>:
  10026c:	defffd04 	addi	sp,sp,-12
  100270:	dc400115 	stw	r17,4(sp)
  100274:	dc000015 	stw	r16,0(sp)
  100278:	2823883a 	mov	r17,r5
  10027c:	2021883a 	mov	r16,r4
  100280:	01400144 	movi	r5,5
  100284:	3009883a 	mov	r4,r6
  100288:	dfc00215 	stw	ra,8(sp)
  10028c:	0101e5c0 	call	101e5c <__mulsi3>
  100290:	100b883a 	mov	r5,r2
  100294:	8809883a 	mov	r4,r17
  100298:	0101da00 	call	101da0 <__udivsi3>
  10029c:	10bfffc4 	addi	r2,r2,-1
  1002a0:	80c00204 	addi	r3,r16,8
  1002a4:	18000035 	stwio	zero,0(r3)
  1002a8:	01000044 	movi	r4,1
  1002ac:	81000435 	stwio	r4,16(r16)
  1002b0:	11003fcc 	andi	r4,r2,255
  1002b4:	81000035 	stwio	r4,0(r16)
  1002b8:	1004d23a 	srli	r2,r2,8
  1002bc:	10803fcc 	andi	r2,r2,255
  1002c0:	80800135 	stwio	r2,4(r16)
  1002c4:	00802004 	movi	r2,128
  1002c8:	18800035 	stwio	r2,0(r3)
  1002cc:	dfc00217 	ldw	ra,8(sp)
  1002d0:	dc400117 	ldw	r17,4(sp)
  1002d4:	dc000017 	ldw	r16,0(sp)
  1002d8:	dec00304 	addi	sp,sp,12
  1002dc:	f800283a 	ret

001002e0 <I2C_start>:
  1002e0:	3180004c 	andi	r6,r6,1
  1002e4:	294b883a 	add	r5,r5,r5
  1002e8:	298b883a 	add	r5,r5,r6
  1002ec:	21400335 	stwio	r5,12(r4)
  1002f0:	21000404 	addi	r4,r4,16
  1002f4:	00802404 	movi	r2,144
  1002f8:	20800035 	stwio	r2,0(r4)
  1002fc:	20800037 	ldwio	r2,0(r4)
  100300:	1080008c 	andi	r2,r2,2
  100304:	103ffd1e 	bne	r2,zero,1002fc <_gp+0xffef7b34>
  100308:	20800037 	ldwio	r2,0(r4)
  10030c:	1004d1fa 	srli	r2,r2,7
  100310:	1080004c 	andi	r2,r2,1
  100314:	f800283a 	ret

00100318 <I2C_read>:
  100318:	20c00404 	addi	r3,r4,16
  10031c:	28000226 	beq	r5,zero,100328 <I2C_read+0x10>
  100320:	00801a04 	movi	r2,104
  100324:	00000106 	br	10032c <I2C_read+0x14>
  100328:	00800804 	movi	r2,32
  10032c:	18800035 	stwio	r2,0(r3)
  100330:	18800037 	ldwio	r2,0(r3)
  100334:	1080008c 	andi	r2,r2,2
  100338:	103ffd1e 	bne	r2,zero,100330 <_gp+0xffef7b68>
  10033c:	20800337 	ldwio	r2,12(r4)
  100340:	f800283a 	ret

00100344 <I2C_write>:
  100344:	29403fcc 	andi	r5,r5,255
  100348:	21400335 	stwio	r5,12(r4)
  10034c:	21000404 	addi	r4,r4,16
  100350:	30000226 	beq	r6,zero,10035c <I2C_write+0x18>
  100354:	00801404 	movi	r2,80
  100358:	00000106 	br	100360 <I2C_write+0x1c>
  10035c:	00800404 	movi	r2,16
  100360:	20800035 	stwio	r2,0(r4)
  100364:	20800037 	ldwio	r2,0(r4)
  100368:	1080008c 	andi	r2,r2,2
  10036c:	103ffd1e 	bne	r2,zero,100364 <_gp+0xffef7b9c>
  100370:	20800037 	ldwio	r2,0(r4)
  100374:	1004d1fa 	srli	r2,r2,7
  100378:	1080004c 	andi	r2,r2,1
  10037c:	f800283a 	ret

00100380 <Check_many_blocks>:
  100380:	defffe04 	addi	sp,sp,-8
  100384:	dc000015 	stw	r16,0(sp)
  100388:	d4200417 	ldw	r16,-32752(gp)
  10038c:	21403fcc 	andi	r5,r4,255
  100390:	01000e04 	movi	r4,56
  100394:	dfc00115 	stw	ra,4(sp)
  100398:	0101da00 	call	101da0 <__udivsi3>
  10039c:	80c00083 	ldbu	r3,2(r16)
  1003a0:	10803fcc 	andi	r2,r2,255
  1003a4:	10c0052e 	bgeu	r2,r3,1003bc <Check_many_blocks+0x3c>
  1003a8:	d0a00517 	ldw	r2,-32748(gp)
  1003ac:	00c00104 	movi	r3,4
  1003b0:	10c00045 	stb	r3,1(r2)
  1003b4:	00800044 	movi	r2,1
  1003b8:	00000106 	br	1003c0 <Check_many_blocks+0x40>
  1003bc:	0005883a 	mov	r2,zero
  1003c0:	dfc00117 	ldw	ra,4(sp)
  1003c4:	dc000017 	ldw	r16,0(sp)
  1003c8:	dec00204 	addi	sp,sp,8
  1003cc:	f800283a 	ret

001003d0 <getFifoData>:
  1003d0:	29403fcc 	andi	r5,r5,255
  1003d4:	280ad0ba 	srli	r5,r5,2
  1003d8:	01800834 	movhi	r6,32
  1003dc:	0005883a 	mov	r2,zero
  1003e0:	31884104 	addi	r6,r6,8452
  1003e4:	10c03fcc 	andi	r3,r2,255
  1003e8:	19400526 	beq	r3,r5,100400 <getFifoData+0x30>
  1003ec:	30c00037 	ldwio	r3,0(r6)
  1003f0:	20c00015 	stw	r3,0(r4)
  1003f4:	10800044 	addi	r2,r2,1
  1003f8:	21000104 	addi	r4,r4,4
  1003fc:	003ff906 	br	1003e4 <_gp+0xffef7c1c>
  100400:	f800283a 	ret

00100404 <set_led>:
  100404:	00800834 	movhi	r2,32
  100408:	21003fcc 	andi	r4,r4,255
  10040c:	10883804 	addi	r2,r2,8416
  100410:	11000035 	stwio	r4,0(r2)
  100414:	f800283a 	ret

00100418 <Configure_LM75>:
  100418:	defffc04 	addi	sp,sp,-16
  10041c:	dc000015 	stw	r16,0(sp)
  100420:	04000834 	movhi	r16,32
  100424:	84082804 	addi	r16,r16,8352
  100428:	dc800215 	stw	r18,8(sp)
  10042c:	04801204 	movi	r18,72
  100430:	900b883a 	mov	r5,r18
  100434:	8009883a 	mov	r4,r16
  100438:	000d883a 	mov	r6,zero
  10043c:	dfc00315 	stw	ra,12(sp)
  100440:	dc400115 	stw	r17,4(sp)
  100444:	01002e00 	call	1002e0 <I2C_start>
  100448:	04400044 	movi	r17,1
  10044c:	880b883a 	mov	r5,r17
  100450:	8009883a 	mov	r4,r16
  100454:	000d883a 	mov	r6,zero
  100458:	01003440 	call	100344 <I2C_write>
  10045c:	880d883a 	mov	r6,r17
  100460:	8009883a 	mov	r4,r16
  100464:	01400104 	movi	r5,4
  100468:	01003440 	call	100344 <I2C_write>
  10046c:	900b883a 	mov	r5,r18
  100470:	8009883a 	mov	r4,r16
  100474:	000d883a 	mov	r6,zero
  100478:	01002e00 	call	1002e0 <I2C_start>
  10047c:	8009883a 	mov	r4,r16
  100480:	000d883a 	mov	r6,zero
  100484:	01400084 	movi	r5,2
  100488:	01003440 	call	100344 <I2C_write>
  10048c:	8009883a 	mov	r4,r16
  100490:	000d883a 	mov	r6,zero
  100494:	01400b44 	movi	r5,45
  100498:	01003440 	call	100344 <I2C_write>
  10049c:	880d883a 	mov	r6,r17
  1004a0:	8009883a 	mov	r4,r16
  1004a4:	000b883a 	mov	r5,zero
  1004a8:	01003440 	call	100344 <I2C_write>
  1004ac:	900b883a 	mov	r5,r18
  1004b0:	8009883a 	mov	r4,r16
  1004b4:	000d883a 	mov	r6,zero
  1004b8:	01002e00 	call	1002e0 <I2C_start>
  1004bc:	8009883a 	mov	r4,r16
  1004c0:	000d883a 	mov	r6,zero
  1004c4:	014000c4 	movi	r5,3
  1004c8:	01003440 	call	100344 <I2C_write>
  1004cc:	8009883a 	mov	r4,r16
  1004d0:	000d883a 	mov	r6,zero
  1004d4:	01400dc4 	movi	r5,55
  1004d8:	01003440 	call	100344 <I2C_write>
  1004dc:	880d883a 	mov	r6,r17
  1004e0:	000b883a 	mov	r5,zero
  1004e4:	8009883a 	mov	r4,r16
  1004e8:	dfc00317 	ldw	ra,12(sp)
  1004ec:	dc800217 	ldw	r18,8(sp)
  1004f0:	dc400117 	ldw	r17,4(sp)
  1004f4:	dc000017 	ldw	r16,0(sp)
  1004f8:	dec00404 	addi	sp,sp,16
  1004fc:	01003441 	jmpi	100344 <I2C_write>

00100500 <testEEPROM>:
  100500:	defffc04 	addi	sp,sp,-16
  100504:	dc000015 	stw	r16,0(sp)
  100508:	04000834 	movhi	r16,32
  10050c:	84082804 	addi	r16,r16,8352
  100510:	dc800215 	stw	r18,8(sp)
  100514:	04801404 	movi	r18,80
  100518:	900b883a 	mov	r5,r18
  10051c:	8009883a 	mov	r4,r16
  100520:	000d883a 	mov	r6,zero
  100524:	dfc00315 	stw	ra,12(sp)
  100528:	dc400115 	stw	r17,4(sp)
  10052c:	01002e00 	call	1002e0 <I2C_start>
  100530:	8009883a 	mov	r4,r16
  100534:	000d883a 	mov	r6,zero
  100538:	000b883a 	mov	r5,zero
  10053c:	01003440 	call	100344 <I2C_write>
  100540:	8009883a 	mov	r4,r16
  100544:	000d883a 	mov	r6,zero
  100548:	000b883a 	mov	r5,zero
  10054c:	04400044 	movi	r17,1
  100550:	01003440 	call	100344 <I2C_write>
  100554:	880d883a 	mov	r6,r17
  100558:	900b883a 	mov	r5,r18
  10055c:	8009883a 	mov	r4,r16
  100560:	01002e00 	call	1002e0 <I2C_start>
  100564:	880b883a 	mov	r5,r17
  100568:	8009883a 	mov	r4,r16
  10056c:	01003180 	call	100318 <I2C_read>
  100570:	900b883a 	mov	r5,r18
  100574:	8009883a 	mov	r4,r16
  100578:	000d883a 	mov	r6,zero
  10057c:	01002e00 	call	1002e0 <I2C_start>
  100580:	8009883a 	mov	r4,r16
  100584:	000d883a 	mov	r6,zero
  100588:	000b883a 	mov	r5,zero
  10058c:	01003440 	call	100344 <I2C_write>
  100590:	880b883a 	mov	r5,r17
  100594:	8009883a 	mov	r4,r16
  100598:	000d883a 	mov	r6,zero
  10059c:	01003440 	call	100344 <I2C_write>
  1005a0:	880d883a 	mov	r6,r17
  1005a4:	8009883a 	mov	r4,r16
  1005a8:	01401684 	movi	r5,90
  1005ac:	01003440 	call	100344 <I2C_write>
  1005b0:	900b883a 	mov	r5,r18
  1005b4:	8009883a 	mov	r4,r16
  1005b8:	000d883a 	mov	r6,zero
  1005bc:	01002e00 	call	1002e0 <I2C_start>
  1005c0:	8009883a 	mov	r4,r16
  1005c4:	000d883a 	mov	r6,zero
  1005c8:	000b883a 	mov	r5,zero
  1005cc:	01003440 	call	100344 <I2C_write>
  1005d0:	880b883a 	mov	r5,r17
  1005d4:	8009883a 	mov	r4,r16
  1005d8:	000d883a 	mov	r6,zero
  1005dc:	01003440 	call	100344 <I2C_write>
  1005e0:	900b883a 	mov	r5,r18
  1005e4:	8009883a 	mov	r4,r16
  1005e8:	880d883a 	mov	r6,r17
  1005ec:	01002e00 	call	1002e0 <I2C_start>
  1005f0:	880b883a 	mov	r5,r17
  1005f4:	8009883a 	mov	r4,r16
  1005f8:	dfc00317 	ldw	ra,12(sp)
  1005fc:	dc800217 	ldw	r18,8(sp)
  100600:	dc400117 	ldw	r17,4(sp)
  100604:	dc000017 	ldw	r16,0(sp)
  100608:	dec00404 	addi	sp,sp,16
  10060c:	01003181 	jmpi	100318 <I2C_read>

00100610 <boot_from_flash>:
  100610:	00800834 	movhi	r2,32
  100614:	10883104 	addi	r2,r2,8388
  100618:	00c000c4 	movi	r3,3
  10061c:	10c00035 	stwio	r3,0(r2)
  100620:	01000834 	movhi	r4,32
  100624:	21083304 	addi	r4,r4,8396
  100628:	00800044 	movi	r2,1
  10062c:	20c00037 	ldwio	r3,0(r4)
  100630:	18bffe26 	beq	r3,r2,10062c <_gp+0xffef7e64>
  100634:	00800834 	movhi	r2,32
  100638:	10883004 	addi	r2,r2,8384
  10063c:	00c00044 	movi	r3,1
  100640:	10c00035 	stwio	r3,0(r2)
  100644:	f800283a 	ret

00100648 <rd_dac_val>:
  100648:	defffc04 	addi	sp,sp,-16
  10064c:	dc000015 	stw	r16,0(sp)
  100650:	04000834 	movhi	r16,32
  100654:	84082804 	addi	r16,r16,8352
  100658:	dc400115 	stw	r17,4(sp)
  10065c:	04401404 	movi	r17,80
  100660:	dc800215 	stw	r18,8(sp)
  100664:	880b883a 	mov	r5,r17
  100668:	2025883a 	mov	r18,r4
  10066c:	000d883a 	mov	r6,zero
  100670:	8009883a 	mov	r4,r16
  100674:	dfc00315 	stw	ra,12(sp)
  100678:	01002e00 	call	1002e0 <I2C_start>
  10067c:	8009883a 	mov	r4,r16
  100680:	000d883a 	mov	r6,zero
  100684:	000b883a 	mov	r5,zero
  100688:	01003440 	call	100344 <I2C_write>
  10068c:	91403fcc 	andi	r5,r18,255
  100690:	8009883a 	mov	r4,r16
  100694:	000d883a 	mov	r6,zero
  100698:	01003440 	call	100344 <I2C_write>
  10069c:	04800044 	movi	r18,1
  1006a0:	900d883a 	mov	r6,r18
  1006a4:	880b883a 	mov	r5,r17
  1006a8:	8009883a 	mov	r4,r16
  1006ac:	01002e00 	call	1002e0 <I2C_start>
  1006b0:	8009883a 	mov	r4,r16
  1006b4:	000b883a 	mov	r5,zero
  1006b8:	01003180 	call	100318 <I2C_read>
  1006bc:	900b883a 	mov	r5,r18
  1006c0:	8009883a 	mov	r4,r16
  1006c4:	1023883a 	mov	r17,r2
  1006c8:	01003180 	call	100318 <I2C_read>
  1006cc:	10803fcc 	andi	r2,r2,255
  1006d0:	1004923a 	slli	r2,r2,8
  1006d4:	8c403fcc 	andi	r17,r17,255
  1006d8:	1444b03a 	or	r2,r2,r17
  1006dc:	dfc00317 	ldw	ra,12(sp)
  1006e0:	dc800217 	ldw	r18,8(sp)
  1006e4:	dc400117 	ldw	r17,4(sp)
  1006e8:	dc000017 	ldw	r16,0(sp)
  1006ec:	dec00404 	addi	sp,sp,16
  1006f0:	f800283a 	ret

001006f4 <main>:
  1006f4:	defff204 	addi	sp,sp,-56
  1006f8:	dc000415 	stw	r16,16(sp)
  1006fc:	04000834 	movhi	r16,32
  100700:	dfc00d15 	stw	ra,52(sp)
  100704:	df000c15 	stw	fp,48(sp)
  100708:	ddc00b15 	stw	r23,44(sp)
  10070c:	dd800a15 	stw	r22,40(sp)
  100710:	dd400915 	stw	r21,36(sp)
  100714:	dd000815 	stw	r20,32(sp)
  100718:	dcc00715 	stw	r19,28(sp)
  10071c:	dc800615 	stw	r18,24(sp)
  100720:	dc400515 	stw	r17,20(sp)
  100724:	84081804 	addi	r16,r16,8288
  100728:	00800184 	movi	r2,6
  10072c:	80800035 	stwio	r2,0(r16)
  100730:	008001c4 	movi	r2,7
  100734:	80800035 	stwio	r2,0(r16)
  100738:	018000b4 	movhi	r6,2
  10073c:	014098b4 	movhi	r5,610
  100740:	01000834 	movhi	r4,32
  100744:	31a1a804 	addi	r6,r6,-31072
  100748:	29568004 	addi	r5,r5,23040
  10074c:	21082804 	addi	r4,r4,8352
  100750:	010026c0 	call	10026c <I2C_init>
  100754:	01000404 	movi	r4,16
  100758:	01006480 	call	100648 <rd_dac_val>
  10075c:	113fffcc 	andi	r4,r2,65535
  100760:	00ffffd4 	movui	r3,65535
  100764:	20c0011e 	bne	r4,r3,10076c <main+0x78>
  100768:	00bfed04 	movi	r2,-76
  10076c:	d0a00385 	stb	r2,-32754(gp)
  100770:	d0a00383 	ldbu	r2,-32754(gp)
  100774:	01000834 	movhi	r4,32
  100778:	d1e01e04 	addi	r7,gp,-32648
  10077c:	10c03fcc 	andi	r3,r2,255
  100780:	1806d0ba 	srli	r3,r3,2
  100784:	100491ba 	slli	r2,r2,6
  100788:	01800084 	movi	r6,2
  10078c:	000b883a 	mov	r5,zero
  100790:	21080804 	addi	r4,r4,8224
  100794:	d8000215 	stw	zero,8(sp)
  100798:	d8000115 	stw	zero,4(sp)
  10079c:	d8000015 	stw	zero,0(sp)
  1007a0:	d0e01e05 	stb	r3,-32648(gp)
  1007a4:	d0a01e45 	stb	r2,-32647(gp)
  1007a8:	01023440 	call	102344 <alt_avalon_spi_command>
  1007ac:	d8800315 	stw	r2,12(sp)
  1007b0:	d4601f44 	addi	r17,gp,-32643
  1007b4:	01004180 	call	100418 <Configure_LM75>
  1007b8:	00c00834 	movhi	r3,32
  1007bc:	18c84204 	addi	r3,r3,8456
  1007c0:	18800037 	ldwio	r2,0(r3)
  1007c4:	d8800315 	stw	r2,12(sp)
  1007c8:	d8800317 	ldw	r2,12(sp)
  1007cc:	1080004c 	andi	r2,r2,1
  1007d0:	103ff91e 	bne	r2,zero,1007b8 <_gp+0xffef7ff0>
  1007d4:	01000834 	movhi	r4,32
  1007d8:	01401004 	movi	r5,64
  1007dc:	21026f04 	addi	r4,r4,2492
  1007e0:	01003d00 	call	1003d0 <getFifoData>
  1007e4:	01000834 	movhi	r4,32
  1007e8:	000b883a 	mov	r5,zero
  1007ec:	21021f04 	addi	r4,r4,2172
  1007f0:	01801004 	movi	r6,64
  1007f4:	0101fcc0 	call	101fcc <memset>
  1007f8:	d1600417 	ldw	r5,-32752(gp)
  1007fc:	d0202445 	stb	zero,-32623(gp)
  100800:	d0a00517 	ldw	r2,-32748(gp)
  100804:	28c00003 	ldbu	r3,0(r5)
  100808:	01001444 	movi	r4,81
  10080c:	10c00005 	stb	r3,0(r2)
  100810:	28c00083 	ldbu	r3,2(r5)
  100814:	10c00085 	stb	r3,2(r2)
  100818:	28c000c3 	ldbu	r3,3(r5)
  10081c:	10c000c5 	stb	r3,3(r2)
  100820:	00c000c4 	movi	r3,3
  100824:	10c00045 	stb	r3,1(r2)
  100828:	28c00003 	ldbu	r3,0(r5)
  10082c:	19004a26 	beq	r3,r4,100958 <main+0x264>
  100830:	20c01636 	bltu	r4,r3,10088c <main+0x198>
  100834:	01000884 	movi	r4,34
  100838:	19009926 	beq	r3,r4,100aa0 <main+0x3ac>
  10083c:	20c00d36 	bltu	r4,r3,100874 <main+0x180>
  100840:	01000804 	movi	r4,32
  100844:	19005c26 	beq	r3,r4,1009b8 <main+0x2c4>
  100848:	20c07536 	bltu	r4,r3,100a20 <main+0x32c>
  10084c:	18040d1e 	bne	r3,zero,101884 <main+0x1190>
  100850:	00c00184 	movi	r3,6
  100854:	10c00205 	stb	r3,8(r2)
  100858:	00c00444 	movi	r3,17
  10085c:	10c00245 	stb	r3,9(r2)
  100860:	00c00044 	movi	r3,1
  100864:	10c00285 	stb	r3,10(r2)
  100868:	100002c5 	stb	zero,11(r2)
  10086c:	10c00305 	stb	r3,12(r2)
  100870:	00040506 	br	101888 <main+0x1194>
  100874:	010013c4 	movi	r4,79
  100878:	19001826 	beq	r3,r4,1008dc <main+0x1e8>
  10087c:	20c03336 	bltu	r4,r3,10094c <main+0x258>
  100880:	01000b04 	movi	r4,44
  100884:	19033626 	beq	r3,r4,101560 <main+0xe6c>
  100888:	0003fe06 	br	101884 <main+0x1190>
  10088c:	01001584 	movi	r4,86
  100890:	1900c626 	beq	r3,r4,100bac <main+0x4b8>
  100894:	20c00636 	bltu	r4,r3,1008b0 <main+0x1bc>
  100898:	010014c4 	movi	r4,83
  10089c:	19029326 	beq	r3,r4,1012ec <main+0xbf8>
  1008a0:	19003136 	bltu	r3,r4,100968 <main+0x274>
  1008a4:	01001544 	movi	r4,85
  1008a8:	1900a026 	beq	r3,r4,100b2c <main+0x438>
  1008ac:	0003f506 	br	101884 <main+0x1190>
  1008b0:	01001884 	movi	r4,98
  1008b4:	19020d26 	beq	r3,r4,1010ec <main+0x9f8>
  1008b8:	20c00336 	bltu	r4,r3,1008c8 <main+0x1d4>
  1008bc:	01001844 	movi	r4,97
  1008c0:	19025f26 	beq	r3,r4,101240 <main+0xb4c>
  1008c4:	0003ef06 	br	101884 <main+0x1190>
  1008c8:	01002304 	movi	r4,140
  1008cc:	1900dd26 	beq	r3,r4,100c44 <main+0x550>
  1008d0:	01002344 	movi	r4,141
  1008d4:	19019326 	beq	r3,r4,100f24 <main+0x830>
  1008d8:	0003ea06 	br	101884 <main+0x1190>
  1008dc:	00bfe004 	movi	r2,-128
  1008e0:	d0a01ec5 	stb	r2,-32645(gp)
  1008e4:	00bff104 	movi	r2,-60
  1008e8:	d0a01f05 	stb	r2,-32644(gp)
  1008ec:	28800243 	ldbu	r2,9(r5)
  1008f0:	04800044 	movi	r18,1
  1008f4:	01000834 	movhi	r4,32
  1008f8:	d0a01f45 	stb	r2,-32643(gp)
  1008fc:	28800203 	ldbu	r2,8(r5)
  100900:	d1e01ec4 	addi	r7,gp,-32645
  100904:	d8000215 	stw	zero,8(sp)
  100908:	d8000115 	stw	zero,4(sp)
  10090c:	d8000015 	stw	zero,0(sp)
  100910:	01800104 	movi	r6,4
  100914:	900b883a 	mov	r5,r18
  100918:	21081004 	addi	r4,r4,8256
  10091c:	d0a01f85 	stb	r2,-32642(gp)
  100920:	01023440 	call	102344 <alt_avalon_spi_command>
  100924:	d8800315 	stw	r2,12(sp)
  100928:	d0a00517 	ldw	r2,-32748(gp)
  10092c:	14800045 	stb	r18,1(r2)
  100930:	01800834 	movhi	r6,32
  100934:	01000834 	movhi	r4,32
  100938:	0005883a 	mov	r2,zero
  10093c:	31821f04 	addi	r6,r6,2172
  100940:	21084004 	addi	r4,r4,8448
  100944:	00c01004 	movi	r3,64
  100948:	0003d106 	br	101890 <main+0x119c>
  10094c:	d0201ec5 	stb	zero,-32645(gp)
  100950:	00bff104 	movi	r2,-60
  100954:	00000606 	br	100970 <main+0x27c>
  100958:	00bfe004 	movi	r2,-128
  10095c:	d0a01ec5 	stb	r2,-32645(gp)
  100960:	00bff184 	movi	r2,-58
  100964:	003fe006 	br	1008e8 <_gp+0xffef8120>
  100968:	d0201ec5 	stb	zero,-32645(gp)
  10096c:	00bff084 	movi	r2,-62
  100970:	01800084 	movi	r6,2
  100974:	04800044 	movi	r18,1
  100978:	01000834 	movhi	r4,32
  10097c:	d8000215 	stw	zero,8(sp)
  100980:	dc400115 	stw	r17,4(sp)
  100984:	d9800015 	stw	r6,0(sp)
  100988:	d1e01ec4 	addi	r7,gp,-32645
  10098c:	900b883a 	mov	r5,r18
  100990:	21081004 	addi	r4,r4,8256
  100994:	d0a01f05 	stb	r2,-32644(gp)
  100998:	01023440 	call	102344 <alt_avalon_spi_command>
  10099c:	d8800315 	stw	r2,12(sp)
  1009a0:	d0e01f83 	ldbu	r3,-32642(gp)
  1009a4:	d0a00517 	ldw	r2,-32748(gp)
  1009a8:	10c00205 	stb	r3,8(r2)
  1009ac:	d0e01f43 	ldbu	r3,-32643(gp)
  1009b0:	10c00245 	stb	r3,9(r2)
  1009b4:	003fdd06 	br	10092c <_gp+0xffef8164>
  1009b8:	28800203 	ldbu	r2,8(r5)
  1009bc:	00c00044 	movi	r3,1
  1009c0:	10c01026 	beq	r2,r3,100a04 <main+0x310>
  1009c4:	10001226 	beq	r2,zero,100a10 <main+0x31c>
  1009c8:	01000084 	movi	r4,2
  1009cc:	1100121e 	bne	r2,r4,100a18 <main+0x324>
  1009d0:	00800184 	movi	r2,6
  1009d4:	80800035 	stwio	r2,0(r16)
  1009d8:	0001883a 	nop
  1009dc:	0001883a 	nop
  1009e0:	0001883a 	nop
  1009e4:	0001883a 	nop
  1009e8:	0001883a 	nop
  1009ec:	0001883a 	nop
  1009f0:	0001883a 	nop
  1009f4:	0001883a 	nop
  1009f8:	0001883a 	nop
  1009fc:	0001883a 	nop
  100a00:	00000306 	br	100a10 <main+0x31c>
  100a04:	00800184 	movi	r2,6
  100a08:	80800035 	stwio	r2,0(r16)
  100a0c:	00020906 	br	101234 <main+0xb40>
  100a10:	008001c4 	movi	r2,7
  100a14:	003ffc06 	br	100a08 <_gp+0xffef8240>
  100a18:	d0e02445 	stb	r3,-32623(gp)
  100a1c:	00020506 	br	101234 <main+0xb40>
  100a20:	01000104 	movi	r4,4
  100a24:	01003800 	call	100380 <Check_many_blocks>
  100a28:	10803fcc 	andi	r2,r2,255
  100a2c:	103fc01e 	bne	r2,zero,100930 <_gp+0xffef8168>
  100a30:	d0201c05 	stb	zero,-32656(gp)
  100a34:	04bfe004 	movi	r18,-128
  100a38:	d1e00417 	ldw	r7,-32752(gp)
  100a3c:	d0a01c03 	ldbu	r2,-32656(gp)
  100a40:	38c00083 	ldbu	r3,2(r7)
  100a44:	10c1fb2e 	bgeu	r2,r3,101234 <main+0xb40>
  100a48:	1085883a 	add	r2,r2,r2
  100a4c:	1085883a 	add	r2,r2,r2
  100a50:	3887883a 	add	r3,r7,r2
  100a54:	18c00204 	addi	r3,r3,8
  100a58:	19000003 	ldbu	r4,0(r3)
  100a5c:	10800204 	addi	r2,r2,8
  100a60:	388f883a 	add	r7,r7,r2
  100a64:	2488b03a 	or	r4,r4,r18
  100a68:	19000005 	stb	r4,0(r3)
  100a6c:	01000834 	movhi	r4,32
  100a70:	d8000215 	stw	zero,8(sp)
  100a74:	d8000115 	stw	zero,4(sp)
  100a78:	d8000015 	stw	zero,0(sp)
  100a7c:	01800104 	movi	r6,4
  100a80:	000b883a 	mov	r5,zero
  100a84:	21081004 	addi	r4,r4,8256
  100a88:	01023440 	call	102344 <alt_avalon_spi_command>
  100a8c:	d8800315 	stw	r2,12(sp)
  100a90:	d0a01c03 	ldbu	r2,-32656(gp)
  100a94:	10800044 	addi	r2,r2,1
  100a98:	d0a01c05 	stb	r2,-32656(gp)
  100a9c:	003fe606 	br	100a38 <_gp+0xffef8270>
  100aa0:	01000104 	movi	r4,4
  100aa4:	01003800 	call	100380 <Check_many_blocks>
  100aa8:	10803fcc 	andi	r2,r2,255
  100aac:	103fa01e 	bne	r2,zero,100930 <_gp+0xffef8168>
  100ab0:	d0201c05 	stb	zero,-32656(gp)
  100ab4:	04800084 	movi	r18,2
  100ab8:	d1200417 	ldw	r4,-32752(gp)
  100abc:	d0a01c03 	ldbu	r2,-32656(gp)
  100ac0:	d1a00517 	ldw	r6,-32748(gp)
  100ac4:	20c00083 	ldbu	r3,2(r4)
  100ac8:	10c05b2e 	bgeu	r2,r3,100c38 <main+0x544>
  100acc:	1085883a 	add	r2,r2,r2
  100ad0:	2087883a 	add	r3,r4,r2
  100ad4:	18c00204 	addi	r3,r3,8
  100ad8:	19400003 	ldbu	r5,0(r3)
  100adc:	11c00204 	addi	r7,r2,8
  100ae0:	1085883a 	add	r2,r2,r2
  100ae4:	29401fcc 	andi	r5,r5,127
  100ae8:	10800284 	addi	r2,r2,10
  100aec:	19400005 	stb	r5,0(r3)
  100af0:	3085883a 	add	r2,r6,r2
  100af4:	21cf883a 	add	r7,r4,r7
  100af8:	01000834 	movhi	r4,32
  100afc:	d8000215 	stw	zero,8(sp)
  100b00:	d8800115 	stw	r2,4(sp)
  100b04:	dc800015 	stw	r18,0(sp)
  100b08:	01800084 	movi	r6,2
  100b0c:	000b883a 	mov	r5,zero
  100b10:	21081004 	addi	r4,r4,8256
  100b14:	01023440 	call	102344 <alt_avalon_spi_command>
  100b18:	d8800315 	stw	r2,12(sp)
  100b1c:	d0a01c03 	ldbu	r2,-32656(gp)
  100b20:	10800044 	addi	r2,r2,1
  100b24:	d0a01c05 	stb	r2,-32656(gp)
  100b28:	003fe306 	br	100ab8 <_gp+0xffef82f0>
  100b2c:	01000104 	movi	r4,4
  100b30:	01003800 	call	100380 <Check_many_blocks>
  100b34:	10803fcc 	andi	r2,r2,255
  100b38:	103f7d1e 	bne	r2,zero,100930 <_gp+0xffef8168>
  100b3c:	d0201c05 	stb	zero,-32656(gp)
  100b40:	04bfe004 	movi	r18,-128
  100b44:	d1e00417 	ldw	r7,-32752(gp)
  100b48:	d0a01c03 	ldbu	r2,-32656(gp)
  100b4c:	38c00083 	ldbu	r3,2(r7)
  100b50:	10c1b82e 	bgeu	r2,r3,101234 <main+0xb40>
  100b54:	1085883a 	add	r2,r2,r2
  100b58:	1085883a 	add	r2,r2,r2
  100b5c:	3887883a 	add	r3,r7,r2
  100b60:	18c00204 	addi	r3,r3,8
  100b64:	19000003 	ldbu	r4,0(r3)
  100b68:	10800204 	addi	r2,r2,8
  100b6c:	388f883a 	add	r7,r7,r2
  100b70:	2488b03a 	or	r4,r4,r18
  100b74:	19000005 	stb	r4,0(r3)
  100b78:	01000834 	movhi	r4,32
  100b7c:	d8000215 	stw	zero,8(sp)
  100b80:	d8000115 	stw	zero,4(sp)
  100b84:	d8000015 	stw	zero,0(sp)
  100b88:	01800104 	movi	r6,4
  100b8c:	01400044 	movi	r5,1
  100b90:	21081004 	addi	r4,r4,8256
  100b94:	01023440 	call	102344 <alt_avalon_spi_command>
  100b98:	d8800315 	stw	r2,12(sp)
  100b9c:	d0a01c03 	ldbu	r2,-32656(gp)
  100ba0:	10800044 	addi	r2,r2,1
  100ba4:	d0a01c05 	stb	r2,-32656(gp)
  100ba8:	003fe606 	br	100b44 <_gp+0xffef837c>
  100bac:	01000104 	movi	r4,4
  100bb0:	01003800 	call	100380 <Check_many_blocks>
  100bb4:	10803fcc 	andi	r2,r2,255
  100bb8:	103f5d1e 	bne	r2,zero,100930 <_gp+0xffef8168>
  100bbc:	d0201c05 	stb	zero,-32656(gp)
  100bc0:	04800084 	movi	r18,2
  100bc4:	d1200417 	ldw	r4,-32752(gp)
  100bc8:	d0a01c03 	ldbu	r2,-32656(gp)
  100bcc:	d1a00517 	ldw	r6,-32748(gp)
  100bd0:	20c00083 	ldbu	r3,2(r4)
  100bd4:	10c0182e 	bgeu	r2,r3,100c38 <main+0x544>
  100bd8:	1085883a 	add	r2,r2,r2
  100bdc:	2087883a 	add	r3,r4,r2
  100be0:	18c00204 	addi	r3,r3,8
  100be4:	19400003 	ldbu	r5,0(r3)
  100be8:	11c00204 	addi	r7,r2,8
  100bec:	1085883a 	add	r2,r2,r2
  100bf0:	29401fcc 	andi	r5,r5,127
  100bf4:	10800284 	addi	r2,r2,10
  100bf8:	19400005 	stb	r5,0(r3)
  100bfc:	3085883a 	add	r2,r6,r2
  100c00:	21cf883a 	add	r7,r4,r7
  100c04:	01000834 	movhi	r4,32
  100c08:	d8000215 	stw	zero,8(sp)
  100c0c:	d8800115 	stw	r2,4(sp)
  100c10:	dc800015 	stw	r18,0(sp)
  100c14:	01800084 	movi	r6,2
  100c18:	01400044 	movi	r5,1
  100c1c:	21081004 	addi	r4,r4,8256
  100c20:	01023440 	call	102344 <alt_avalon_spi_command>
  100c24:	d8800315 	stw	r2,12(sp)
  100c28:	d0a01c03 	ldbu	r2,-32656(gp)
  100c2c:	10800044 	addi	r2,r2,1
  100c30:	d0a01c05 	stb	r2,-32656(gp)
  100c34:	003fe306 	br	100bc4 <_gp+0xffef83fc>
  100c38:	00800044 	movi	r2,1
  100c3c:	30800045 	stb	r2,1(r6)
  100c40:	003f3b06 	br	100930 <_gp+0xffef8168>
  100c44:	28c00243 	ldbu	r3,9(r5)
  100c48:	2c800343 	ldbu	r18,13(r5)
  100c4c:	1808963a 	slli	r4,r3,24
  100c50:	28c00283 	ldbu	r3,10(r5)
  100c54:	d4a01c45 	stb	r18,-32655(gp)
  100c58:	1806943a 	slli	r3,r3,16
  100c5c:	20c6b03a 	or	r3,r4,r3
  100c60:	29000303 	ldbu	r4,12(r5)
  100c64:	1908b03a 	or	r4,r3,r4
  100c68:	28c002c3 	ldbu	r3,11(r5)
  100c6c:	1806923a 	slli	r3,r3,8
  100c70:	20c6b03a 	or	r3,r4,r3
  100c74:	29000483 	ldbu	r4,18(r5)
  100c78:	d0e02315 	stw	r3,-32628(gp)
  100c7c:	2002fd1e 	bne	r4,zero,101874 <main+0x1180>
  100c80:	290004c3 	ldbu	r4,19(r5)
  100c84:	018000c4 	movi	r6,3
  100c88:	21803d1e 	bne	r4,r6,100d80 <main+0x68c>
  100c8c:	28c00203 	ldbu	r3,8(r5)
  100c90:	1802f81e 	bne	r3,zero,101874 <main+0x1180>
  100c94:	01000834 	movhi	r4,32
  100c98:	000d883a 	mov	r6,zero
  100c9c:	01401404 	movi	r5,80
  100ca0:	21082804 	addi	r4,r4,8352
  100ca4:	01002e00 	call	1002e0 <I2C_start>
  100ca8:	d0a02445 	stb	r2,-32623(gp)
  100cac:	d0a00417 	ldw	r2,-32752(gp)
  100cb0:	01000834 	movhi	r4,32
  100cb4:	000d883a 	mov	r6,zero
  100cb8:	11400403 	ldbu	r5,16(r2)
  100cbc:	21082804 	addi	r4,r4,8352
  100cc0:	0025883a 	mov	r18,zero
  100cc4:	01003440 	call	100344 <I2C_write>
  100cc8:	d0e02443 	ldbu	r3,-32623(gp)
  100ccc:	01000834 	movhi	r4,32
  100cd0:	000d883a 	mov	r6,zero
  100cd4:	10c5883a 	add	r2,r2,r3
  100cd8:	d0a02445 	stb	r2,-32623(gp)
  100cdc:	d0a00417 	ldw	r2,-32752(gp)
  100ce0:	21082804 	addi	r4,r4,8352
  100ce4:	11400443 	ldbu	r5,17(r2)
  100ce8:	01003440 	call	100344 <I2C_write>
  100cec:	d0e02443 	ldbu	r3,-32623(gp)
  100cf0:	10c5883a 	add	r2,r2,r3
  100cf4:	d0a02445 	stb	r2,-32623(gp)
  100cf8:	d0e01c43 	ldbu	r3,-32655(gp)
  100cfc:	d0a00417 	ldw	r2,-32752(gp)
  100d00:	18ffffc4 	addi	r3,r3,-1
  100d04:	90c00d0e 	bge	r18,r3,100d3c <main+0x648>
  100d08:	1485883a 	add	r2,r2,r18
  100d0c:	11400803 	ldbu	r5,32(r2)
  100d10:	01000834 	movhi	r4,32
  100d14:	000d883a 	mov	r6,zero
  100d18:	21082804 	addi	r4,r4,8352
  100d1c:	01003440 	call	100344 <I2C_write>
  100d20:	d0e02443 	ldbu	r3,-32623(gp)
  100d24:	0104e204 	movi	r4,5000
  100d28:	94800044 	addi	r18,r18,1
  100d2c:	10c5883a 	add	r2,r2,r3
  100d30:	d0a02445 	stb	r2,-32623(gp)
  100d34:	01022400 	call	102240 <usleep>
  100d38:	003fef06 	br	100cf8 <_gp+0xffef8530>
  100d3c:	14a5883a 	add	r18,r2,r18
  100d40:	91400803 	ldbu	r5,32(r18)
  100d44:	04c00044 	movi	r19,1
  100d48:	01000834 	movhi	r4,32
  100d4c:	980d883a 	mov	r6,r19
  100d50:	21082804 	addi	r4,r4,8352
  100d54:	01003440 	call	100344 <I2C_write>
  100d58:	d0e02443 	ldbu	r3,-32623(gp)
  100d5c:	0104e204 	movi	r4,5000
  100d60:	10c5883a 	add	r2,r2,r3
  100d64:	d0a02445 	stb	r2,-32623(gp)
  100d68:	01022400 	call	102240 <usleep>
  100d6c:	d0e02443 	ldbu	r3,-32623(gp)
  100d70:	d0a00517 	ldw	r2,-32748(gp)
  100d74:	1802bf1e 	bne	r3,zero,101874 <main+0x1180>
  100d78:	14c00045 	stb	r19,1(r2)
  100d7c:	003eec06 	br	100930 <_gp+0xffef8168>
  100d80:	01800044 	movi	r6,1
  100d84:	2182bb1e 	bne	r4,r6,101874 <main+0x1180>
  100d88:	29800203 	ldbu	r6,8(r5)
  100d8c:	01000084 	movi	r4,2
  100d90:	3102b81e 	bne	r6,r4,101874 <main+0x1180>
  100d94:	1800041e 	bne	r3,zero,100da8 <main+0x6b4>
  100d98:	d0201b15 	stw	zero,-32660(gp)
  100d9c:	d0201a15 	stw	zero,-32664(gp)
  100da0:	d0201815 	stw	zero,-32672(gp)
  100da4:	d0202515 	stw	zero,-32620(gp)
  100da8:	d5201a17 	ldw	r20,-32664(gp)
  100dac:	00804004 	movi	r2,256
  100db0:	1505c83a 	sub	r2,r2,r20
  100db4:	d0a01915 	stw	r2,-32668(gp)
  100db8:	0080150e 	bge	zero,r2,100e10 <main+0x71c>
  100dbc:	94803fcc 	andi	r18,r18,255
  100dc0:	9080020e 	bge	r18,r2,100dcc <main+0x6d8>
  100dc4:	d4a01815 	stw	r18,-32672(gp)
  100dc8:	00000106 	br	100dd0 <main+0x6dc>
  100dcc:	d0a01815 	stw	r2,-32672(gp)
  100dd0:	d4e01817 	ldw	r19,-32672(gp)
  100dd4:	01000834 	movhi	r4,32
  100dd8:	21022f04 	addi	r4,r4,2236
  100ddc:	980d883a 	mov	r6,r19
  100de0:	29400804 	addi	r5,r5,32
  100de4:	2509883a 	add	r4,r4,r20
  100de8:	a4e7883a 	add	r19,r20,r19
  100dec:	0101e840 	call	101e84 <memcpy>
  100df0:	d4e01a15 	stw	r19,-32664(gp)
  100df4:	00804004 	movi	r2,256
  100df8:	9000021e 	bne	r18,zero,100e04 <main+0x710>
  100dfc:	04c0010e 	bge	zero,r19,100e04 <main+0x710>
  100e00:	d0a01a15 	stw	r2,-32664(gp)
  100e04:	d0e01a17 	ldw	r3,-32664(gp)
  100e08:	10c5c83a 	sub	r2,r2,r3
  100e0c:	d0a01915 	stw	r2,-32668(gp)
  100e10:	d0a01a17 	ldw	r2,-32664(gp)
  100e14:	00c03fc4 	movi	r3,255
  100e18:	1880280e 	bge	r3,r2,100ebc <main+0x7c8>
  100e1c:	d1e01b17 	ldw	r7,-32660(gp)
  100e20:	38c4703a 	and	r2,r7,r3
  100e24:	1000101e 	bne	r2,zero,100e68 <main+0x774>
  100e28:	3800010e 	bge	r7,zero,100e30 <main+0x73c>
  100e2c:	38cf883a 	add	r7,r7,r3
  100e30:	380fd23a 	srai	r7,r7,8
  100e34:	01000834 	movhi	r4,32
  100e38:	01800044 	movi	r6,1
  100e3c:	39c03fcc 	andi	r7,r7,255
  100e40:	000b883a 	mov	r5,zero
  100e44:	21080004 	addi	r4,r4,8192
  100e48:	0101ba80 	call	101ba8 <FlashSpiEraseSector>
  100e4c:	10803fcc 	andi	r2,r2,255
  100e50:	10000326 	beq	r2,zero,100e60 <main+0x76c>
  100e54:	d0a02443 	ldbu	r2,-32623(gp)
  100e58:	10800044 	addi	r2,r2,1
  100e5c:	d0a02445 	stb	r2,-32623(gp)
  100e60:	d0a02443 	ldbu	r2,-32623(gp)
  100e64:	10000f1e 	bne	r2,zero,100ea4 <main+0x7b0>
  100e68:	00800834 	movhi	r2,32
  100e6c:	d1a01b17 	ldw	r6,-32660(gp)
  100e70:	10822f04 	addi	r2,r2,2236
  100e74:	01000834 	movhi	r4,32
  100e78:	d8000115 	stw	zero,4(sp)
  100e7c:	d8800015 	stw	r2,0(sp)
  100e80:	01c04004 	movi	r7,256
  100e84:	000b883a 	mov	r5,zero
  100e88:	21080004 	addi	r4,r4,8192
  100e8c:	0101a300 	call	101a30 <FlashSpiTransfer>
  100e90:	10803fcc 	andi	r2,r2,255
  100e94:	10000326 	beq	r2,zero,100ea4 <main+0x7b0>
  100e98:	d0a02443 	ldbu	r2,-32623(gp)
  100e9c:	10800044 	addi	r2,r2,1
  100ea0:	d0a02445 	stb	r2,-32623(gp)
  100ea4:	d0a01b17 	ldw	r2,-32660(gp)
  100ea8:	d0201a15 	stw	zero,-32664(gp)
  100eac:	10800044 	addi	r2,r2,1
  100eb0:	d0a01b15 	stw	r2,-32660(gp)
  100eb4:	00804004 	movi	r2,256
  100eb8:	d0a01915 	stw	r2,-32668(gp)
  100ebc:	d5201c43 	ldbu	r20,-32655(gp)
  100ec0:	d4a01817 	ldw	r18,-32672(gp)
  100ec4:	95000f0e 	bge	r18,r20,100f04 <main+0x810>
  100ec8:	a4a7c83a 	sub	r19,r20,r18
  100ecc:	d1600417 	ldw	r5,-32752(gp)
  100ed0:	d4a01a17 	ldw	r18,-32664(gp)
  100ed4:	01000834 	movhi	r4,32
  100ed8:	21022f04 	addi	r4,r4,2236
  100edc:	2489883a 	add	r4,r4,r18
  100ee0:	a00d883a 	mov	r6,r20
  100ee4:	29400804 	addi	r5,r5,32
  100ee8:	d4e01815 	stw	r19,-32672(gp)
  100eec:	0101e840 	call	101e84 <memcpy>
  100ef0:	9ca5883a 	add	r18,r19,r18
  100ef4:	00804004 	movi	r2,256
  100ef8:	d4a01a15 	stw	r18,-32664(gp)
  100efc:	14a5c83a 	sub	r18,r2,r18
  100f00:	d4a01915 	stw	r18,-32668(gp)
  100f04:	d1a02517 	ldw	r6,-32620(gp)
  100f08:	00c04034 	movhi	r3,256
  100f0c:	d0a00517 	ldw	r2,-32748(gp)
  100f10:	a18d883a 	add	r6,r20,r6
  100f14:	d1a02515 	stw	r6,-32620(gp)
  100f18:	19825636 	bltu	r3,r6,101874 <main+0x1180>
  100f1c:	d0e02443 	ldbu	r3,-32623(gp)
  100f20:	00025306 	br	101870 <main+0x117c>
  100f24:	28c00243 	ldbu	r3,9(r5)
  100f28:	1808963a 	slli	r4,r3,24
  100f2c:	28c00283 	ldbu	r3,10(r5)
  100f30:	1806943a 	slli	r3,r3,16
  100f34:	20c6b03a 	or	r3,r4,r3
  100f38:	29000303 	ldbu	r4,12(r5)
  100f3c:	1908b03a 	or	r4,r3,r4
  100f40:	28c002c3 	ldbu	r3,11(r5)
  100f44:	1806923a 	slli	r3,r3,8
  100f48:	20c6b03a 	or	r3,r4,r3
  100f4c:	d0e02315 	stw	r3,-32628(gp)
  100f50:	28c00343 	ldbu	r3,13(r5)
  100f54:	d0e01c45 	stb	r3,-32655(gp)
  100f58:	28c00483 	ldbu	r3,18(r5)
  100f5c:	1802451e 	bne	r3,zero,101874 <main+0x1180>
  100f60:	28c004c3 	ldbu	r3,19(r5)
  100f64:	010000c4 	movi	r4,3
  100f68:	19003b1e 	bne	r3,r4,101058 <main+0x964>
  100f6c:	28c00203 	ldbu	r3,8(r5)
  100f70:	1802401e 	bne	r3,zero,101874 <main+0x1180>
  100f74:	01000834 	movhi	r4,32
  100f78:	000d883a 	mov	r6,zero
  100f7c:	01401404 	movi	r5,80
  100f80:	21082804 	addi	r4,r4,8352
  100f84:	01002e00 	call	1002e0 <I2C_start>
  100f88:	d0a02445 	stb	r2,-32623(gp)
  100f8c:	d0a00417 	ldw	r2,-32752(gp)
  100f90:	01000834 	movhi	r4,32
  100f94:	000d883a 	mov	r6,zero
  100f98:	11400403 	ldbu	r5,16(r2)
  100f9c:	21082804 	addi	r4,r4,8352
  100fa0:	0025883a 	mov	r18,zero
  100fa4:	01003440 	call	100344 <I2C_write>
  100fa8:	d0e02443 	ldbu	r3,-32623(gp)
  100fac:	01000834 	movhi	r4,32
  100fb0:	000d883a 	mov	r6,zero
  100fb4:	10c5883a 	add	r2,r2,r3
  100fb8:	d0a02445 	stb	r2,-32623(gp)
  100fbc:	d0a00417 	ldw	r2,-32752(gp)
  100fc0:	21082804 	addi	r4,r4,8352
  100fc4:	11400443 	ldbu	r5,17(r2)
  100fc8:	01003440 	call	100344 <I2C_write>
  100fcc:	d0e02443 	ldbu	r3,-32623(gp)
  100fd0:	01000834 	movhi	r4,32
  100fd4:	01800044 	movi	r6,1
  100fd8:	10c5883a 	add	r2,r2,r3
  100fdc:	01401404 	movi	r5,80
  100fe0:	21082804 	addi	r4,r4,8352
  100fe4:	d0a02445 	stb	r2,-32623(gp)
  100fe8:	01002e00 	call	1002e0 <I2C_start>
  100fec:	d0e02443 	ldbu	r3,-32623(gp)
  100ff0:	10c5883a 	add	r2,r2,r3
  100ff4:	d0a02445 	stb	r2,-32623(gp)
  100ff8:	d0a01c43 	ldbu	r2,-32655(gp)
  100ffc:	d4e00517 	ldw	r19,-32748(gp)
  101000:	10bfffc4 	addi	r2,r2,-1
  101004:	9080080e 	bge	r18,r2,101028 <main+0x934>
  101008:	01000834 	movhi	r4,32
  10100c:	000b883a 	mov	r5,zero
  101010:	21082804 	addi	r4,r4,8352
  101014:	9ca7883a 	add	r19,r19,r18
  101018:	01003180 	call	100318 <I2C_read>
  10101c:	98800805 	stb	r2,32(r19)
  101020:	94800044 	addi	r18,r18,1
  101024:	003ff406 	br	100ff8 <_gp+0xffef8830>
  101028:	05000044 	movi	r20,1
  10102c:	01000834 	movhi	r4,32
  101030:	a00b883a 	mov	r5,r20
  101034:	21082804 	addi	r4,r4,8352
  101038:	01003180 	call	100318 <I2C_read>
  10103c:	d0e02443 	ldbu	r3,-32623(gp)
  101040:	9ca5883a 	add	r18,r19,r18
  101044:	90800805 	stb	r2,32(r18)
  101048:	d0a00517 	ldw	r2,-32748(gp)
  10104c:	1802091e 	bne	r3,zero,101874 <main+0x1180>
  101050:	15000045 	stb	r20,1(r2)
  101054:	003e3606 	br	100930 <_gp+0xffef8168>
  101058:	01000044 	movi	r4,1
  10105c:	1902051e 	bne	r3,r4,101874 <main+0x1180>
  101060:	28800383 	ldbu	r2,14(r5)
  101064:	04800834 	movhi	r18,32
  101068:	94822f04 	addi	r18,r18,2236
  10106c:	100c963a 	slli	r6,r2,24
  101070:	288003c3 	ldbu	r2,15(r5)
  101074:	01000834 	movhi	r4,32
  101078:	01c04004 	movi	r7,256
  10107c:	1004943a 	slli	r2,r2,16
  101080:	21080004 	addi	r4,r4,8192
  101084:	3084b03a 	or	r2,r6,r2
  101088:	29800443 	ldbu	r6,17(r5)
  10108c:	118cb03a 	or	r6,r2,r6
  101090:	28800403 	ldbu	r2,16(r5)
  101094:	dc800015 	stw	r18,0(sp)
  101098:	000b883a 	mov	r5,zero
  10109c:	1004923a 	slli	r2,r2,8
  1010a0:	308cb03a 	or	r6,r6,r2
  1010a4:	d1a01b15 	stw	r6,-32660(gp)
  1010a8:	01019000 	call	101900 <FlashSpiRead>
  1010ac:	10803fcc 	andi	r2,r2,255
  1010b0:	10000326 	beq	r2,zero,1010c0 <main+0x9cc>
  1010b4:	d0a02443 	ldbu	r2,-32623(gp)
  1010b8:	10800044 	addi	r2,r2,1
  1010bc:	d0a02445 	stb	r2,-32623(gp)
  1010c0:	d0a00517 	ldw	r2,-32748(gp)
  1010c4:	d1201c43 	ldbu	r4,-32655(gp)
  1010c8:	0007883a 	mov	r3,zero
  1010cc:	10800804 	addi	r2,r2,32
  1010d0:	1901e50e 	bge	r3,r4,101868 <main+0x1174>
  1010d4:	1c8b883a 	add	r5,r3,r18
  1010d8:	29400003 	ldbu	r5,0(r5)
  1010dc:	18c00044 	addi	r3,r3,1
  1010e0:	10800044 	addi	r2,r2,1
  1010e4:	117fffc5 	stb	r5,-1(r2)
  1010e8:	003ff906 	br	1010d0 <_gp+0xffef8908>
  1010ec:	d0201c05 	stb	zero,-32656(gp)
  1010f0:	04800044 	movi	r18,1
  1010f4:	04c01404 	movi	r19,80
  1010f8:	d0e00417 	ldw	r3,-32752(gp)
  1010fc:	d0a01c03 	ldbu	r2,-32656(gp)
  101100:	19000083 	ldbu	r4,2(r3)
  101104:	11004b2e 	bgeu	r2,r4,101234 <main+0xb40>
  101108:	1887883a 	add	r3,r3,r2
  10110c:	18c00203 	ldbu	r3,8(r3)
  101110:	18000226 	beq	r3,zero,10111c <main+0xa28>
  101114:	1c800a26 	beq	r3,r18,101140 <main+0xa4c>
  101118:	00003f06 	br	101218 <main+0xb24>
  10111c:	d0e00517 	ldw	r3,-32748(gp)
  101120:	1085883a 	add	r2,r2,r2
  101124:	1085883a 	add	r2,r2,r2
  101128:	1885883a 	add	r2,r3,r2
  10112c:	10000205 	stb	zero,8(r2)
  101130:	10000245 	stb	zero,9(r2)
  101134:	10000285 	stb	zero,10(r2)
  101138:	d0e00383 	ldbu	r3,-32754(gp)
  10113c:	00003406 	br	101210 <main+0xb1c>
  101140:	01000834 	movhi	r4,32
  101144:	000d883a 	mov	r6,zero
  101148:	01401204 	movi	r5,72
  10114c:	21082804 	addi	r4,r4,8352
  101150:	01002e00 	call	1002e0 <I2C_start>
  101154:	01000834 	movhi	r4,32
  101158:	900d883a 	mov	r6,r18
  10115c:	000b883a 	mov	r5,zero
  101160:	21082804 	addi	r4,r4,8352
  101164:	d8800315 	stw	r2,12(sp)
  101168:	01003440 	call	100344 <I2C_write>
  10116c:	01000834 	movhi	r4,32
  101170:	900d883a 	mov	r6,r18
  101174:	01401204 	movi	r5,72
  101178:	21082804 	addi	r4,r4,8352
  10117c:	d8800315 	stw	r2,12(sp)
  101180:	01002e00 	call	1002e0 <I2C_start>
  101184:	01000834 	movhi	r4,32
  101188:	000b883a 	mov	r5,zero
  10118c:	21082804 	addi	r4,r4,8352
  101190:	d8800315 	stw	r2,12(sp)
  101194:	01003180 	call	100318 <I2C_read>
  101198:	11003fcc 	andi	r4,r2,255
  10119c:	2100201c 	xori	r4,r4,128
  1011a0:	01400284 	movi	r5,10
  1011a4:	213fe004 	addi	r4,r4,-128
  1011a8:	0101e5c0 	call	101e5c <__mulsi3>
  1011ac:	01000834 	movhi	r4,32
  1011b0:	900b883a 	mov	r5,r18
  1011b4:	21082804 	addi	r4,r4,8352
  1011b8:	d0a0030d 	sth	r2,-32756(gp)
  1011bc:	01003180 	call	100318 <I2C_read>
  1011c0:	d8800315 	stw	r2,12(sp)
  1011c4:	d8800317 	ldw	r2,12(sp)
  1011c8:	1080200c 	andi	r2,r2,128
  1011cc:	10000326 	beq	r2,zero,1011dc <main+0xae8>
  1011d0:	d0a0030b 	ldhu	r2,-32756(gp)
  1011d4:	10800144 	addi	r2,r2,5
  1011d8:	d0a0030d 	sth	r2,-32756(gp)
  1011dc:	d0e01c03 	ldbu	r3,-32656(gp)
  1011e0:	d1200417 	ldw	r4,-32752(gp)
  1011e4:	18c5883a 	add	r2,r3,r3
  1011e8:	20c7883a 	add	r3,r4,r3
  1011ec:	d1200517 	ldw	r4,-32748(gp)
  1011f0:	18c00203 	ldbu	r3,8(r3)
  1011f4:	1085883a 	add	r2,r2,r2
  1011f8:	2085883a 	add	r2,r4,r2
  1011fc:	10c00205 	stb	r3,8(r2)
  101200:	d0e0030b 	ldhu	r3,-32756(gp)
  101204:	14c00245 	stb	r19,9(r2)
  101208:	1808d23a 	srli	r4,r3,8
  10120c:	11000285 	stb	r4,10(r2)
  101210:	10c002c5 	stb	r3,11(r2)
  101214:	00000306 	br	101224 <main+0xb30>
  101218:	d0a02443 	ldbu	r2,-32623(gp)
  10121c:	10800044 	addi	r2,r2,1
  101220:	d0a02445 	stb	r2,-32623(gp)
  101224:	d0a01c03 	ldbu	r2,-32656(gp)
  101228:	10800044 	addi	r2,r2,1
  10122c:	d0a01c05 	stb	r2,-32656(gp)
  101230:	003fb106 	br	1010f8 <_gp+0xffef8930>
  101234:	00c00044 	movi	r3,1
  101238:	d0a00517 	ldw	r2,-32748(gp)
  10123c:	00019206 	br	101888 <main+0x1194>
  101240:	01000104 	movi	r4,4
  101244:	01003800 	call	100380 <Check_many_blocks>
  101248:	10803fcc 	andi	r2,r2,255
  10124c:	103db81e 	bne	r2,zero,100930 <_gp+0xffef8168>
  101250:	d0201c05 	stb	zero,-32656(gp)
  101254:	d0a00417 	ldw	r2,-32752(gp)
  101258:	d0e01c03 	ldbu	r3,-32656(gp)
  10125c:	11000083 	ldbu	r4,2(r2)
  101260:	1901812e 	bgeu	r3,r4,101868 <main+0x1174>
  101264:	18c7883a 	add	r3,r3,r3
  101268:	18c7883a 	add	r3,r3,r3
  10126c:	10c5883a 	add	r2,r2,r3
  101270:	10c00203 	ldbu	r3,8(r2)
  101274:	1800161e 	bne	r3,zero,1012d0 <main+0xbdc>
  101278:	10c00243 	ldbu	r3,9(r2)
  10127c:	1800141e 	bne	r3,zero,1012d0 <main+0xbdc>
  101280:	10c00283 	ldbu	r3,10(r2)
  101284:	1800121e 	bne	r3,zero,1012d0 <main+0xbdc>
  101288:	108002c3 	ldbu	r2,11(r2)
  10128c:	01000834 	movhi	r4,32
  101290:	d8000215 	stw	zero,8(sp)
  101294:	d0a00385 	stb	r2,-32754(gp)
  101298:	10803fcc 	andi	r2,r2,255
  10129c:	1006d0ba 	srli	r3,r2,2
  1012a0:	100491ba 	slli	r2,r2,6
  1012a4:	d8000115 	stw	zero,4(sp)
  1012a8:	d8000015 	stw	zero,0(sp)
  1012ac:	d1e01e04 	addi	r7,gp,-32648
  1012b0:	01800084 	movi	r6,2
  1012b4:	000b883a 	mov	r5,zero
  1012b8:	21080804 	addi	r4,r4,8224
  1012bc:	d0e01e05 	stb	r3,-32648(gp)
  1012c0:	d0a01e45 	stb	r2,-32647(gp)
  1012c4:	01023440 	call	102344 <alt_avalon_spi_command>
  1012c8:	d8800315 	stw	r2,12(sp)
  1012cc:	00000306 	br	1012dc <main+0xbe8>
  1012d0:	d0a02443 	ldbu	r2,-32623(gp)
  1012d4:	10800044 	addi	r2,r2,1
  1012d8:	d0a02445 	stb	r2,-32623(gp)
  1012dc:	d0a01c03 	ldbu	r2,-32656(gp)
  1012e0:	10800044 	addi	r2,r2,1
  1012e4:	d0a01c05 	stb	r2,-32656(gp)
  1012e8:	003fda06 	br	101254 <_gp+0xffef8a8c>
  1012ec:	28c00243 	ldbu	r3,9(r5)
  1012f0:	29800343 	ldbu	r6,13(r5)
  1012f4:	1808963a 	slli	r4,r3,24
  1012f8:	28c00283 	ldbu	r3,10(r5)
  1012fc:	d1a01c45 	stb	r6,-32655(gp)
  101300:	1806943a 	slli	r3,r3,16
  101304:	20c6b03a 	or	r3,r4,r3
  101308:	29000303 	ldbu	r4,12(r5)
  10130c:	1908b03a 	or	r4,r3,r4
  101310:	28c002c3 	ldbu	r3,11(r5)
  101314:	29400203 	ldbu	r5,8(r5)
  101318:	1806923a 	slli	r3,r3,8
  10131c:	20c6b03a 	or	r3,r4,r3
  101320:	d0e02315 	stw	r3,-32628(gp)
  101324:	01000044 	movi	r4,1
  101328:	29000526 	beq	r5,r4,101340 <main+0xc4c>
  10132c:	28015126 	beq	r5,zero,101874 <main+0x1180>
  101330:	00c00084 	movi	r3,2
  101334:	28c0881e 	bne	r5,r3,101558 <main+0xe64>
  101338:	d1201315 	stw	r4,-32692(gp)
  10133c:	00008606 	br	101558 <main+0xe64>
  101340:	1800021e 	bne	r3,zero,10134c <main+0xc58>
  101344:	00800284 	movi	r2,10
  101348:	d0a02105 	stb	r2,-32636(gp)
  10134c:	31803fcc 	andi	r6,r6,255
  101350:	3000021e 	bne	r6,zero,10135c <main+0xc68>
  101354:	00800784 	movi	r2,30
  101358:	d0a02105 	stb	r2,-32636(gp)
  10135c:	00800044 	movi	r2,1
  101360:	010002c4 	movi	r4,11
  101364:	02000834 	movhi	r8,32
  101368:	01c00044 	movi	r7,1
  10136c:	027e0034 	movhi	r9,63488
  101370:	01400834 	movhi	r5,32
  101374:	054002f4 	movhi	r21,11
  101378:	03000174 	movhi	r12,5
  10137c:	05800274 	movhi	r22,9
  101380:	05fdf834 	movhi	r23,63456
  101384:	d0a01405 	stb	r2,-32688(gp)
  101388:	42084404 	addi	r8,r8,8464
  10138c:	03400404 	movi	r13,16
  101390:	201d883a 	mov	r14,r4
  101394:	4a7fffc4 	addi	r9,r9,-1
  101398:	29484504 	addi	r5,r5,8468
  10139c:	02800504 	movi	r10,20
  1013a0:	380d883a 	mov	r6,r7
  1013a4:	02c00144 	movi	r11,5
  1013a8:	03c00504 	movi	r15,20
  1013ac:	07c00604 	movi	ra,24
  1013b0:	04800d04 	movi	r18,52
  1013b4:	04c00434 	movhi	r19,16
  1013b8:	05000084 	movi	r20,2
  1013bc:	ad6b9804 	addi	r21,r21,-20896
  1013c0:	63280004 	addi	r12,r12,-24576
  1013c4:	b5afffc4 	addi	r22,r22,-16385
  1013c8:	bdffffc4 	addi	r23,r23,-1
  1013cc:	d0a01403 	ldbu	r2,-32688(gp)
  1013d0:	103d5726 	beq	r2,zero,100930 <_gp+0xffef8168>
  1013d4:	d0a02103 	ldbu	r2,-32636(gp)
  1013d8:	11001226 	beq	r2,r4,101424 <main+0xd30>
  1013dc:	20800a36 	bltu	r4,r2,101408 <main+0xd14>
  1013e0:	00c00284 	movi	r3,10
  1013e4:	10c0571e 	bne	r2,r3,101544 <main+0xe50>
  1013e8:	d3200115 	stw	r12,-32764(gp)
  1013ec:	d5a00015 	stw	r22,-32768(gp)
  1013f0:	d3201715 	stw	r12,-32676(gp)
  1013f4:	2a400035 	stwio	r9,0(r5)
  1013f8:	2dc00035 	stwio	r23,0(r5)
  1013fc:	d1202105 	stb	r4,-32636(gp)
  101400:	d1a01405 	stb	r6,-32688(gp)
  101404:	00000706 	br	101424 <main+0xd30>
  101408:	13c01826 	beq	r2,r15,10146c <main+0xd78>
  10140c:	00c00784 	movi	r3,30
  101410:	10c04c1e 	bne	r2,r3,101544 <main+0xe50>
  101414:	00bfffc4 	movi	r2,-1
  101418:	28800035 	stwio	r2,0(r5)
  10141c:	d0202105 	stb	zero,-32636(gp)
  101420:	00004406 	br	101534 <main+0xe40>
  101424:	40800037 	ldwio	r2,0(r8)
  101428:	00c00834 	movhi	r3,32
  10142c:	108004cc 	andi	r2,r2,19
  101430:	18c84404 	addi	r3,r3,8464
  101434:	1340031e 	bne	r2,r13,101444 <main+0xd50>
  101438:	2a400035 	stwio	r9,0(r5)
  10143c:	d2a02105 	stb	r10,-32636(gp)
  101440:	d1a01405 	stb	r6,-32688(gp)
  101444:	18800037 	ldwio	r2,0(r3)
  101448:	108004cc 	andi	r2,r2,19
  10144c:	11c0021e 	bne	r2,r7,101458 <main+0xd64>
  101450:	d3a02105 	stb	r14,-32636(gp)
  101454:	d1e01405 	stb	r7,-32688(gp)
  101458:	18800037 	ldwio	r2,0(r3)
  10145c:	108004cc 	andi	r2,r2,19
  101460:	103fda1e 	bne	r2,zero,1013cc <_gp+0xffef8c04>
  101464:	d0202105 	stb	zero,-32636(gp)
  101468:	003fd806 	br	1013cc <_gp+0xffef8c04>
  10146c:	d7e01615 	stw	ra,-32680(gp)
  101470:	d0a01617 	ldw	r2,-32680(gp)
  101474:	90802e36 	bltu	r18,r2,101530 <main+0xe3c>
  101478:	d7200417 	ldw	fp,-32752(gp)
  10147c:	e0b9883a 	add	fp,fp,r2
  101480:	e0c00203 	ldbu	r3,8(fp)
  101484:	1807c032 	custom	0,r3,r3,zero
  101488:	e0800243 	ldbu	r2,9(fp)
  10148c:	18ffc02c 	andhi	r3,r3,65280
  101490:	1005c032 	custom	0,r2,r2,zero
  101494:	1005d23a 	srai	r2,r2,8
  101498:	10803fec 	andhi	r2,r2,255
  10149c:	1886b03a 	or	r3,r3,r2
  1014a0:	e0800283 	ldbu	r2,10(fp)
  1014a4:	1005c032 	custom	0,r2,r2,zero
  1014a8:	1005d43a 	srai	r2,r2,16
  1014ac:	10bfc00c 	andi	r2,r2,65280
  1014b0:	1884b03a 	or	r2,r3,r2
  1014b4:	e0c002c3 	ldbu	r3,11(fp)
  1014b8:	1807c032 	custom	0,r3,r3,zero
  1014bc:	1806d63a 	srli	r3,r3,24
  1014c0:	d7200017 	ldw	fp,-32768(gp)
  1014c4:	1884b03a 	or	r2,r3,r2
  1014c8:	d0e01717 	ldw	r3,-32676(gp)
  1014cc:	d0a01515 	stw	r2,-32684(gp)
  1014d0:	e0c01136 	bltu	fp,r3,101518 <main+0xe24>
  1014d4:	1cc7883a 	add	r3,r3,r19
  1014d8:	18800035 	stwio	r2,0(r3)
  1014dc:	d0a01717 	ldw	r2,-32676(gp)
  1014e0:	10800104 	addi	r2,r2,4
  1014e4:	d0a01715 	stw	r2,-32676(gp)
  1014e8:	40800037 	ldwio	r2,0(r8)
  1014ec:	00c00834 	movhi	r3,32
  1014f0:	108002cc 	andi	r2,r2,11
  1014f4:	18c84404 	addi	r3,r3,8464
  1014f8:	153ffb26 	beq	r2,r20,1014e8 <_gp+0xffef8d20>
  1014fc:	18800037 	ldwio	r2,0(r3)
  101500:	108002cc 	andi	r2,r2,11
  101504:	1000021e 	bne	r2,zero,101510 <main+0xe1c>
  101508:	d0202105 	stb	zero,-32636(gp)
  10150c:	d5601715 	stw	r21,-32676(gp)
  101510:	18800037 	ldwio	r2,0(r3)
  101514:	00000206 	br	101520 <main+0xe2c>
  101518:	d0a00517 	ldw	r2,-32748(gp)
  10151c:	12c00045 	stb	r11,1(r2)
  101520:	d0a01617 	ldw	r2,-32680(gp)
  101524:	10800104 	addi	r2,r2,4
  101528:	d0a01615 	stw	r2,-32680(gp)
  10152c:	003fd006 	br	101470 <_gp+0xffef8ca8>
  101530:	d2a02105 	stb	r10,-32636(gp)
  101534:	d0a00517 	ldw	r2,-32748(gp)
  101538:	d0201405 	stb	zero,-32688(gp)
  10153c:	11800045 	stb	r6,1(r2)
  101540:	003fa206 	br	1013cc <_gp+0xffef8c04>
  101544:	d0a00517 	ldw	r2,-32748(gp)
  101548:	d0202105 	stb	zero,-32636(gp)
  10154c:	d0201405 	stb	zero,-32688(gp)
  101550:	12c00045 	stb	r11,1(r2)
  101554:	003f9d06 	br	1013cc <_gp+0xffef8c04>
  101558:	11000045 	stb	r4,1(r2)
  10155c:	003cf406 	br	100930 <_gp+0xffef8168>
  101560:	28c00243 	ldbu	r3,9(r5)
  101564:	d0e02315 	stw	r3,-32628(gp)
  101568:	18000526 	beq	r3,zero,101580 <main+0xe8c>
  10156c:	d1202217 	ldw	r4,-32632(gp)
  101570:	18ffffc4 	addi	r3,r3,-1
  101574:	19004426 	beq	r3,r4,101688 <main+0xf94>
  101578:	00c00184 	movi	r3,6
  10157c:	0000c206 	br	101888 <main+0x1194>
  101580:	01000834 	movhi	r4,32
  101584:	04800084 	movi	r18,2
  101588:	04ffe004 	movi	r19,-128
  10158c:	d8000215 	stw	zero,8(sp)
  101590:	d8000115 	stw	zero,4(sp)
  101594:	d8000015 	stw	zero,0(sp)
  101598:	d1e01ec4 	addi	r7,gp,-32645
  10159c:	01800104 	movi	r6,4
  1015a0:	000b883a 	mov	r5,zero
  1015a4:	21081004 	addi	r4,r4,8256
  1015a8:	d4a01f05 	stb	r18,-32644(gp)
  1015ac:	d4e01ec5 	stb	r19,-32645(gp)
  1015b0:	d0201f45 	stb	zero,-32643(gp)
  1015b4:	d0201f85 	stb	zero,-32642(gp)
  1015b8:	01023440 	call	102344 <alt_avalon_spi_command>
  1015bc:	d8800315 	stw	r2,12(sp)
  1015c0:	d0a00417 	ldw	r2,-32752(gp)
  1015c4:	d4a01f05 	stb	r18,-32644(gp)
  1015c8:	d4e01ec5 	stb	r19,-32645(gp)
  1015cc:	14800203 	ldbu	r18,8(r2)
  1015d0:	d0201f45 	stb	zero,-32643(gp)
  1015d4:	00800084 	movi	r2,2
  1015d8:	90800626 	beq	r18,r2,1015f4 <main+0xf00>
  1015dc:	008000c4 	movi	r2,3
  1015e0:	90801026 	beq	r18,r2,101624 <main+0xf30>
  1015e4:	00800044 	movi	r2,1
  1015e8:	9080271e 	bne	r18,r2,101688 <main+0xf94>
  1015ec:	d4a01f85 	stb	r18,-32642(gp)
  1015f0:	00000106 	br	1015f8 <main+0xf04>
  1015f4:	d0a01f85 	stb	r2,-32642(gp)
  1015f8:	01000834 	movhi	r4,32
  1015fc:	d8000215 	stw	zero,8(sp)
  101600:	d8000115 	stw	zero,4(sp)
  101604:	d8000015 	stw	zero,0(sp)
  101608:	d1e01ec4 	addi	r7,gp,-32645
  10160c:	01800104 	movi	r6,4
  101610:	000b883a 	mov	r5,zero
  101614:	21081004 	addi	r4,r4,8256
  101618:	01023440 	call	102344 <alt_avalon_spi_command>
  10161c:	d8800315 	stw	r2,12(sp)
  101620:	00001906 	br	101688 <main+0xf94>
  101624:	d4e01ec4 	addi	r19,gp,-32645
  101628:	01000834 	movhi	r4,32
  10162c:	980f883a 	mov	r7,r19
  101630:	01800104 	movi	r6,4
  101634:	000b883a 	mov	r5,zero
  101638:	21081004 	addi	r4,r4,8256
  10163c:	d8000215 	stw	zero,8(sp)
  101640:	d8000115 	stw	zero,4(sp)
  101644:	d8000015 	stw	zero,0(sp)
  101648:	d4a01f85 	stb	r18,-32642(gp)
  10164c:	01023440 	call	102344 <alt_avalon_spi_command>
  101650:	01800084 	movi	r6,2
  101654:	01000834 	movhi	r4,32
  101658:	d8000215 	stw	zero,8(sp)
  10165c:	dcc00115 	stw	r19,4(sp)
  101660:	d9800015 	stw	r6,0(sp)
  101664:	980f883a 	mov	r7,r19
  101668:	000b883a 	mov	r5,zero
  10166c:	21081004 	addi	r4,r4,8256
  101670:	d8800315 	stw	r2,12(sp)
  101674:	d0201ec5 	stb	zero,-32645(gp)
  101678:	d4a01f05 	stb	r18,-32644(gp)
  10167c:	01023440 	call	102344 <alt_avalon_spi_command>
  101680:	d8800315 	stw	r2,12(sp)
  101684:	00007806 	br	101868 <main+0x1174>
  101688:	d0201e85 	stb	zero,-32646(gp)
  10168c:	04800744 	movi	r18,29
  101690:	d4e01ec4 	addi	r19,gp,-32645
  101694:	050000c4 	movi	r20,3
  101698:	d0a01e83 	ldbu	r2,-32646(gp)
  10169c:	90800f36 	bltu	r18,r2,1016dc <main+0xfe8>
  1016a0:	01800084 	movi	r6,2
  1016a4:	01000834 	movhi	r4,32
  1016a8:	d8000215 	stw	zero,8(sp)
  1016ac:	dcc00115 	stw	r19,4(sp)
  1016b0:	d9800015 	stw	r6,0(sp)
  1016b4:	d1e01ec4 	addi	r7,gp,-32645
  1016b8:	000b883a 	mov	r5,zero
  1016bc:	21081004 	addi	r4,r4,8256
  1016c0:	d0201ec5 	stb	zero,-32645(gp)
  1016c4:	d5201f05 	stb	r20,-32644(gp)
  1016c8:	01023440 	call	102344 <alt_avalon_spi_command>
  1016cc:	d8800315 	stw	r2,12(sp)
  1016d0:	d0a01f03 	ldbu	r2,-32644(gp)
  1016d4:	1080004c 	andi	r2,r2,1
  1016d8:	10000426 	beq	r2,zero,1016ec <main+0xff8>
  1016dc:	d0201c05 	stb	zero,-32656(gp)
  1016e0:	048007c4 	movi	r18,31
  1016e4:	04ffe004 	movi	r19,-128
  1016e8:	00000606 	br	101704 <main+0x1010>
  1016ec:	d0a01e83 	ldbu	r2,-32646(gp)
  1016f0:	01000784 	movi	r4,30
  1016f4:	10800044 	addi	r2,r2,1
  1016f8:	d0a01e85 	stb	r2,-32646(gp)
  1016fc:	01022400 	call	102240 <usleep>
  101700:	003fe506 	br	101698 <_gp+0xffef8ed0>
  101704:	d0a01c03 	ldbu	r2,-32656(gp)
  101708:	90801736 	bltu	r18,r2,101768 <main+0x1074>
  10170c:	00c00104 	movi	r3,4
  101710:	d0e01f05 	stb	r3,-32644(gp)
  101714:	d0e00417 	ldw	r3,-32752(gp)
  101718:	01000834 	movhi	r4,32
  10171c:	d1e01ec4 	addi	r7,gp,-32645
  101720:	1885883a 	add	r2,r3,r2
  101724:	10800283 	ldbu	r2,10(r2)
  101728:	01800104 	movi	r6,4
  10172c:	d8000215 	stw	zero,8(sp)
  101730:	d8000115 	stw	zero,4(sp)
  101734:	d8000015 	stw	zero,0(sp)
  101738:	000b883a 	mov	r5,zero
  10173c:	21081004 	addi	r4,r4,8256
  101740:	d4e01ec5 	stb	r19,-32645(gp)
  101744:	d0201f45 	stb	zero,-32643(gp)
  101748:	d0a01f85 	stb	r2,-32642(gp)
  10174c:	01023440 	call	102344 <alt_avalon_spi_command>
  101750:	d8800315 	stw	r2,12(sp)
  101754:	d0a01c03 	ldbu	r2,-32656(gp)
  101758:	d0201e85 	stb	zero,-32646(gp)
  10175c:	10800044 	addi	r2,r2,1
  101760:	d0a01c05 	stb	r2,-32656(gp)
  101764:	003fe706 	br	101704 <_gp+0xffef8f3c>
  101768:	d0201e85 	stb	zero,-32646(gp)
  10176c:	d4a01ec4 	addi	r18,gp,-32645
  101770:	050000c4 	movi	r20,3
  101774:	05400084 	movi	r21,2
  101778:	01000834 	movhi	r4,32
  10177c:	d8000215 	stw	zero,8(sp)
  101780:	dc800115 	stw	r18,4(sp)
  101784:	dd400015 	stw	r21,0(sp)
  101788:	d1e01ec4 	addi	r7,gp,-32645
  10178c:	01800084 	movi	r6,2
  101790:	000b883a 	mov	r5,zero
  101794:	21081004 	addi	r4,r4,8256
  101798:	d0201ec5 	stb	zero,-32645(gp)
  10179c:	d5201f05 	stb	r20,-32644(gp)
  1017a0:	01023440 	call	102344 <alt_avalon_spi_command>
  1017a4:	d8800315 	stw	r2,12(sp)
  1017a8:	d0a01f03 	ldbu	r2,-32644(gp)
  1017ac:	d4e01ec4 	addi	r19,gp,-32645
  1017b0:	1080004c 	andi	r2,r2,1
  1017b4:	1000061e 	bne	r2,zero,1017d0 <main+0x10dc>
  1017b8:	d0a01e83 	ldbu	r2,-32646(gp)
  1017bc:	01000784 	movi	r4,30
  1017c0:	10800044 	addi	r2,r2,1
  1017c4:	d0a01e85 	stb	r2,-32646(gp)
  1017c8:	01022400 	call	102240 <usleep>
  1017cc:	003fea06 	br	101778 <_gp+0xffef8fb0>
  1017d0:	d0e02317 	ldw	r3,-32628(gp)
  1017d4:	00803fc4 	movi	r2,255
  1017d8:	1880211e 	bne	r3,r2,101860 <main+0x116c>
  1017dc:	d0201e85 	stb	zero,-32646(gp)
  1017e0:	04800744 	movi	r18,29
  1017e4:	050000c4 	movi	r20,3
  1017e8:	d0a01e83 	ldbu	r2,-32646(gp)
  1017ec:	90800f36 	bltu	r18,r2,10182c <main+0x1138>
  1017f0:	01800084 	movi	r6,2
  1017f4:	01000834 	movhi	r4,32
  1017f8:	d8000215 	stw	zero,8(sp)
  1017fc:	dcc00115 	stw	r19,4(sp)
  101800:	d9800015 	stw	r6,0(sp)
  101804:	d1e01ec4 	addi	r7,gp,-32645
  101808:	000b883a 	mov	r5,zero
  10180c:	21081004 	addi	r4,r4,8256
  101810:	d0201ec5 	stb	zero,-32645(gp)
  101814:	d5201f05 	stb	r20,-32644(gp)
  101818:	01023440 	call	102344 <alt_avalon_spi_command>
  10181c:	d8800315 	stw	r2,12(sp)
  101820:	d0a01f03 	ldbu	r2,-32644(gp)
  101824:	1080100c 	andi	r2,r2,64
  101828:	10000726 	beq	r2,zero,101848 <main+0x1154>
  10182c:	d0e01e83 	ldbu	r3,-32646(gp)
  101830:	00800784 	movi	r2,30
  101834:	18800a1e 	bne	r3,r2,101860 <main+0x116c>
  101838:	d0a02443 	ldbu	r2,-32623(gp)
  10183c:	10800044 	addi	r2,r2,1
  101840:	d0a02445 	stb	r2,-32623(gp)
  101844:	00000606 	br	101860 <main+0x116c>
  101848:	d0a01e83 	ldbu	r2,-32646(gp)
  10184c:	01000784 	movi	r4,30
  101850:	10800044 	addi	r2,r2,1
  101854:	d0a01e85 	stb	r2,-32646(gp)
  101858:	01022400 	call	102240 <usleep>
  10185c:	003fe206 	br	1017e8 <_gp+0xffef9020>
  101860:	d0a02317 	ldw	r2,-32628(gp)
  101864:	d0a02215 	stw	r2,-32632(gp)
  101868:	d0e02443 	ldbu	r3,-32623(gp)
  10186c:	d0a00517 	ldw	r2,-32748(gp)
  101870:	18000226 	beq	r3,zero,10187c <main+0x1188>
  101874:	00c00144 	movi	r3,5
  101878:	00000306 	br	101888 <main+0x1194>
  10187c:	00c00044 	movi	r3,1
  101880:	00000106 	br	101888 <main+0x1194>
  101884:	00c00084 	movi	r3,2
  101888:	10c00045 	stb	r3,1(r2)
  10188c:	003c2806 	br	100930 <_gp+0xffef8168>
  101890:	118b883a 	add	r5,r2,r6
  101894:	29400017 	ldw	r5,0(r5)
  101898:	21400035 	stwio	r5,0(r4)
  10189c:	10800104 	addi	r2,r2,4
  1018a0:	10fffb1e 	bne	r2,r3,101890 <_gp+0xffef90c8>
  1018a4:	d0e01317 	ldw	r3,-32692(gp)
  1018a8:	00800044 	movi	r2,1
  1018ac:	18bbc21e 	bne	r3,r2,1007b8 <_gp+0xffef7ff0>
  1018b0:	01006100 	call	100610 <boot_from_flash>
  1018b4:	003bc006 	br	1007b8 <_gp+0xffef7ff0>

001018b8 <ReverseBitOrder>:
  1018b8:	21003fcc 	andi	r4,r4,255
  1018bc:	2004d07a 	srli	r2,r4,1
  1018c0:	2109883a 	add	r4,r4,r4
  1018c4:	21002a8c 	andi	r4,r4,170
  1018c8:	1080154c 	andi	r2,r2,85
  1018cc:	2088b03a 	or	r4,r4,r2
  1018d0:	2004d0ba 	srli	r2,r4,2
  1018d4:	2109883a 	add	r4,r4,r4
  1018d8:	2109883a 	add	r4,r4,r4
  1018dc:	10800ccc 	andi	r2,r2,51
  1018e0:	2100330c 	andi	r4,r4,204
  1018e4:	2088b03a 	or	r4,r4,r2
  1018e8:	2004d13a 	srli	r2,r4,4
  1018ec:	2008913a 	slli	r4,r4,4
  1018f0:	1104b03a 	or	r2,r2,r4
  1018f4:	f800283a 	ret

001018f8 <FlashSpiFastRead>:
  1018f8:	d1202605 	stb	r4,-32616(gp)
  1018fc:	f800283a 	ret

00101900 <FlashSpiRead>:
  101900:	00800044 	movi	r2,1
  101904:	d0a02605 	stb	r2,-32616(gp)
  101908:	39ffffcc 	andi	r7,r7,65535
  10190c:	38001426 	beq	r7,zero,101960 <FlashSpiRead+0x60>
  101910:	3004d43a 	srli	r2,r6,16
  101914:	defffb04 	addi	sp,sp,-20
  101918:	d98003c5 	stb	r6,15(sp)
  10191c:	d8800345 	stb	r2,13(sp)
  101920:	3004d23a 	srli	r2,r6,8
  101924:	d9c00015 	stw	r7,0(sp)
  101928:	d8000215 	stw	zero,8(sp)
  10192c:	d8800385 	stb	r2,14(sp)
  101930:	008000c4 	movi	r2,3
  101934:	d8800305 	stb	r2,12(sp)
  101938:	d8800517 	ldw	r2,20(sp)
  10193c:	d9c00304 	addi	r7,sp,12
  101940:	01800104 	movi	r6,4
  101944:	d8800115 	stw	r2,4(sp)
  101948:	dfc00415 	stw	ra,16(sp)
  10194c:	01023440 	call	102344 <alt_avalon_spi_command>
  101950:	0005883a 	mov	r2,zero
  101954:	dfc00417 	ldw	ra,16(sp)
  101958:	dec00504 	addi	sp,sp,20
  10195c:	f800283a 	ret
  101960:	0005883a 	mov	r2,zero
  101964:	f800283a 	ret

00101968 <CyFxSpiWaitForStatus>:
  101968:	defff504 	addi	sp,sp,-44
  10196c:	dd400915 	stw	r21,36(sp)
  101970:	dd000815 	stw	r20,32(sp)
  101974:	dcc00715 	stw	r19,28(sp)
  101978:	dc800615 	stw	r18,24(sp)
  10197c:	dc000415 	stw	r16,16(sp)
  101980:	dfc00a15 	stw	ra,40(sp)
  101984:	dc400515 	stw	r17,20(sp)
  101988:	2025883a 	mov	r18,r4
  10198c:	2827883a 	mov	r19,r5
  101990:	0409c444 	movi	r16,10001
  101994:	05000184 	movi	r20,6
  101998:	05400144 	movi	r21,5
  10199c:	d9c00384 	addi	r7,sp,14
  1019a0:	01800044 	movi	r6,1
  1019a4:	980b883a 	mov	r5,r19
  1019a8:	9009883a 	mov	r4,r18
  1019ac:	d8000215 	stw	zero,8(sp)
  1019b0:	d8000115 	stw	zero,4(sp)
  1019b4:	d8000015 	stw	zero,0(sp)
  1019b8:	dd000385 	stb	r20,14(sp)
  1019bc:	01023440 	call	102344 <alt_avalon_spi_command>
  1019c0:	d8800304 	addi	r2,sp,12
  1019c4:	04400084 	movi	r17,2
  1019c8:	d8000215 	stw	zero,8(sp)
  1019cc:	d8800115 	stw	r2,4(sp)
  1019d0:	dc400015 	stw	r17,0(sp)
  1019d4:	d9c00384 	addi	r7,sp,14
  1019d8:	01800044 	movi	r6,1
  1019dc:	980b883a 	mov	r5,r19
  1019e0:	9009883a 	mov	r4,r18
  1019e4:	843fffc4 	addi	r16,r16,-1
  1019e8:	dd400385 	stb	r21,14(sp)
  1019ec:	01023440 	call	102344 <alt_avalon_spi_command>
  1019f0:	80000526 	beq	r16,zero,101a08 <CyFxSpiWaitForStatus+0xa0>
  1019f4:	d8800303 	ldbu	r2,12(sp)
  1019f8:	108000cc 	andi	r2,r2,3
  1019fc:	147fe71e 	bne	r2,r17,10199c <_gp+0xffef91d4>
  101a00:	0005883a 	mov	r2,zero
  101a04:	00000106 	br	101a0c <CyFxSpiWaitForStatus+0xa4>
  101a08:	00800044 	movi	r2,1
  101a0c:	dfc00a17 	ldw	ra,40(sp)
  101a10:	dd400917 	ldw	r21,36(sp)
  101a14:	dd000817 	ldw	r20,32(sp)
  101a18:	dcc00717 	ldw	r19,28(sp)
  101a1c:	dc800617 	ldw	r18,24(sp)
  101a20:	dc400517 	ldw	r17,20(sp)
  101a24:	dc000417 	ldw	r16,16(sp)
  101a28:	dec00b04 	addi	sp,sp,44
  101a2c:	f800283a 	ret

00101a30 <FlashSpiTransfer>:
  101a30:	defff204 	addi	sp,sp,-56
  101a34:	df000c15 	stw	fp,48(sp)
  101a38:	07000044 	movi	fp,1
  101a3c:	dcc00715 	stw	r19,28(sp)
  101a40:	dfc00d15 	stw	ra,52(sp)
  101a44:	ddc00b15 	stw	r23,44(sp)
  101a48:	dd800a15 	stw	r22,40(sp)
  101a4c:	dd400915 	stw	r21,36(sp)
  101a50:	dd000815 	stw	r20,32(sp)
  101a54:	dc800615 	stw	r18,24(sp)
  101a58:	dc400515 	stw	r17,20(sp)
  101a5c:	dc000415 	stw	r16,16(sp)
  101a60:	d7202605 	stb	fp,-32616(gp)
  101a64:	3cffffcc 	andi	r19,r7,65535
  101a68:	9800021e 	bne	r19,zero,101a74 <FlashSpiTransfer+0x44>
  101a6c:	0005883a 	mov	r2,zero
  101a70:	00004106 	br	101b78 <FlashSpiTransfer+0x148>
  101a74:	39c03fcc 	andi	r7,r7,255
  101a78:	38003e1e 	bne	r7,zero,101b74 <FlashSpiTransfer+0x144>
  101a7c:	3020923a 	slli	r16,r6,8
  101a80:	dd000e17 	ldw	r20,56(sp)
  101a84:	9826d23a 	srli	r19,r19,8
  101a88:	2825883a 	mov	r18,r5
  101a8c:	2023883a 	mov	r17,r4
  101a90:	0039883a 	mov	fp,zero
  101a94:	8521c83a 	sub	r16,r16,r20
  101a98:	05400084 	movi	r21,2
  101a9c:	05800044 	movi	r22,1
  101aa0:	05c000c4 	movi	r23,3
  101aa4:	98ffffcc 	andi	r3,r19,65535
  101aa8:	a405883a 	add	r2,r20,r16
  101aac:	18003126 	beq	r3,zero,101b74 <FlashSpiTransfer+0x144>
  101ab0:	1006d43a 	srli	r3,r2,16
  101ab4:	1004d23a 	srli	r2,r2,8
  101ab8:	d80003c5 	stb	zero,15(sp)
  101abc:	d8c00345 	stb	r3,13(sp)
  101ac0:	d8800385 	stb	r2,14(sp)
  101ac4:	d8800f17 	ldw	r2,60(sp)
  101ac8:	10001026 	beq	r2,zero,101b0c <FlashSpiTransfer+0xdc>
  101acc:	d0a02607 	ldb	r2,-32616(gp)
  101ad0:	ddc00305 	stb	r23,12(sp)
  101ad4:	1000061e 	bne	r2,zero,101af0 <FlashSpiTransfer+0xc0>
  101ad8:	900b883a 	mov	r5,r18
  101adc:	8809883a 	mov	r4,r17
  101ae0:	01019680 	call	101968 <CyFxSpiWaitForStatus>
  101ae4:	1039883a 	mov	fp,r2
  101ae8:	10803fcc 	andi	r2,r2,255
  101aec:	103fdf26 	beq	r2,zero,101a6c <_gp+0xffef92a4>
  101af0:	00804004 	movi	r2,256
  101af4:	d8000215 	stw	zero,8(sp)
  101af8:	dd000115 	stw	r20,4(sp)
  101afc:	d8800015 	stw	r2,0(sp)
  101b00:	d9c00304 	addi	r7,sp,12
  101b04:	01800104 	movi	r6,4
  101b08:	00001406 	br	101b5c <FlashSpiTransfer+0x12c>
  101b0c:	900b883a 	mov	r5,r18
  101b10:	8809883a 	mov	r4,r17
  101b14:	dd400305 	stb	r21,12(sp)
  101b18:	01019680 	call	101968 <CyFxSpiWaitForStatus>
  101b1c:	1039883a 	mov	fp,r2
  101b20:	10803fcc 	andi	r2,r2,255
  101b24:	1000131e 	bne	r2,zero,101b74 <FlashSpiTransfer+0x144>
  101b28:	d9c00304 	addi	r7,sp,12
  101b2c:	01800104 	movi	r6,4
  101b30:	dd800215 	stw	r22,8(sp)
  101b34:	d8000115 	stw	zero,4(sp)
  101b38:	d8000015 	stw	zero,0(sp)
  101b3c:	900b883a 	mov	r5,r18
  101b40:	8809883a 	mov	r4,r17
  101b44:	01023440 	call	102344 <alt_avalon_spi_command>
  101b48:	a00f883a 	mov	r7,r20
  101b4c:	d8000215 	stw	zero,8(sp)
  101b50:	d8000115 	stw	zero,4(sp)
  101b54:	d8000015 	stw	zero,0(sp)
  101b58:	01804004 	movi	r6,256
  101b5c:	900b883a 	mov	r5,r18
  101b60:	8809883a 	mov	r4,r17
  101b64:	01023440 	call	102344 <alt_avalon_spi_command>
  101b68:	a5004004 	addi	r20,r20,256
  101b6c:	9cffffc4 	addi	r19,r19,-1
  101b70:	003fcc06 	br	101aa4 <_gp+0xffef92dc>
  101b74:	e005883a 	mov	r2,fp
  101b78:	dfc00d17 	ldw	ra,52(sp)
  101b7c:	df000c17 	ldw	fp,48(sp)
  101b80:	ddc00b17 	ldw	r23,44(sp)
  101b84:	dd800a17 	ldw	r22,40(sp)
  101b88:	dd400917 	ldw	r21,36(sp)
  101b8c:	dd000817 	ldw	r20,32(sp)
  101b90:	dcc00717 	ldw	r19,28(sp)
  101b94:	dc800617 	ldw	r18,24(sp)
  101b98:	dc400517 	ldw	r17,20(sp)
  101b9c:	dc000417 	ldw	r16,16(sp)
  101ba0:	dec00e04 	addi	sp,sp,56
  101ba4:	f800283a 	ret

00101ba8 <FlashSpiEraseSector>:
  101ba8:	defff504 	addi	sp,sp,-44
  101bac:	dc000515 	stw	r16,20(sp)
  101bb0:	3021883a 	mov	r16,r6
  101bb4:	dcc00815 	stw	r19,32(sp)
  101bb8:	00800184 	movi	r2,6
  101bbc:	3827883a 	mov	r19,r7
  101bc0:	d8000215 	stw	zero,8(sp)
  101bc4:	d8000115 	stw	zero,4(sp)
  101bc8:	d8000015 	stw	zero,0(sp)
  101bcc:	d9c00304 	addi	r7,sp,12
  101bd0:	01800044 	movi	r6,1
  101bd4:	84003fcc 	andi	r16,r16,255
  101bd8:	dc800715 	stw	r18,28(sp)
  101bdc:	dc400615 	stw	r17,24(sp)
  101be0:	dfc00a15 	stw	ra,40(sp)
  101be4:	dd000915 	stw	r20,36(sp)
  101be8:	2023883a 	mov	r17,r4
  101bec:	2825883a 	mov	r18,r5
  101bf0:	d8800305 	stb	r2,12(sp)
  101bf4:	01023440 	call	102344 <alt_avalon_spi_command>
  101bf8:	80000d26 	beq	r16,zero,101c30 <FlashSpiEraseSector+0x88>
  101bfc:	00800804 	movi	r2,32
  101c00:	d8000215 	stw	zero,8(sp)
  101c04:	d8000115 	stw	zero,4(sp)
  101c08:	d8000015 	stw	zero,0(sp)
  101c0c:	d9c00304 	addi	r7,sp,12
  101c10:	01800104 	movi	r6,4
  101c14:	900b883a 	mov	r5,r18
  101c18:	8809883a 	mov	r4,r17
  101c1c:	d8800305 	stb	r2,12(sp)
  101c20:	dcc00345 	stb	r19,13(sp)
  101c24:	d8000385 	stb	zero,14(sp)
  101c28:	d80003c5 	stb	zero,15(sp)
  101c2c:	01023440 	call	102344 <alt_avalon_spi_command>
  101c30:	00800144 	movi	r2,5
  101c34:	04000bb4 	movhi	r16,46
  101c38:	d8800305 	stb	r2,12(sp)
  101c3c:	8431b044 	addi	r16,r16,-14655
  101c40:	04c00044 	movi	r19,1
  101c44:	dd000404 	addi	r20,sp,16
  101c48:	d8000215 	stw	zero,8(sp)
  101c4c:	dd000115 	stw	r20,4(sp)
  101c50:	dcc00015 	stw	r19,0(sp)
  101c54:	d9c00304 	addi	r7,sp,12
  101c58:	01800044 	movi	r6,1
  101c5c:	900b883a 	mov	r5,r18
  101c60:	8809883a 	mov	r4,r17
  101c64:	843fffc4 	addi	r16,r16,-1
  101c68:	01023440 	call	102344 <alt_avalon_spi_command>
  101c6c:	80000526 	beq	r16,zero,101c84 <FlashSpiEraseSector+0xdc>
  101c70:	d8c00403 	ldbu	r3,16(sp)
  101c74:	18c0004c 	andi	r3,r3,1
  101c78:	1805883a 	mov	r2,r3
  101c7c:	183ff21e 	bne	r3,zero,101c48 <_gp+0xffef9480>
  101c80:	00000106 	br	101c88 <FlashSpiEraseSector+0xe0>
  101c84:	00800044 	movi	r2,1
  101c88:	dfc00a17 	ldw	ra,40(sp)
  101c8c:	dd000917 	ldw	r20,36(sp)
  101c90:	dcc00817 	ldw	r19,32(sp)
  101c94:	dc800717 	ldw	r18,28(sp)
  101c98:	dc400617 	ldw	r17,24(sp)
  101c9c:	dc000517 	ldw	r16,20(sp)
  101ca0:	dec00b04 	addi	sp,sp,44
  101ca4:	f800283a 	ret

00101ca8 <__divsi3>:
  101ca8:	20001b16 	blt	r4,zero,101d18 <__divsi3+0x70>
  101cac:	000f883a 	mov	r7,zero
  101cb0:	28001616 	blt	r5,zero,101d0c <__divsi3+0x64>
  101cb4:	200d883a 	mov	r6,r4
  101cb8:	29001a2e 	bgeu	r5,r4,101d24 <__divsi3+0x7c>
  101cbc:	00800804 	movi	r2,32
  101cc0:	00c00044 	movi	r3,1
  101cc4:	00000106 	br	101ccc <__divsi3+0x24>
  101cc8:	10000d26 	beq	r2,zero,101d00 <__divsi3+0x58>
  101ccc:	294b883a 	add	r5,r5,r5
  101cd0:	10bfffc4 	addi	r2,r2,-1
  101cd4:	18c7883a 	add	r3,r3,r3
  101cd8:	293ffb36 	bltu	r5,r4,101cc8 <_gp+0xffef9500>
  101cdc:	0005883a 	mov	r2,zero
  101ce0:	18000726 	beq	r3,zero,101d00 <__divsi3+0x58>
  101ce4:	0005883a 	mov	r2,zero
  101ce8:	31400236 	bltu	r6,r5,101cf4 <__divsi3+0x4c>
  101cec:	314dc83a 	sub	r6,r6,r5
  101cf0:	10c4b03a 	or	r2,r2,r3
  101cf4:	1806d07a 	srli	r3,r3,1
  101cf8:	280ad07a 	srli	r5,r5,1
  101cfc:	183ffa1e 	bne	r3,zero,101ce8 <_gp+0xffef9520>
  101d00:	38000126 	beq	r7,zero,101d08 <__divsi3+0x60>
  101d04:	0085c83a 	sub	r2,zero,r2
  101d08:	f800283a 	ret
  101d0c:	014bc83a 	sub	r5,zero,r5
  101d10:	39c0005c 	xori	r7,r7,1
  101d14:	003fe706 	br	101cb4 <_gp+0xffef94ec>
  101d18:	0109c83a 	sub	r4,zero,r4
  101d1c:	01c00044 	movi	r7,1
  101d20:	003fe306 	br	101cb0 <_gp+0xffef94e8>
  101d24:	00c00044 	movi	r3,1
  101d28:	003fee06 	br	101ce4 <_gp+0xffef951c>

00101d2c <__modsi3>:
  101d2c:	20001716 	blt	r4,zero,101d8c <__modsi3+0x60>
  101d30:	000f883a 	mov	r7,zero
  101d34:	2005883a 	mov	r2,r4
  101d38:	28001216 	blt	r5,zero,101d84 <__modsi3+0x58>
  101d3c:	2900162e 	bgeu	r5,r4,101d98 <__modsi3+0x6c>
  101d40:	01800804 	movi	r6,32
  101d44:	00c00044 	movi	r3,1
  101d48:	00000106 	br	101d50 <__modsi3+0x24>
  101d4c:	30000a26 	beq	r6,zero,101d78 <__modsi3+0x4c>
  101d50:	294b883a 	add	r5,r5,r5
  101d54:	31bfffc4 	addi	r6,r6,-1
  101d58:	18c7883a 	add	r3,r3,r3
  101d5c:	293ffb36 	bltu	r5,r4,101d4c <_gp+0xffef9584>
  101d60:	18000526 	beq	r3,zero,101d78 <__modsi3+0x4c>
  101d64:	1806d07a 	srli	r3,r3,1
  101d68:	11400136 	bltu	r2,r5,101d70 <__modsi3+0x44>
  101d6c:	1145c83a 	sub	r2,r2,r5
  101d70:	280ad07a 	srli	r5,r5,1
  101d74:	183ffb1e 	bne	r3,zero,101d64 <_gp+0xffef959c>
  101d78:	38000126 	beq	r7,zero,101d80 <__modsi3+0x54>
  101d7c:	0085c83a 	sub	r2,zero,r2
  101d80:	f800283a 	ret
  101d84:	014bc83a 	sub	r5,zero,r5
  101d88:	003fec06 	br	101d3c <_gp+0xffef9574>
  101d8c:	0109c83a 	sub	r4,zero,r4
  101d90:	01c00044 	movi	r7,1
  101d94:	003fe706 	br	101d34 <_gp+0xffef956c>
  101d98:	00c00044 	movi	r3,1
  101d9c:	003ff106 	br	101d64 <_gp+0xffef959c>

00101da0 <__udivsi3>:
  101da0:	200d883a 	mov	r6,r4
  101da4:	2900152e 	bgeu	r5,r4,101dfc <__udivsi3+0x5c>
  101da8:	28001416 	blt	r5,zero,101dfc <__udivsi3+0x5c>
  101dac:	00800804 	movi	r2,32
  101db0:	00c00044 	movi	r3,1
  101db4:	00000206 	br	101dc0 <__udivsi3+0x20>
  101db8:	10000e26 	beq	r2,zero,101df4 <__udivsi3+0x54>
  101dbc:	28000516 	blt	r5,zero,101dd4 <__udivsi3+0x34>
  101dc0:	294b883a 	add	r5,r5,r5
  101dc4:	10bfffc4 	addi	r2,r2,-1
  101dc8:	18c7883a 	add	r3,r3,r3
  101dcc:	293ffa36 	bltu	r5,r4,101db8 <_gp+0xffef95f0>
  101dd0:	18000826 	beq	r3,zero,101df4 <__udivsi3+0x54>
  101dd4:	0005883a 	mov	r2,zero
  101dd8:	31400236 	bltu	r6,r5,101de4 <__udivsi3+0x44>
  101ddc:	314dc83a 	sub	r6,r6,r5
  101de0:	10c4b03a 	or	r2,r2,r3
  101de4:	1806d07a 	srli	r3,r3,1
  101de8:	280ad07a 	srli	r5,r5,1
  101dec:	183ffa1e 	bne	r3,zero,101dd8 <_gp+0xffef9610>
  101df0:	f800283a 	ret
  101df4:	0005883a 	mov	r2,zero
  101df8:	f800283a 	ret
  101dfc:	00c00044 	movi	r3,1
  101e00:	003ff406 	br	101dd4 <_gp+0xffef960c>

00101e04 <__umodsi3>:
  101e04:	2005883a 	mov	r2,r4
  101e08:	2900122e 	bgeu	r5,r4,101e54 <__umodsi3+0x50>
  101e0c:	28001116 	blt	r5,zero,101e54 <__umodsi3+0x50>
  101e10:	01800804 	movi	r6,32
  101e14:	00c00044 	movi	r3,1
  101e18:	00000206 	br	101e24 <__umodsi3+0x20>
  101e1c:	30000c26 	beq	r6,zero,101e50 <__umodsi3+0x4c>
  101e20:	28000516 	blt	r5,zero,101e38 <__umodsi3+0x34>
  101e24:	294b883a 	add	r5,r5,r5
  101e28:	31bfffc4 	addi	r6,r6,-1
  101e2c:	18c7883a 	add	r3,r3,r3
  101e30:	293ffa36 	bltu	r5,r4,101e1c <_gp+0xffef9654>
  101e34:	18000626 	beq	r3,zero,101e50 <__umodsi3+0x4c>
  101e38:	1806d07a 	srli	r3,r3,1
  101e3c:	11400136 	bltu	r2,r5,101e44 <__umodsi3+0x40>
  101e40:	1145c83a 	sub	r2,r2,r5
  101e44:	280ad07a 	srli	r5,r5,1
  101e48:	183ffb1e 	bne	r3,zero,101e38 <_gp+0xffef9670>
  101e4c:	f800283a 	ret
  101e50:	f800283a 	ret
  101e54:	00c00044 	movi	r3,1
  101e58:	003ff706 	br	101e38 <_gp+0xffef9670>

00101e5c <__mulsi3>:
  101e5c:	0005883a 	mov	r2,zero
  101e60:	20000726 	beq	r4,zero,101e80 <__mulsi3+0x24>
  101e64:	20c0004c 	andi	r3,r4,1
  101e68:	2008d07a 	srli	r4,r4,1
  101e6c:	18000126 	beq	r3,zero,101e74 <__mulsi3+0x18>
  101e70:	1145883a 	add	r2,r2,r5
  101e74:	294b883a 	add	r5,r5,r5
  101e78:	203ffa1e 	bne	r4,zero,101e64 <_gp+0xffef969c>
  101e7c:	f800283a 	ret
  101e80:	f800283a 	ret

00101e84 <memcpy>:
  101e84:	defffd04 	addi	sp,sp,-12
  101e88:	dfc00215 	stw	ra,8(sp)
  101e8c:	dc400115 	stw	r17,4(sp)
  101e90:	dc000015 	stw	r16,0(sp)
  101e94:	00c003c4 	movi	r3,15
  101e98:	2005883a 	mov	r2,r4
  101e9c:	1980452e 	bgeu	r3,r6,101fb4 <memcpy+0x130>
  101ea0:	2906b03a 	or	r3,r5,r4
  101ea4:	18c000cc 	andi	r3,r3,3
  101ea8:	1800441e 	bne	r3,zero,101fbc <memcpy+0x138>
  101eac:	347ffc04 	addi	r17,r6,-16
  101eb0:	8822d13a 	srli	r17,r17,4
  101eb4:	28c00104 	addi	r3,r5,4
  101eb8:	23400104 	addi	r13,r4,4
  101ebc:	8820913a 	slli	r16,r17,4
  101ec0:	2b000204 	addi	r12,r5,8
  101ec4:	22c00204 	addi	r11,r4,8
  101ec8:	84000504 	addi	r16,r16,20
  101ecc:	2a800304 	addi	r10,r5,12
  101ed0:	22400304 	addi	r9,r4,12
  101ed4:	2c21883a 	add	r16,r5,r16
  101ed8:	2811883a 	mov	r8,r5
  101edc:	200f883a 	mov	r7,r4
  101ee0:	41000017 	ldw	r4,0(r8)
  101ee4:	1fc00017 	ldw	ra,0(r3)
  101ee8:	63c00017 	ldw	r15,0(r12)
  101eec:	39000015 	stw	r4,0(r7)
  101ef0:	53800017 	ldw	r14,0(r10)
  101ef4:	6fc00015 	stw	ra,0(r13)
  101ef8:	5bc00015 	stw	r15,0(r11)
  101efc:	4b800015 	stw	r14,0(r9)
  101f00:	18c00404 	addi	r3,r3,16
  101f04:	39c00404 	addi	r7,r7,16
  101f08:	42000404 	addi	r8,r8,16
  101f0c:	6b400404 	addi	r13,r13,16
  101f10:	63000404 	addi	r12,r12,16
  101f14:	5ac00404 	addi	r11,r11,16
  101f18:	52800404 	addi	r10,r10,16
  101f1c:	4a400404 	addi	r9,r9,16
  101f20:	1c3fef1e 	bne	r3,r16,101ee0 <_gp+0xffef9718>
  101f24:	89c00044 	addi	r7,r17,1
  101f28:	380e913a 	slli	r7,r7,4
  101f2c:	310003cc 	andi	r4,r6,15
  101f30:	02c000c4 	movi	r11,3
  101f34:	11c7883a 	add	r3,r2,r7
  101f38:	29cb883a 	add	r5,r5,r7
  101f3c:	5900212e 	bgeu	r11,r4,101fc4 <memcpy+0x140>
  101f40:	1813883a 	mov	r9,r3
  101f44:	2811883a 	mov	r8,r5
  101f48:	200f883a 	mov	r7,r4
  101f4c:	42800017 	ldw	r10,0(r8)
  101f50:	4a400104 	addi	r9,r9,4
  101f54:	39ffff04 	addi	r7,r7,-4
  101f58:	4abfff15 	stw	r10,-4(r9)
  101f5c:	42000104 	addi	r8,r8,4
  101f60:	59fffa36 	bltu	r11,r7,101f4c <_gp+0xffef9784>
  101f64:	213fff04 	addi	r4,r4,-4
  101f68:	2008d0ba 	srli	r4,r4,2
  101f6c:	318000cc 	andi	r6,r6,3
  101f70:	21000044 	addi	r4,r4,1
  101f74:	2109883a 	add	r4,r4,r4
  101f78:	2109883a 	add	r4,r4,r4
  101f7c:	1907883a 	add	r3,r3,r4
  101f80:	290b883a 	add	r5,r5,r4
  101f84:	30000626 	beq	r6,zero,101fa0 <memcpy+0x11c>
  101f88:	198d883a 	add	r6,r3,r6
  101f8c:	29c00003 	ldbu	r7,0(r5)
  101f90:	18c00044 	addi	r3,r3,1
  101f94:	29400044 	addi	r5,r5,1
  101f98:	19ffffc5 	stb	r7,-1(r3)
  101f9c:	19bffb1e 	bne	r3,r6,101f8c <_gp+0xffef97c4>
  101fa0:	dfc00217 	ldw	ra,8(sp)
  101fa4:	dc400117 	ldw	r17,4(sp)
  101fa8:	dc000017 	ldw	r16,0(sp)
  101fac:	dec00304 	addi	sp,sp,12
  101fb0:	f800283a 	ret
  101fb4:	2007883a 	mov	r3,r4
  101fb8:	003ff206 	br	101f84 <_gp+0xffef97bc>
  101fbc:	2007883a 	mov	r3,r4
  101fc0:	003ff106 	br	101f88 <_gp+0xffef97c0>
  101fc4:	200d883a 	mov	r6,r4
  101fc8:	003fee06 	br	101f84 <_gp+0xffef97bc>

00101fcc <memset>:
  101fcc:	20c000cc 	andi	r3,r4,3
  101fd0:	2005883a 	mov	r2,r4
  101fd4:	18004426 	beq	r3,zero,1020e8 <memset+0x11c>
  101fd8:	31ffffc4 	addi	r7,r6,-1
  101fdc:	30004026 	beq	r6,zero,1020e0 <memset+0x114>
  101fe0:	2813883a 	mov	r9,r5
  101fe4:	200d883a 	mov	r6,r4
  101fe8:	2007883a 	mov	r3,r4
  101fec:	00000406 	br	102000 <memset+0x34>
  101ff0:	3a3fffc4 	addi	r8,r7,-1
  101ff4:	31800044 	addi	r6,r6,1
  101ff8:	38003926 	beq	r7,zero,1020e0 <memset+0x114>
  101ffc:	400f883a 	mov	r7,r8
  102000:	18c00044 	addi	r3,r3,1
  102004:	32400005 	stb	r9,0(r6)
  102008:	1a0000cc 	andi	r8,r3,3
  10200c:	403ff81e 	bne	r8,zero,101ff0 <_gp+0xffef9828>
  102010:	010000c4 	movi	r4,3
  102014:	21c02d2e 	bgeu	r4,r7,1020cc <memset+0x100>
  102018:	29003fcc 	andi	r4,r5,255
  10201c:	200c923a 	slli	r6,r4,8
  102020:	3108b03a 	or	r4,r6,r4
  102024:	200c943a 	slli	r6,r4,16
  102028:	218cb03a 	or	r6,r4,r6
  10202c:	010003c4 	movi	r4,15
  102030:	21c0182e 	bgeu	r4,r7,102094 <memset+0xc8>
  102034:	3b3ffc04 	addi	r12,r7,-16
  102038:	6018d13a 	srli	r12,r12,4
  10203c:	1a000104 	addi	r8,r3,4
  102040:	1ac00204 	addi	r11,r3,8
  102044:	6008913a 	slli	r4,r12,4
  102048:	1a800304 	addi	r10,r3,12
  10204c:	1813883a 	mov	r9,r3
  102050:	21000504 	addi	r4,r4,20
  102054:	1909883a 	add	r4,r3,r4
  102058:	49800015 	stw	r6,0(r9)
  10205c:	41800015 	stw	r6,0(r8)
  102060:	59800015 	stw	r6,0(r11)
  102064:	51800015 	stw	r6,0(r10)
  102068:	42000404 	addi	r8,r8,16
  10206c:	4a400404 	addi	r9,r9,16
  102070:	5ac00404 	addi	r11,r11,16
  102074:	52800404 	addi	r10,r10,16
  102078:	413ff71e 	bne	r8,r4,102058 <_gp+0xffef9890>
  10207c:	63000044 	addi	r12,r12,1
  102080:	6018913a 	slli	r12,r12,4
  102084:	39c003cc 	andi	r7,r7,15
  102088:	010000c4 	movi	r4,3
  10208c:	1b07883a 	add	r3,r3,r12
  102090:	21c00e2e 	bgeu	r4,r7,1020cc <memset+0x100>
  102094:	1813883a 	mov	r9,r3
  102098:	3811883a 	mov	r8,r7
  10209c:	010000c4 	movi	r4,3
  1020a0:	49800015 	stw	r6,0(r9)
  1020a4:	423fff04 	addi	r8,r8,-4
  1020a8:	4a400104 	addi	r9,r9,4
  1020ac:	223ffc36 	bltu	r4,r8,1020a0 <_gp+0xffef98d8>
  1020b0:	393fff04 	addi	r4,r7,-4
  1020b4:	2008d0ba 	srli	r4,r4,2
  1020b8:	39c000cc 	andi	r7,r7,3
  1020bc:	21000044 	addi	r4,r4,1
  1020c0:	2109883a 	add	r4,r4,r4
  1020c4:	2109883a 	add	r4,r4,r4
  1020c8:	1907883a 	add	r3,r3,r4
  1020cc:	38000526 	beq	r7,zero,1020e4 <memset+0x118>
  1020d0:	19cf883a 	add	r7,r3,r7
  1020d4:	19400005 	stb	r5,0(r3)
  1020d8:	18c00044 	addi	r3,r3,1
  1020dc:	38fffd1e 	bne	r7,r3,1020d4 <_gp+0xffef990c>
  1020e0:	f800283a 	ret
  1020e4:	f800283a 	ret
  1020e8:	2007883a 	mov	r3,r4
  1020ec:	300f883a 	mov	r7,r6
  1020f0:	003fc706 	br	102010 <_gp+0xffef9848>

001020f4 <alt_load_section>:
  1020f4:	defffc04 	addi	sp,sp,-16
  1020f8:	df000315 	stw	fp,12(sp)
  1020fc:	df000304 	addi	fp,sp,12
  102100:	e13ffd15 	stw	r4,-12(fp)
  102104:	e17ffe15 	stw	r5,-8(fp)
  102108:	e1bfff15 	stw	r6,-4(fp)
  10210c:	e0fffe17 	ldw	r3,-8(fp)
  102110:	e0bffd17 	ldw	r2,-12(fp)
  102114:	18800c26 	beq	r3,r2,102148 <alt_load_section+0x54>
  102118:	00000806 	br	10213c <alt_load_section+0x48>
  10211c:	e0bffe17 	ldw	r2,-8(fp)
  102120:	10c00104 	addi	r3,r2,4
  102124:	e0fffe15 	stw	r3,-8(fp)
  102128:	e0fffd17 	ldw	r3,-12(fp)
  10212c:	19000104 	addi	r4,r3,4
  102130:	e13ffd15 	stw	r4,-12(fp)
  102134:	18c00017 	ldw	r3,0(r3)
  102138:	10c00015 	stw	r3,0(r2)
  10213c:	e0fffe17 	ldw	r3,-8(fp)
  102140:	e0bfff17 	ldw	r2,-4(fp)
  102144:	18bff51e 	bne	r3,r2,10211c <_gp+0xffef9954>
  102148:	0001883a 	nop
  10214c:	e037883a 	mov	sp,fp
  102150:	df000017 	ldw	fp,0(sp)
  102154:	dec00104 	addi	sp,sp,4
  102158:	f800283a 	ret

0010215c <alt_load>:
  10215c:	defffe04 	addi	sp,sp,-8
  102160:	dfc00115 	stw	ra,4(sp)
  102164:	df000015 	stw	fp,0(sp)
  102168:	d839883a 	mov	fp,sp
  10216c:	01800834 	movhi	r6,32
  102170:	31820504 	addi	r6,r6,2068
  102174:	01400834 	movhi	r5,32
  102178:	29400e04 	addi	r5,r5,56
  10217c:	01000434 	movhi	r4,16
  102180:	2112e304 	addi	r4,r4,19340
  102184:	01020f40 	call	1020f4 <alt_load_section>
  102188:	01800434 	movhi	r6,16
  10218c:	31808c04 	addi	r6,r6,560
  102190:	01400434 	movhi	r5,16
  102194:	29400804 	addi	r5,r5,32
  102198:	01000434 	movhi	r4,16
  10219c:	21000804 	addi	r4,r4,32
  1021a0:	01020f40 	call	1020f4 <alt_load_section>
  1021a4:	01800834 	movhi	r6,32
  1021a8:	31800e04 	addi	r6,r6,56
  1021ac:	01400834 	movhi	r5,32
  1021b0:	29400004 	addi	r5,r5,0
  1021b4:	01000434 	movhi	r4,16
  1021b8:	2112d504 	addi	r4,r4,19284
  1021bc:	01020f40 	call	1020f4 <alt_load_section>
  1021c0:	0103fec0 	call	103fec <alt_dcache_flush_all>
  1021c4:	01042940 	call	104294 <alt_icache_flush_all>
  1021c8:	0001883a 	nop
  1021cc:	e037883a 	mov	sp,fp
  1021d0:	dfc00117 	ldw	ra,4(sp)
  1021d4:	df000017 	ldw	fp,0(sp)
  1021d8:	dec00204 	addi	sp,sp,8
  1021dc:	f800283a 	ret

001021e0 <alt_main>:
  1021e0:	defffd04 	addi	sp,sp,-12
  1021e4:	dfc00215 	stw	ra,8(sp)
  1021e8:	df000115 	stw	fp,4(sp)
  1021ec:	df000104 	addi	fp,sp,4
  1021f0:	0009883a 	mov	r4,zero
  1021f4:	01022a40 	call	1022a4 <alt_irq_init>
  1021f8:	0001883a 	nop
  1021fc:	01022dc0 	call	1022dc <alt_sys_init>
  102200:	01041180 	call	104118 <_do_ctors>
  102204:	01000434 	movhi	r4,16
  102208:	21105e04 	addi	r4,r4,16760
  10220c:	01047280 	call	104728 <atexit>
  102210:	d0a02717 	ldw	r2,-32612(gp)
  102214:	d0e02817 	ldw	r3,-32608(gp)
  102218:	d1202917 	ldw	r4,-32604(gp)
  10221c:	200d883a 	mov	r6,r4
  102220:	180b883a 	mov	r5,r3
  102224:	1009883a 	mov	r4,r2
  102228:	01006f40 	call	1006f4 <main>
  10222c:	e0bfff15 	stw	r2,-4(fp)
  102230:	01000044 	movi	r4,1
  102234:	0103eec0 	call	103eec <close>
  102238:	e13fff17 	ldw	r4,-4(fp)
  10223c:	010473c0 	call	10473c <exit>

00102240 <usleep>:
  102240:	defffd04 	addi	sp,sp,-12
  102244:	dfc00215 	stw	ra,8(sp)
  102248:	df000115 	stw	fp,4(sp)
  10224c:	df000104 	addi	fp,sp,4
  102250:	e13fff15 	stw	r4,-4(fp)
  102254:	e13fff17 	ldw	r4,-4(fp)
  102258:	0103d580 	call	103d58 <alt_busy_sleep>
  10225c:	e037883a 	mov	sp,fp
  102260:	dfc00117 	ldw	ra,4(sp)
  102264:	df000017 	ldw	fp,0(sp)
  102268:	dec00204 	addi	sp,sp,8
  10226c:	f800283a 	ret

00102270 <alt_dev_reg>:
  102270:	defffd04 	addi	sp,sp,-12
  102274:	dfc00215 	stw	ra,8(sp)
  102278:	df000115 	stw	fp,4(sp)
  10227c:	df000104 	addi	fp,sp,4
  102280:	e13fff15 	stw	r4,-4(fp)
  102284:	d1600a04 	addi	r5,gp,-32728
  102288:	e13fff17 	ldw	r4,-4(fp)
  10228c:	01040740 	call	104074 <alt_dev_llist_insert>
  102290:	e037883a 	mov	sp,fp
  102294:	dfc00117 	ldw	ra,4(sp)
  102298:	df000017 	ldw	fp,0(sp)
  10229c:	dec00204 	addi	sp,sp,8
  1022a0:	f800283a 	ret

001022a4 <alt_irq_init>:
  1022a4:	defffd04 	addi	sp,sp,-12
  1022a8:	dfc00215 	stw	ra,8(sp)
  1022ac:	df000115 	stw	fp,4(sp)
  1022b0:	df000104 	addi	fp,sp,4
  1022b4:	e13fff15 	stw	r4,-4(fp)
  1022b8:	01045d80 	call	1045d8 <altera_nios2_gen2_irq_init>
  1022bc:	00800044 	movi	r2,1
  1022c0:	1001703a 	wrctl	status,r2
  1022c4:	0001883a 	nop
  1022c8:	e037883a 	mov	sp,fp
  1022cc:	dfc00117 	ldw	ra,4(sp)
  1022d0:	df000017 	ldw	fp,0(sp)
  1022d4:	dec00204 	addi	sp,sp,8
  1022d8:	f800283a 	ret

001022dc <alt_sys_init>:
  1022dc:	defffe04 	addi	sp,sp,-8
  1022e0:	dfc00115 	stw	ra,4(sp)
  1022e4:	df000015 	stw	fp,0(sp)
  1022e8:	d839883a 	mov	fp,sp
  1022ec:	0001883a 	nop
  1022f0:	0001883a 	nop
  1022f4:	0001883a 	nop
  1022f8:	0001883a 	nop
  1022fc:	01800044 	movi	r6,1
  102300:	000b883a 	mov	r5,zero
  102304:	01000834 	movhi	r4,32
  102308:	21001804 	addi	r4,r4,96
  10230c:	01026500 	call	102650 <altera_avalon_uart_init>
  102310:	01000834 	movhi	r4,32
  102314:	21000e04 	addi	r4,r4,56
  102318:	01022700 	call	102270 <alt_dev_reg>
  10231c:	01000834 	movhi	r4,32
  102320:	21003f04 	addi	r4,r4,252
  102324:	01036cc0 	call	1036cc <altera_onchip_flash_init>
  102328:	0001883a 	nop
  10232c:	0001883a 	nop
  102330:	e037883a 	mov	sp,fp
  102334:	dfc00117 	ldw	ra,4(sp)
  102338:	df000017 	ldw	fp,0(sp)
  10233c:	dec00204 	addi	sp,sp,8
  102340:	f800283a 	ret

00102344 <alt_avalon_spi_command>:
  102344:	defff404 	addi	sp,sp,-48
  102348:	df000b15 	stw	fp,44(sp)
  10234c:	df000b04 	addi	fp,sp,44
  102350:	e13ffc15 	stw	r4,-16(fp)
  102354:	e17ffd15 	stw	r5,-12(fp)
  102358:	e1bffe15 	stw	r6,-8(fp)
  10235c:	e1ffff15 	stw	r7,-4(fp)
  102360:	e0ffff17 	ldw	r3,-4(fp)
  102364:	e0bffe17 	ldw	r2,-8(fp)
  102368:	1885883a 	add	r2,r3,r2
  10236c:	e0bff815 	stw	r2,-32(fp)
  102370:	e0c00217 	ldw	r3,8(fp)
  102374:	e0800117 	ldw	r2,4(fp)
  102378:	1885883a 	add	r2,r3,r2
  10237c:	e0bff915 	stw	r2,-28(fp)
  102380:	e0800117 	ldw	r2,4(fp)
  102384:	e0bff515 	stw	r2,-44(fp)
  102388:	e0bffe17 	ldw	r2,-8(fp)
  10238c:	e0bff615 	stw	r2,-40(fp)
  102390:	00800044 	movi	r2,1
  102394:	e0bff715 	stw	r2,-36(fp)
  102398:	e0bffc17 	ldw	r2,-16(fp)
  10239c:	10800504 	addi	r2,r2,20
  1023a0:	1009883a 	mov	r4,r2
  1023a4:	00c00044 	movi	r3,1
  1023a8:	e0bffd17 	ldw	r2,-12(fp)
  1023ac:	1884983a 	sll	r2,r3,r2
  1023b0:	20800035 	stwio	r2,0(r4)
  1023b4:	e0800317 	ldw	r2,12(fp)
  1023b8:	1080008c 	andi	r2,r2,2
  1023bc:	1000051e 	bne	r2,zero,1023d4 <alt_avalon_spi_command+0x90>
  1023c0:	e0bffc17 	ldw	r2,-16(fp)
  1023c4:	10800304 	addi	r2,r2,12
  1023c8:	1007883a 	mov	r3,r2
  1023cc:	00810004 	movi	r2,1024
  1023d0:	18800035 	stwio	r2,0(r3)
  1023d4:	e0bffc17 	ldw	r2,-16(fp)
  1023d8:	10800037 	ldwio	r2,0(r2)
  1023dc:	e0bffc17 	ldw	r2,-16(fp)
  1023e0:	10800204 	addi	r2,r2,8
  1023e4:	10800037 	ldwio	r2,0(r2)
  1023e8:	e0bffa15 	stw	r2,-24(fp)
  1023ec:	e0bffa17 	ldw	r2,-24(fp)
  1023f0:	1080100c 	andi	r2,r2,64
  1023f4:	10000226 	beq	r2,zero,102400 <alt_avalon_spi_command+0xbc>
  1023f8:	e0bff717 	ldw	r2,-36(fp)
  1023fc:	1000031e 	bne	r2,zero,10240c <alt_avalon_spi_command+0xc8>
  102400:	e0bffa17 	ldw	r2,-24(fp)
  102404:	1080200c 	andi	r2,r2,128
  102408:	103ff426 	beq	r2,zero,1023dc <_gp+0xffef9c14>
  10240c:	e0bffa17 	ldw	r2,-24(fp)
  102410:	1080100c 	andi	r2,r2,64
  102414:	10001e26 	beq	r2,zero,102490 <alt_avalon_spi_command+0x14c>
  102418:	e0bff717 	ldw	r2,-36(fp)
  10241c:	00801c0e 	bge	zero,r2,102490 <alt_avalon_spi_command+0x14c>
  102420:	e0bff717 	ldw	r2,-36(fp)
  102424:	10bfffc4 	addi	r2,r2,-1
  102428:	e0bff715 	stw	r2,-36(fp)
  10242c:	e0ffff17 	ldw	r3,-4(fp)
  102430:	e0bff817 	ldw	r2,-32(fp)
  102434:	18800a2e 	bgeu	r3,r2,102460 <alt_avalon_spi_command+0x11c>
  102438:	e0bffc17 	ldw	r2,-16(fp)
  10243c:	10800104 	addi	r2,r2,4
  102440:	1009883a 	mov	r4,r2
  102444:	e0bfff17 	ldw	r2,-4(fp)
  102448:	10c00044 	addi	r3,r2,1
  10244c:	e0ffff15 	stw	r3,-4(fp)
  102450:	10800003 	ldbu	r2,0(r2)
  102454:	10803fcc 	andi	r2,r2,255
  102458:	20800035 	stwio	r2,0(r4)
  10245c:	00000c06 	br	102490 <alt_avalon_spi_command+0x14c>
  102460:	e0bff517 	ldw	r2,-44(fp)
  102464:	10000826 	beq	r2,zero,102488 <alt_avalon_spi_command+0x144>
  102468:	e0bff517 	ldw	r2,-44(fp)
  10246c:	10bfffc4 	addi	r2,r2,-1
  102470:	e0bff515 	stw	r2,-44(fp)
  102474:	e0bffc17 	ldw	r2,-16(fp)
  102478:	10800104 	addi	r2,r2,4
  10247c:	0007883a 	mov	r3,zero
  102480:	10c00035 	stwio	r3,0(r2)
  102484:	00000206 	br	102490 <alt_avalon_spi_command+0x14c>
  102488:	00bf0004 	movi	r2,-1024
  10248c:	e0bff715 	stw	r2,-36(fp)
  102490:	e0bffa17 	ldw	r2,-24(fp)
  102494:	1080200c 	andi	r2,r2,128
  102498:	103fd026 	beq	r2,zero,1023dc <_gp+0xffef9c14>
  10249c:	e0bffc17 	ldw	r2,-16(fp)
  1024a0:	10800037 	ldwio	r2,0(r2)
  1024a4:	e0bffb15 	stw	r2,-20(fp)
  1024a8:	e0bff617 	ldw	r2,-40(fp)
  1024ac:	10000426 	beq	r2,zero,1024c0 <alt_avalon_spi_command+0x17c>
  1024b0:	e0bff617 	ldw	r2,-40(fp)
  1024b4:	10bfffc4 	addi	r2,r2,-1
  1024b8:	e0bff615 	stw	r2,-40(fp)
  1024bc:	00000506 	br	1024d4 <alt_avalon_spi_command+0x190>
  1024c0:	e0800217 	ldw	r2,8(fp)
  1024c4:	10c00044 	addi	r3,r2,1
  1024c8:	e0c00215 	stw	r3,8(fp)
  1024cc:	e0fffb17 	ldw	r3,-20(fp)
  1024d0:	10c00005 	stb	r3,0(r2)
  1024d4:	e0bff717 	ldw	r2,-36(fp)
  1024d8:	10800044 	addi	r2,r2,1
  1024dc:	e0bff715 	stw	r2,-36(fp)
  1024e0:	e0bff617 	ldw	r2,-40(fp)
  1024e4:	103fbd1e 	bne	r2,zero,1023dc <_gp+0xffef9c14>
  1024e8:	e0c00217 	ldw	r3,8(fp)
  1024ec:	e0bff917 	ldw	r2,-28(fp)
  1024f0:	18bfba1e 	bne	r3,r2,1023dc <_gp+0xffef9c14>
  1024f4:	e0bffc17 	ldw	r2,-16(fp)
  1024f8:	10800204 	addi	r2,r2,8
  1024fc:	10800037 	ldwio	r2,0(r2)
  102500:	e0bffa15 	stw	r2,-24(fp)
  102504:	e0bffa17 	ldw	r2,-24(fp)
  102508:	1080080c 	andi	r2,r2,32
  10250c:	103ff926 	beq	r2,zero,1024f4 <_gp+0xffef9d2c>
  102510:	e0800317 	ldw	r2,12(fp)
  102514:	1080004c 	andi	r2,r2,1
  102518:	1000041e 	bne	r2,zero,10252c <alt_avalon_spi_command+0x1e8>
  10251c:	e0bffc17 	ldw	r2,-16(fp)
  102520:	10800304 	addi	r2,r2,12
  102524:	0007883a 	mov	r3,zero
  102528:	10c00035 	stwio	r3,0(r2)
  10252c:	e0800117 	ldw	r2,4(fp)
  102530:	e037883a 	mov	sp,fp
  102534:	df000017 	ldw	fp,0(sp)
  102538:	dec00104 	addi	sp,sp,4
  10253c:	f800283a 	ret

00102540 <altera_avalon_uart_read_fd>:
  102540:	defffa04 	addi	sp,sp,-24
  102544:	dfc00515 	stw	ra,20(sp)
  102548:	df000415 	stw	fp,16(sp)
  10254c:	df000404 	addi	fp,sp,16
  102550:	e13ffd15 	stw	r4,-12(fp)
  102554:	e17ffe15 	stw	r5,-8(fp)
  102558:	e1bfff15 	stw	r6,-4(fp)
  10255c:	e0bffd17 	ldw	r2,-12(fp)
  102560:	10800017 	ldw	r2,0(r2)
  102564:	e0bffc15 	stw	r2,-16(fp)
  102568:	e0bffc17 	ldw	r2,-16(fp)
  10256c:	10c00a04 	addi	r3,r2,40
  102570:	e0bffd17 	ldw	r2,-12(fp)
  102574:	10800217 	ldw	r2,8(r2)
  102578:	100f883a 	mov	r7,r2
  10257c:	e1bfff17 	ldw	r6,-4(fp)
  102580:	e17ffe17 	ldw	r5,-8(fp)
  102584:	1809883a 	mov	r4,r3
  102588:	0102a540 	call	102a54 <altera_avalon_uart_read>
  10258c:	e037883a 	mov	sp,fp
  102590:	dfc00117 	ldw	ra,4(sp)
  102594:	df000017 	ldw	fp,0(sp)
  102598:	dec00204 	addi	sp,sp,8
  10259c:	f800283a 	ret

001025a0 <altera_avalon_uart_write_fd>:
  1025a0:	defffa04 	addi	sp,sp,-24
  1025a4:	dfc00515 	stw	ra,20(sp)
  1025a8:	df000415 	stw	fp,16(sp)
  1025ac:	df000404 	addi	fp,sp,16
  1025b0:	e13ffd15 	stw	r4,-12(fp)
  1025b4:	e17ffe15 	stw	r5,-8(fp)
  1025b8:	e1bfff15 	stw	r6,-4(fp)
  1025bc:	e0bffd17 	ldw	r2,-12(fp)
  1025c0:	10800017 	ldw	r2,0(r2)
  1025c4:	e0bffc15 	stw	r2,-16(fp)
  1025c8:	e0bffc17 	ldw	r2,-16(fp)
  1025cc:	10c00a04 	addi	r3,r2,40
  1025d0:	e0bffd17 	ldw	r2,-12(fp)
  1025d4:	10800217 	ldw	r2,8(r2)
  1025d8:	100f883a 	mov	r7,r2
  1025dc:	e1bfff17 	ldw	r6,-4(fp)
  1025e0:	e17ffe17 	ldw	r5,-8(fp)
  1025e4:	1809883a 	mov	r4,r3
  1025e8:	0102c6c0 	call	102c6c <altera_avalon_uart_write>
  1025ec:	e037883a 	mov	sp,fp
  1025f0:	dfc00117 	ldw	ra,4(sp)
  1025f4:	df000017 	ldw	fp,0(sp)
  1025f8:	dec00204 	addi	sp,sp,8
  1025fc:	f800283a 	ret

00102600 <altera_avalon_uart_close_fd>:
  102600:	defffc04 	addi	sp,sp,-16
  102604:	dfc00315 	stw	ra,12(sp)
  102608:	df000215 	stw	fp,8(sp)
  10260c:	df000204 	addi	fp,sp,8
  102610:	e13fff15 	stw	r4,-4(fp)
  102614:	e0bfff17 	ldw	r2,-4(fp)
  102618:	10800017 	ldw	r2,0(r2)
  10261c:	e0bffe15 	stw	r2,-8(fp)
  102620:	e0bffe17 	ldw	r2,-8(fp)
  102624:	10c00a04 	addi	r3,r2,40
  102628:	e0bfff17 	ldw	r2,-4(fp)
  10262c:	10800217 	ldw	r2,8(r2)
  102630:	100b883a 	mov	r5,r2
  102634:	1809883a 	mov	r4,r3
  102638:	01029c40 	call	1029c4 <altera_avalon_uart_close>
  10263c:	e037883a 	mov	sp,fp
  102640:	dfc00117 	ldw	ra,4(sp)
  102644:	df000017 	ldw	fp,0(sp)
  102648:	dec00204 	addi	sp,sp,8
  10264c:	f800283a 	ret

00102650 <altera_avalon_uart_init>:
  102650:	defff804 	addi	sp,sp,-32
  102654:	dfc00715 	stw	ra,28(sp)
  102658:	df000615 	stw	fp,24(sp)
  10265c:	df000604 	addi	fp,sp,24
  102660:	e13ffd15 	stw	r4,-12(fp)
  102664:	e17ffe15 	stw	r5,-8(fp)
  102668:	e1bfff15 	stw	r6,-4(fp)
  10266c:	e0bffd17 	ldw	r2,-12(fp)
  102670:	10800017 	ldw	r2,0(r2)
  102674:	e0bffb15 	stw	r2,-20(fp)
  102678:	0005883a 	mov	r2,zero
  10267c:	1000041e 	bne	r2,zero,102690 <altera_avalon_uart_init+0x40>
  102680:	0005883a 	mov	r2,zero
  102684:	1000021e 	bne	r2,zero,102690 <altera_avalon_uart_init+0x40>
  102688:	0005883a 	mov	r2,zero
  10268c:	10000226 	beq	r2,zero,102698 <altera_avalon_uart_init+0x48>
  102690:	00800044 	movi	r2,1
  102694:	00000106 	br	10269c <altera_avalon_uart_init+0x4c>
  102698:	0005883a 	mov	r2,zero
  10269c:	e0bffc15 	stw	r2,-16(fp)
  1026a0:	e0bffc17 	ldw	r2,-16(fp)
  1026a4:	10000f1e 	bne	r2,zero,1026e4 <altera_avalon_uart_init+0x94>
  1026a8:	e0bffd17 	ldw	r2,-12(fp)
  1026ac:	00c32004 	movi	r3,3200
  1026b0:	10c00115 	stw	r3,4(r2)
  1026b4:	e0bffb17 	ldw	r2,-20(fp)
  1026b8:	10800304 	addi	r2,r2,12
  1026bc:	e0fffd17 	ldw	r3,-12(fp)
  1026c0:	18c00117 	ldw	r3,4(r3)
  1026c4:	10c00035 	stwio	r3,0(r2)
  1026c8:	d8000015 	stw	zero,0(sp)
  1026cc:	e1fffd17 	ldw	r7,-12(fp)
  1026d0:	01800434 	movhi	r6,16
  1026d4:	3189bf04 	addi	r6,r6,9980
  1026d8:	e17fff17 	ldw	r5,-4(fp)
  1026dc:	e13ffe17 	ldw	r4,-8(fp)
  1026e0:	01042b40 	call	1042b4 <alt_ic_isr_register>
  1026e4:	0001883a 	nop
  1026e8:	e037883a 	mov	sp,fp
  1026ec:	dfc00117 	ldw	ra,4(sp)
  1026f0:	df000017 	ldw	fp,0(sp)
  1026f4:	dec00204 	addi	sp,sp,8
  1026f8:	f800283a 	ret

001026fc <altera_avalon_uart_irq>:
  1026fc:	defffa04 	addi	sp,sp,-24
  102700:	dfc00515 	stw	ra,20(sp)
  102704:	df000415 	stw	fp,16(sp)
  102708:	df000404 	addi	fp,sp,16
  10270c:	e13fff15 	stw	r4,-4(fp)
  102710:	e0bfff17 	ldw	r2,-4(fp)
  102714:	e0bffc15 	stw	r2,-16(fp)
  102718:	e0bffc17 	ldw	r2,-16(fp)
  10271c:	10800017 	ldw	r2,0(r2)
  102720:	e0bffd15 	stw	r2,-12(fp)
  102724:	e0bffd17 	ldw	r2,-12(fp)
  102728:	10800204 	addi	r2,r2,8
  10272c:	10800037 	ldwio	r2,0(r2)
  102730:	e0bffe15 	stw	r2,-8(fp)
  102734:	e0bffd17 	ldw	r2,-12(fp)
  102738:	10800204 	addi	r2,r2,8
  10273c:	0007883a 	mov	r3,zero
  102740:	10c00035 	stwio	r3,0(r2)
  102744:	e0bffd17 	ldw	r2,-12(fp)
  102748:	10800204 	addi	r2,r2,8
  10274c:	10800037 	ldwio	r2,0(r2)
  102750:	e0bffe17 	ldw	r2,-8(fp)
  102754:	1080200c 	andi	r2,r2,128
  102758:	10000326 	beq	r2,zero,102768 <altera_avalon_uart_irq+0x6c>
  10275c:	e17ffe17 	ldw	r5,-8(fp)
  102760:	e13ffc17 	ldw	r4,-16(fp)
  102764:	01027980 	call	102798 <altera_avalon_uart_rxirq>
  102768:	e0bffe17 	ldw	r2,-8(fp)
  10276c:	1081100c 	andi	r2,r2,1088
  102770:	10000326 	beq	r2,zero,102780 <altera_avalon_uart_irq+0x84>
  102774:	e17ffe17 	ldw	r5,-8(fp)
  102778:	e13ffc17 	ldw	r4,-16(fp)
  10277c:	010287c0 	call	10287c <altera_avalon_uart_txirq>
  102780:	0001883a 	nop
  102784:	e037883a 	mov	sp,fp
  102788:	dfc00117 	ldw	ra,4(sp)
  10278c:	df000017 	ldw	fp,0(sp)
  102790:	dec00204 	addi	sp,sp,8
  102794:	f800283a 	ret

00102798 <altera_avalon_uart_rxirq>:
  102798:	defffc04 	addi	sp,sp,-16
  10279c:	df000315 	stw	fp,12(sp)
  1027a0:	df000304 	addi	fp,sp,12
  1027a4:	e13ffe15 	stw	r4,-8(fp)
  1027a8:	e17fff15 	stw	r5,-4(fp)
  1027ac:	e0bfff17 	ldw	r2,-4(fp)
  1027b0:	108000cc 	andi	r2,r2,3
  1027b4:	10002c1e 	bne	r2,zero,102868 <altera_avalon_uart_rxirq+0xd0>
  1027b8:	e0bffe17 	ldw	r2,-8(fp)
  1027bc:	10800317 	ldw	r2,12(r2)
  1027c0:	e0bffe17 	ldw	r2,-8(fp)
  1027c4:	10800217 	ldw	r2,8(r2)
  1027c8:	e0bffe17 	ldw	r2,-8(fp)
  1027cc:	10800317 	ldw	r2,12(r2)
  1027d0:	10800044 	addi	r2,r2,1
  1027d4:	10800fcc 	andi	r2,r2,63
  1027d8:	e0bffd15 	stw	r2,-12(fp)
  1027dc:	e0bffe17 	ldw	r2,-8(fp)
  1027e0:	10800317 	ldw	r2,12(r2)
  1027e4:	e0fffe17 	ldw	r3,-8(fp)
  1027e8:	18c00017 	ldw	r3,0(r3)
  1027ec:	18c00037 	ldwio	r3,0(r3)
  1027f0:	1809883a 	mov	r4,r3
  1027f4:	e0fffe17 	ldw	r3,-8(fp)
  1027f8:	1885883a 	add	r2,r3,r2
  1027fc:	10800704 	addi	r2,r2,28
  102800:	11000005 	stb	r4,0(r2)
  102804:	e0bffe17 	ldw	r2,-8(fp)
  102808:	e0fffd17 	ldw	r3,-12(fp)
  10280c:	10c00315 	stw	r3,12(r2)
  102810:	e0bffe17 	ldw	r2,-8(fp)
  102814:	10800317 	ldw	r2,12(r2)
  102818:	10800044 	addi	r2,r2,1
  10281c:	10800fcc 	andi	r2,r2,63
  102820:	e0bffd15 	stw	r2,-12(fp)
  102824:	e0bffe17 	ldw	r2,-8(fp)
  102828:	10c00217 	ldw	r3,8(r2)
  10282c:	e0bffd17 	ldw	r2,-12(fp)
  102830:	18800e1e 	bne	r3,r2,10286c <altera_avalon_uart_rxirq+0xd4>
  102834:	e0bffe17 	ldw	r2,-8(fp)
  102838:	10c00117 	ldw	r3,4(r2)
  10283c:	00bfdfc4 	movi	r2,-129
  102840:	1886703a 	and	r3,r3,r2
  102844:	e0bffe17 	ldw	r2,-8(fp)
  102848:	10c00115 	stw	r3,4(r2)
  10284c:	e0bffe17 	ldw	r2,-8(fp)
  102850:	10800017 	ldw	r2,0(r2)
  102854:	10800304 	addi	r2,r2,12
  102858:	e0fffe17 	ldw	r3,-8(fp)
  10285c:	18c00117 	ldw	r3,4(r3)
  102860:	10c00035 	stwio	r3,0(r2)
  102864:	00000106 	br	10286c <altera_avalon_uart_rxirq+0xd4>
  102868:	0001883a 	nop
  10286c:	e037883a 	mov	sp,fp
  102870:	df000017 	ldw	fp,0(sp)
  102874:	dec00104 	addi	sp,sp,4
  102878:	f800283a 	ret

0010287c <altera_avalon_uart_txirq>:
  10287c:	defffb04 	addi	sp,sp,-20
  102880:	df000415 	stw	fp,16(sp)
  102884:	df000404 	addi	fp,sp,16
  102888:	e13ffc15 	stw	r4,-16(fp)
  10288c:	e17ffd15 	stw	r5,-12(fp)
  102890:	e0bffc17 	ldw	r2,-16(fp)
  102894:	10c00417 	ldw	r3,16(r2)
  102898:	e0bffc17 	ldw	r2,-16(fp)
  10289c:	10800517 	ldw	r2,20(r2)
  1028a0:	18803226 	beq	r3,r2,10296c <altera_avalon_uart_txirq+0xf0>
  1028a4:	e0bffc17 	ldw	r2,-16(fp)
  1028a8:	10800617 	ldw	r2,24(r2)
  1028ac:	1080008c 	andi	r2,r2,2
  1028b0:	10000326 	beq	r2,zero,1028c0 <altera_avalon_uart_txirq+0x44>
  1028b4:	e0bffd17 	ldw	r2,-12(fp)
  1028b8:	1082000c 	andi	r2,r2,2048
  1028bc:	10001d26 	beq	r2,zero,102934 <altera_avalon_uart_txirq+0xb8>
  1028c0:	e0bffc17 	ldw	r2,-16(fp)
  1028c4:	10800417 	ldw	r2,16(r2)
  1028c8:	e0bffc17 	ldw	r2,-16(fp)
  1028cc:	10800517 	ldw	r2,20(r2)
  1028d0:	e0bffc17 	ldw	r2,-16(fp)
  1028d4:	10800017 	ldw	r2,0(r2)
  1028d8:	10800104 	addi	r2,r2,4
  1028dc:	e0fffc17 	ldw	r3,-16(fp)
  1028e0:	18c00417 	ldw	r3,16(r3)
  1028e4:	e13ffc17 	ldw	r4,-16(fp)
  1028e8:	20c7883a 	add	r3,r4,r3
  1028ec:	18c01704 	addi	r3,r3,92
  1028f0:	18c00003 	ldbu	r3,0(r3)
  1028f4:	18c03fcc 	andi	r3,r3,255
  1028f8:	10c00035 	stwio	r3,0(r2)
  1028fc:	e0bffc17 	ldw	r2,-16(fp)
  102900:	10800417 	ldw	r2,16(r2)
  102904:	10800044 	addi	r2,r2,1
  102908:	e0fffc17 	ldw	r3,-16(fp)
  10290c:	18800415 	stw	r2,16(r3)
  102910:	10c00fcc 	andi	r3,r2,63
  102914:	e0bffc17 	ldw	r2,-16(fp)
  102918:	10c00415 	stw	r3,16(r2)
  10291c:	e0bffc17 	ldw	r2,-16(fp)
  102920:	10800117 	ldw	r2,4(r2)
  102924:	10c01014 	ori	r3,r2,64
  102928:	e0bffc17 	ldw	r2,-16(fp)
  10292c:	10c00115 	stw	r3,4(r2)
  102930:	00000e06 	br	10296c <altera_avalon_uart_txirq+0xf0>
  102934:	e0bffc17 	ldw	r2,-16(fp)
  102938:	10800017 	ldw	r2,0(r2)
  10293c:	10800204 	addi	r2,r2,8
  102940:	10800037 	ldwio	r2,0(r2)
  102944:	e0bffd15 	stw	r2,-12(fp)
  102948:	e0bffd17 	ldw	r2,-12(fp)
  10294c:	1082000c 	andi	r2,r2,2048
  102950:	1000061e 	bne	r2,zero,10296c <altera_avalon_uart_txirq+0xf0>
  102954:	e0bffc17 	ldw	r2,-16(fp)
  102958:	10c00117 	ldw	r3,4(r2)
  10295c:	00bfefc4 	movi	r2,-65
  102960:	1886703a 	and	r3,r3,r2
  102964:	e0bffc17 	ldw	r2,-16(fp)
  102968:	10c00115 	stw	r3,4(r2)
  10296c:	e0bffc17 	ldw	r2,-16(fp)
  102970:	10c00417 	ldw	r3,16(r2)
  102974:	e0bffc17 	ldw	r2,-16(fp)
  102978:	10800517 	ldw	r2,20(r2)
  10297c:	1880061e 	bne	r3,r2,102998 <altera_avalon_uart_txirq+0x11c>
  102980:	e0bffc17 	ldw	r2,-16(fp)
  102984:	10c00117 	ldw	r3,4(r2)
  102988:	00beefc4 	movi	r2,-1089
  10298c:	1886703a 	and	r3,r3,r2
  102990:	e0bffc17 	ldw	r2,-16(fp)
  102994:	10c00115 	stw	r3,4(r2)
  102998:	e0bffc17 	ldw	r2,-16(fp)
  10299c:	10800017 	ldw	r2,0(r2)
  1029a0:	10800304 	addi	r2,r2,12
  1029a4:	e0fffc17 	ldw	r3,-16(fp)
  1029a8:	18c00117 	ldw	r3,4(r3)
  1029ac:	10c00035 	stwio	r3,0(r2)
  1029b0:	0001883a 	nop
  1029b4:	e037883a 	mov	sp,fp
  1029b8:	df000017 	ldw	fp,0(sp)
  1029bc:	dec00104 	addi	sp,sp,4
  1029c0:	f800283a 	ret

001029c4 <altera_avalon_uart_close>:
  1029c4:	defffd04 	addi	sp,sp,-12
  1029c8:	df000215 	stw	fp,8(sp)
  1029cc:	df000204 	addi	fp,sp,8
  1029d0:	e13ffe15 	stw	r4,-8(fp)
  1029d4:	e17fff15 	stw	r5,-4(fp)
  1029d8:	00000506 	br	1029f0 <altera_avalon_uart_close+0x2c>
  1029dc:	e0bfff17 	ldw	r2,-4(fp)
  1029e0:	1090000c 	andi	r2,r2,16384
  1029e4:	10000226 	beq	r2,zero,1029f0 <altera_avalon_uart_close+0x2c>
  1029e8:	00bffd44 	movi	r2,-11
  1029ec:	00000606 	br	102a08 <altera_avalon_uart_close+0x44>
  1029f0:	e0bffe17 	ldw	r2,-8(fp)
  1029f4:	10c00417 	ldw	r3,16(r2)
  1029f8:	e0bffe17 	ldw	r2,-8(fp)
  1029fc:	10800517 	ldw	r2,20(r2)
  102a00:	18bff61e 	bne	r3,r2,1029dc <_gp+0xffefa214>
  102a04:	0005883a 	mov	r2,zero
  102a08:	e037883a 	mov	sp,fp
  102a0c:	df000017 	ldw	fp,0(sp)
  102a10:	dec00104 	addi	sp,sp,4
  102a14:	f800283a 	ret

00102a18 <alt_get_errno>:
  102a18:	defffe04 	addi	sp,sp,-8
  102a1c:	dfc00115 	stw	ra,4(sp)
  102a20:	df000015 	stw	fp,0(sp)
  102a24:	d839883a 	mov	fp,sp
  102a28:	d0a00d17 	ldw	r2,-32716(gp)
  102a2c:	10000326 	beq	r2,zero,102a3c <alt_get_errno+0x24>
  102a30:	d0a00d17 	ldw	r2,-32716(gp)
  102a34:	103ee83a 	callr	r2
  102a38:	00000106 	br	102a40 <alt_get_errno+0x28>
  102a3c:	d0a02c04 	addi	r2,gp,-32592
  102a40:	e037883a 	mov	sp,fp
  102a44:	dfc00117 	ldw	ra,4(sp)
  102a48:	df000017 	ldw	fp,0(sp)
  102a4c:	dec00204 	addi	sp,sp,8
  102a50:	f800283a 	ret

00102a54 <altera_avalon_uart_read>:
  102a54:	defff204 	addi	sp,sp,-56
  102a58:	dfc00d15 	stw	ra,52(sp)
  102a5c:	df000c15 	stw	fp,48(sp)
  102a60:	df000c04 	addi	fp,sp,48
  102a64:	e13ffc15 	stw	r4,-16(fp)
  102a68:	e17ffd15 	stw	r5,-12(fp)
  102a6c:	e1bffe15 	stw	r6,-8(fp)
  102a70:	e1ffff15 	stw	r7,-4(fp)
  102a74:	e03ff405 	stb	zero,-48(fp)
  102a78:	e03ff515 	stw	zero,-44(fp)
  102a7c:	e0bfff17 	ldw	r2,-4(fp)
  102a80:	1090000c 	andi	r2,r2,16384
  102a84:	1005003a 	cmpeq	r2,r2,zero
  102a88:	10803fcc 	andi	r2,r2,255
  102a8c:	e0bff615 	stw	r2,-40(fp)
  102a90:	00001306 	br	102ae0 <altera_avalon_uart_read+0x8c>
  102a94:	e0bff517 	ldw	r2,-44(fp)
  102a98:	10800044 	addi	r2,r2,1
  102a9c:	e0bff515 	stw	r2,-44(fp)
  102aa0:	e0bffd17 	ldw	r2,-12(fp)
  102aa4:	10c00044 	addi	r3,r2,1
  102aa8:	e0fffd15 	stw	r3,-12(fp)
  102aac:	e0fffc17 	ldw	r3,-16(fp)
  102ab0:	18c00217 	ldw	r3,8(r3)
  102ab4:	e13ffc17 	ldw	r4,-16(fp)
  102ab8:	20c7883a 	add	r3,r4,r3
  102abc:	18c00704 	addi	r3,r3,28
  102ac0:	18c00003 	ldbu	r3,0(r3)
  102ac4:	10c00005 	stb	r3,0(r2)
  102ac8:	e0bffc17 	ldw	r2,-16(fp)
  102acc:	10800217 	ldw	r2,8(r2)
  102ad0:	10800044 	addi	r2,r2,1
  102ad4:	10c00fcc 	andi	r3,r2,63
  102ad8:	e0bffc17 	ldw	r2,-16(fp)
  102adc:	10c00215 	stw	r3,8(r2)
  102ae0:	e0fff517 	ldw	r3,-44(fp)
  102ae4:	e0bffe17 	ldw	r2,-8(fp)
  102ae8:	1880050e 	bge	r3,r2,102b00 <altera_avalon_uart_read+0xac>
  102aec:	e0bffc17 	ldw	r2,-16(fp)
  102af0:	10c00217 	ldw	r3,8(r2)
  102af4:	e0bffc17 	ldw	r2,-16(fp)
  102af8:	10800317 	ldw	r2,12(r2)
  102afc:	18bfe51e 	bne	r3,r2,102a94 <_gp+0xffefa2cc>
  102b00:	e0bff517 	ldw	r2,-44(fp)
  102b04:	1000251e 	bne	r2,zero,102b9c <altera_avalon_uart_read+0x148>
  102b08:	e0bffc17 	ldw	r2,-16(fp)
  102b0c:	10c00217 	ldw	r3,8(r2)
  102b10:	e0bffc17 	ldw	r2,-16(fp)
  102b14:	10800317 	ldw	r2,12(r2)
  102b18:	1880201e 	bne	r3,r2,102b9c <altera_avalon_uart_read+0x148>
  102b1c:	e0bff617 	ldw	r2,-40(fp)
  102b20:	1000071e 	bne	r2,zero,102b40 <altera_avalon_uart_read+0xec>
  102b24:	0102a180 	call	102a18 <alt_get_errno>
  102b28:	1007883a 	mov	r3,r2
  102b2c:	008002c4 	movi	r2,11
  102b30:	18800015 	stw	r2,0(r3)
  102b34:	00800044 	movi	r2,1
  102b38:	e0bff405 	stb	r2,-48(fp)
  102b3c:	00001b06 	br	102bac <altera_avalon_uart_read+0x158>
  102b40:	0005303a 	rdctl	r2,status
  102b44:	e0bff915 	stw	r2,-28(fp)
  102b48:	e0fff917 	ldw	r3,-28(fp)
  102b4c:	00bfff84 	movi	r2,-2
  102b50:	1884703a 	and	r2,r3,r2
  102b54:	1001703a 	wrctl	status,r2
  102b58:	e0bff917 	ldw	r2,-28(fp)
  102b5c:	e0bff815 	stw	r2,-32(fp)
  102b60:	e0bffc17 	ldw	r2,-16(fp)
  102b64:	10800117 	ldw	r2,4(r2)
  102b68:	10c02014 	ori	r3,r2,128
  102b6c:	e0bffc17 	ldw	r2,-16(fp)
  102b70:	10c00115 	stw	r3,4(r2)
  102b74:	e0bffc17 	ldw	r2,-16(fp)
  102b78:	10800017 	ldw	r2,0(r2)
  102b7c:	10800304 	addi	r2,r2,12
  102b80:	e0fffc17 	ldw	r3,-16(fp)
  102b84:	18c00117 	ldw	r3,4(r3)
  102b88:	10c00035 	stwio	r3,0(r2)
  102b8c:	e0bff817 	ldw	r2,-32(fp)
  102b90:	e0bffa15 	stw	r2,-24(fp)
  102b94:	e0bffa17 	ldw	r2,-24(fp)
  102b98:	1001703a 	wrctl	status,r2
  102b9c:	e0bff517 	ldw	r2,-44(fp)
  102ba0:	1000021e 	bne	r2,zero,102bac <altera_avalon_uart_read+0x158>
  102ba4:	e0bffe17 	ldw	r2,-8(fp)
  102ba8:	103fcd1e 	bne	r2,zero,102ae0 <_gp+0xffefa318>
  102bac:	0005303a 	rdctl	r2,status
  102bb0:	e0bffb15 	stw	r2,-20(fp)
  102bb4:	e0fffb17 	ldw	r3,-20(fp)
  102bb8:	00bfff84 	movi	r2,-2
  102bbc:	1884703a 	and	r2,r3,r2
  102bc0:	1001703a 	wrctl	status,r2
  102bc4:	e0bffb17 	ldw	r2,-20(fp)
  102bc8:	e0bff815 	stw	r2,-32(fp)
  102bcc:	e0bffc17 	ldw	r2,-16(fp)
  102bd0:	10800117 	ldw	r2,4(r2)
  102bd4:	10c02014 	ori	r3,r2,128
  102bd8:	e0bffc17 	ldw	r2,-16(fp)
  102bdc:	10c00115 	stw	r3,4(r2)
  102be0:	e0bffc17 	ldw	r2,-16(fp)
  102be4:	10800017 	ldw	r2,0(r2)
  102be8:	10800304 	addi	r2,r2,12
  102bec:	e0fffc17 	ldw	r3,-16(fp)
  102bf0:	18c00117 	ldw	r3,4(r3)
  102bf4:	10c00035 	stwio	r3,0(r2)
  102bf8:	e0bff817 	ldw	r2,-32(fp)
  102bfc:	e0bff715 	stw	r2,-36(fp)
  102c00:	e0bff717 	ldw	r2,-36(fp)
  102c04:	1001703a 	wrctl	status,r2
  102c08:	e0bff403 	ldbu	r2,-48(fp)
  102c0c:	10000226 	beq	r2,zero,102c18 <altera_avalon_uart_read+0x1c4>
  102c10:	00bffd44 	movi	r2,-11
  102c14:	00000106 	br	102c1c <altera_avalon_uart_read+0x1c8>
  102c18:	e0bff517 	ldw	r2,-44(fp)
  102c1c:	e037883a 	mov	sp,fp
  102c20:	dfc00117 	ldw	ra,4(sp)
  102c24:	df000017 	ldw	fp,0(sp)
  102c28:	dec00204 	addi	sp,sp,8
  102c2c:	f800283a 	ret

00102c30 <alt_get_errno>:
  102c30:	defffe04 	addi	sp,sp,-8
  102c34:	dfc00115 	stw	ra,4(sp)
  102c38:	df000015 	stw	fp,0(sp)
  102c3c:	d839883a 	mov	fp,sp
  102c40:	d0a00d17 	ldw	r2,-32716(gp)
  102c44:	10000326 	beq	r2,zero,102c54 <alt_get_errno+0x24>
  102c48:	d0a00d17 	ldw	r2,-32716(gp)
  102c4c:	103ee83a 	callr	r2
  102c50:	00000106 	br	102c58 <alt_get_errno+0x28>
  102c54:	d0a02c04 	addi	r2,gp,-32592
  102c58:	e037883a 	mov	sp,fp
  102c5c:	dfc00117 	ldw	ra,4(sp)
  102c60:	df000017 	ldw	fp,0(sp)
  102c64:	dec00204 	addi	sp,sp,8
  102c68:	f800283a 	ret

00102c6c <altera_avalon_uart_write>:
  102c6c:	defff204 	addi	sp,sp,-56
  102c70:	dfc00d15 	stw	ra,52(sp)
  102c74:	df000c15 	stw	fp,48(sp)
  102c78:	df000c04 	addi	fp,sp,48
  102c7c:	e13ffc15 	stw	r4,-16(fp)
  102c80:	e17ffd15 	stw	r5,-12(fp)
  102c84:	e1bffe15 	stw	r6,-8(fp)
  102c88:	e1ffff15 	stw	r7,-4(fp)
  102c8c:	e0bffe17 	ldw	r2,-8(fp)
  102c90:	e0bff415 	stw	r2,-48(fp)
  102c94:	e0bfff17 	ldw	r2,-4(fp)
  102c98:	1090000c 	andi	r2,r2,16384
  102c9c:	e0bff515 	stw	r2,-44(fp)
  102ca0:	00003c06 	br	102d94 <altera_avalon_uart_write+0x128>
  102ca4:	e0bffc17 	ldw	r2,-16(fp)
  102ca8:	10800517 	ldw	r2,20(r2)
  102cac:	10800044 	addi	r2,r2,1
  102cb0:	10800fcc 	andi	r2,r2,63
  102cb4:	e0bff715 	stw	r2,-36(fp)
  102cb8:	e0bffc17 	ldw	r2,-16(fp)
  102cbc:	10c00417 	ldw	r3,16(r2)
  102cc0:	e0bff717 	ldw	r2,-36(fp)
  102cc4:	1880221e 	bne	r3,r2,102d50 <altera_avalon_uart_write+0xe4>
  102cc8:	e0bff517 	ldw	r2,-44(fp)
  102ccc:	10000526 	beq	r2,zero,102ce4 <altera_avalon_uart_write+0x78>
  102cd0:	0102c300 	call	102c30 <alt_get_errno>
  102cd4:	1007883a 	mov	r3,r2
  102cd8:	008002c4 	movi	r2,11
  102cdc:	18800015 	stw	r2,0(r3)
  102ce0:	00002e06 	br	102d9c <altera_avalon_uart_write+0x130>
  102ce4:	0005303a 	rdctl	r2,status
  102ce8:	e0bff915 	stw	r2,-28(fp)
  102cec:	e0fff917 	ldw	r3,-28(fp)
  102cf0:	00bfff84 	movi	r2,-2
  102cf4:	1884703a 	and	r2,r3,r2
  102cf8:	1001703a 	wrctl	status,r2
  102cfc:	e0bff917 	ldw	r2,-28(fp)
  102d00:	e0bff815 	stw	r2,-32(fp)
  102d04:	e0bffc17 	ldw	r2,-16(fp)
  102d08:	10800117 	ldw	r2,4(r2)
  102d0c:	10c11014 	ori	r3,r2,1088
  102d10:	e0bffc17 	ldw	r2,-16(fp)
  102d14:	10c00115 	stw	r3,4(r2)
  102d18:	e0bffc17 	ldw	r2,-16(fp)
  102d1c:	10800017 	ldw	r2,0(r2)
  102d20:	10800304 	addi	r2,r2,12
  102d24:	e0fffc17 	ldw	r3,-16(fp)
  102d28:	18c00117 	ldw	r3,4(r3)
  102d2c:	10c00035 	stwio	r3,0(r2)
  102d30:	e0bff817 	ldw	r2,-32(fp)
  102d34:	e0bff615 	stw	r2,-40(fp)
  102d38:	e0bff617 	ldw	r2,-40(fp)
  102d3c:	1001703a 	wrctl	status,r2
  102d40:	e0bffc17 	ldw	r2,-16(fp)
  102d44:	10c00417 	ldw	r3,16(r2)
  102d48:	e0bff717 	ldw	r2,-36(fp)
  102d4c:	18bffc26 	beq	r3,r2,102d40 <_gp+0xffefa578>
  102d50:	e0bff417 	ldw	r2,-48(fp)
  102d54:	10bfffc4 	addi	r2,r2,-1
  102d58:	e0bff415 	stw	r2,-48(fp)
  102d5c:	e0bffc17 	ldw	r2,-16(fp)
  102d60:	10c00517 	ldw	r3,20(r2)
  102d64:	e0bffd17 	ldw	r2,-12(fp)
  102d68:	11000044 	addi	r4,r2,1
  102d6c:	e13ffd15 	stw	r4,-12(fp)
  102d70:	10800003 	ldbu	r2,0(r2)
  102d74:	1009883a 	mov	r4,r2
  102d78:	e0bffc17 	ldw	r2,-16(fp)
  102d7c:	10c5883a 	add	r2,r2,r3
  102d80:	10801704 	addi	r2,r2,92
  102d84:	11000005 	stb	r4,0(r2)
  102d88:	e0bffc17 	ldw	r2,-16(fp)
  102d8c:	e0fff717 	ldw	r3,-36(fp)
  102d90:	10c00515 	stw	r3,20(r2)
  102d94:	e0bff417 	ldw	r2,-48(fp)
  102d98:	103fc21e 	bne	r2,zero,102ca4 <_gp+0xffefa4dc>
  102d9c:	0005303a 	rdctl	r2,status
  102da0:	e0bffb15 	stw	r2,-20(fp)
  102da4:	e0fffb17 	ldw	r3,-20(fp)
  102da8:	00bfff84 	movi	r2,-2
  102dac:	1884703a 	and	r2,r3,r2
  102db0:	1001703a 	wrctl	status,r2
  102db4:	e0bffb17 	ldw	r2,-20(fp)
  102db8:	e0bff815 	stw	r2,-32(fp)
  102dbc:	e0bffc17 	ldw	r2,-16(fp)
  102dc0:	10800117 	ldw	r2,4(r2)
  102dc4:	10c11014 	ori	r3,r2,1088
  102dc8:	e0bffc17 	ldw	r2,-16(fp)
  102dcc:	10c00115 	stw	r3,4(r2)
  102dd0:	e0bffc17 	ldw	r2,-16(fp)
  102dd4:	10800017 	ldw	r2,0(r2)
  102dd8:	10800304 	addi	r2,r2,12
  102ddc:	e0fffc17 	ldw	r3,-16(fp)
  102de0:	18c00117 	ldw	r3,4(r3)
  102de4:	10c00035 	stwio	r3,0(r2)
  102de8:	e0bff817 	ldw	r2,-32(fp)
  102dec:	e0bffa15 	stw	r2,-24(fp)
  102df0:	e0bffa17 	ldw	r2,-24(fp)
  102df4:	1001703a 	wrctl	status,r2
  102df8:	e0fffe17 	ldw	r3,-8(fp)
  102dfc:	e0bff417 	ldw	r2,-48(fp)
  102e00:	1885c83a 	sub	r2,r3,r2
  102e04:	e037883a 	mov	sp,fp
  102e08:	dfc00117 	ldw	ra,4(sp)
  102e0c:	df000017 	ldw	fp,0(sp)
  102e10:	dec00204 	addi	sp,sp,8
  102e14:	f800283a 	ret

00102e18 <alt_flash_device_register>:
  102e18:	defffd04 	addi	sp,sp,-12
  102e1c:	dfc00215 	stw	ra,8(sp)
  102e20:	df000115 	stw	fp,4(sp)
  102e24:	df000104 	addi	fp,sp,4
  102e28:	e13fff15 	stw	r4,-4(fp)
  102e2c:	d1600e04 	addi	r5,gp,-32712
  102e30:	e13fff17 	ldw	r4,-4(fp)
  102e34:	01040740 	call	104074 <alt_dev_llist_insert>
  102e38:	e037883a 	mov	sp,fp
  102e3c:	dfc00117 	ldw	ra,4(sp)
  102e40:	df000017 	ldw	fp,0(sp)
  102e44:	dec00204 	addi	sp,sp,8
  102e48:	f800283a 	ret

00102e4c <alt_onchip_flash_read>:
  102e4c:	defff704 	addi	sp,sp,-36
  102e50:	dfc00815 	stw	ra,32(sp)
  102e54:	df000715 	stw	fp,28(sp)
  102e58:	df000704 	addi	fp,sp,28
  102e5c:	e13ffc15 	stw	r4,-16(fp)
  102e60:	e17ffd15 	stw	r5,-12(fp)
  102e64:	e1bffe15 	stw	r6,-8(fp)
  102e68:	e1ffff15 	stw	r7,-4(fp)
  102e6c:	e03ff915 	stw	zero,-28(fp)
  102e70:	e0bffc17 	ldw	r2,-16(fp)
  102e74:	e0bffa15 	stw	r2,-24(fp)
  102e78:	e0bffa17 	ldw	r2,-24(fp)
  102e7c:	10800b17 	ldw	r2,44(r2)
  102e80:	e0fffd17 	ldw	r3,-12(fp)
  102e84:	1880060e 	bge	r3,r2,102ea0 <alt_onchip_flash_read+0x54>
  102e88:	e0fffd17 	ldw	r3,-12(fp)
  102e8c:	e0bfff17 	ldw	r2,-4(fp)
  102e90:	1885883a 	add	r2,r3,r2
  102e94:	e0fffa17 	ldw	r3,-24(fp)
  102e98:	18c00b17 	ldw	r3,44(r3)
  102e9c:	1880020e 	bge	r3,r2,102ea8 <alt_onchip_flash_read+0x5c>
  102ea0:	00bffc84 	movi	r2,-14
  102ea4:	00001706 	br	102f04 <alt_onchip_flash_read+0xb8>
  102ea8:	e0bffa17 	ldw	r2,-24(fp)
  102eac:	10c00a17 	ldw	r3,40(r2)
  102eb0:	e0bffd17 	ldw	r2,-12(fp)
  102eb4:	1885883a 	add	r2,r3,r2
  102eb8:	e0ffff17 	ldw	r3,-4(fp)
  102ebc:	180d883a 	mov	r6,r3
  102ec0:	100b883a 	mov	r5,r2
  102ec4:	e13ffe17 	ldw	r4,-8(fp)
  102ec8:	0101e840 	call	101e84 <memcpy>
  102ecc:	e0bffa17 	ldw	r2,-24(fp)
  102ed0:	10802f17 	ldw	r2,188(r2)
  102ed4:	10000a26 	beq	r2,zero,102f00 <alt_onchip_flash_read+0xb4>
  102ed8:	e0bffa17 	ldw	r2,-24(fp)
  102edc:	10802f17 	ldw	r2,188(r2)
  102ee0:	10800037 	ldwio	r2,0(r2)
  102ee4:	1080010c 	andi	r2,r2,4
  102ee8:	e0bffb15 	stw	r2,-20(fp)
  102eec:	e0bffb17 	ldw	r2,-20(fp)
  102ef0:	10800120 	cmpeqi	r2,r2,4
  102ef4:	1000021e 	bne	r2,zero,102f00 <alt_onchip_flash_read+0xb4>
  102ef8:	00bffec4 	movi	r2,-5
  102efc:	e0bff915 	stw	r2,-28(fp)
  102f00:	e0bff917 	ldw	r2,-28(fp)
  102f04:	e037883a 	mov	sp,fp
  102f08:	dfc00117 	ldw	ra,4(sp)
  102f0c:	df000017 	ldw	fp,0(sp)
  102f10:	dec00204 	addi	sp,sp,8
  102f14:	f800283a 	ret

00102f18 <alt_onchip_flash_get_info>:
  102f18:	defffa04 	addi	sp,sp,-24
  102f1c:	df000515 	stw	fp,20(sp)
  102f20:	df000504 	addi	fp,sp,20
  102f24:	e13ffd15 	stw	r4,-12(fp)
  102f28:	e17ffe15 	stw	r5,-8(fp)
  102f2c:	e1bfff15 	stw	r6,-4(fp)
  102f30:	e03ffb15 	stw	zero,-20(fp)
  102f34:	e0bffd17 	ldw	r2,-12(fp)
  102f38:	e0bffc15 	stw	r2,-16(fp)
  102f3c:	e0bfff17 	ldw	r2,-4(fp)
  102f40:	10000426 	beq	r2,zero,102f54 <alt_onchip_flash_get_info+0x3c>
  102f44:	e0bffc17 	ldw	r2,-16(fp)
  102f48:	10c00c17 	ldw	r3,48(r2)
  102f4c:	e0bfff17 	ldw	r2,-4(fp)
  102f50:	10c00015 	stw	r3,0(r2)
  102f54:	e0bffc17 	ldw	r2,-16(fp)
  102f58:	10800c17 	ldw	r2,48(r2)
  102f5c:	1000031e 	bne	r2,zero,102f6c <alt_onchip_flash_get_info+0x54>
  102f60:	00bffd04 	movi	r2,-12
  102f64:	e0bffb15 	stw	r2,-20(fp)
  102f68:	00000d06 	br	102fa0 <alt_onchip_flash_get_info+0x88>
  102f6c:	e0bffc17 	ldw	r2,-16(fp)
  102f70:	10800c17 	ldw	r2,48(r2)
  102f74:	10800250 	cmplti	r2,r2,9
  102f78:	1000031e 	bne	r2,zero,102f88 <alt_onchip_flash_get_info+0x70>
  102f7c:	00bffc84 	movi	r2,-14
  102f80:	e0bffb15 	stw	r2,-20(fp)
  102f84:	00000606 	br	102fa0 <alt_onchip_flash_get_info+0x88>
  102f88:	e0bffe17 	ldw	r2,-8(fp)
  102f8c:	10000426 	beq	r2,zero,102fa0 <alt_onchip_flash_get_info+0x88>
  102f90:	e0bffc17 	ldw	r2,-16(fp)
  102f94:	10c00d04 	addi	r3,r2,52
  102f98:	e0bffe17 	ldw	r2,-8(fp)
  102f9c:	10c00015 	stw	r3,0(r2)
  102fa0:	e0bffb17 	ldw	r2,-20(fp)
  102fa4:	e037883a 	mov	sp,fp
  102fa8:	df000017 	ldw	fp,0(sp)
  102fac:	dec00104 	addi	sp,sp,4
  102fb0:	f800283a 	ret

00102fb4 <alt_onchip_flash_erase_block>:
  102fb4:	defff904 	addi	sp,sp,-28
  102fb8:	dfc00615 	stw	ra,24(sp)
  102fbc:	df000515 	stw	fp,20(sp)
  102fc0:	df000504 	addi	fp,sp,20
  102fc4:	e13ffe15 	stw	r4,-8(fp)
  102fc8:	e17fff15 	stw	r5,-4(fp)
  102fcc:	e03ffb15 	stw	zero,-20(fp)
  102fd0:	e0bffe17 	ldw	r2,-8(fp)
  102fd4:	e0bffc15 	stw	r2,-16(fp)
  102fd8:	e0bffc17 	ldw	r2,-16(fp)
  102fdc:	10800b17 	ldw	r2,44(r2)
  102fe0:	e0ffff17 	ldw	r3,-4(fp)
  102fe4:	18800216 	blt	r3,r2,102ff0 <alt_onchip_flash_erase_block+0x3c>
  102fe8:	00bffc84 	movi	r2,-14
  102fec:	00004606 	br	103108 <alt_onchip_flash_erase_block+0x154>
  102ff0:	e0bffc17 	ldw	r2,-16(fp)
  102ff4:	10802f17 	ldw	r2,188(r2)
  102ff8:	10000326 	beq	r2,zero,103008 <alt_onchip_flash_erase_block+0x54>
  102ffc:	e0bffc17 	ldw	r2,-16(fp)
  103000:	10802e17 	ldw	r2,184(r2)
  103004:	10000226 	beq	r2,zero,103010 <alt_onchip_flash_erase_block+0x5c>
  103008:	00bffb44 	movi	r2,-19
  10300c:	00003e06 	br	103108 <alt_onchip_flash_erase_block+0x154>
  103010:	e0bffc17 	ldw	r2,-16(fp)
  103014:	10803f17 	ldw	r2,252(r2)
  103018:	10ffffc4 	addi	r3,r2,-1
  10301c:	e0bfff17 	ldw	r2,-4(fp)
  103020:	1884703a 	and	r2,r3,r2
  103024:	10000226 	beq	r2,zero,103030 <alt_onchip_flash_erase_block+0x7c>
  103028:	00bffa84 	movi	r2,-22
  10302c:	00003606 	br	103108 <alt_onchip_flash_erase_block+0x154>
  103030:	e13ffc17 	ldw	r4,-16(fp)
  103034:	0103ba80 	call	103ba8 <alt_onchip_flash_poll_for_status_to_go_idle>
  103038:	e0bffb15 	stw	r2,-20(fp)
  10303c:	e0bffb17 	ldw	r2,-20(fp)
  103040:	10000226 	beq	r2,zero,10304c <alt_onchip_flash_erase_block+0x98>
  103044:	e0bffb17 	ldw	r2,-20(fp)
  103048:	00002f06 	br	103108 <alt_onchip_flash_erase_block+0x154>
  10304c:	e0bffc17 	ldw	r2,-16(fp)
  103050:	10802f17 	ldw	r2,188(r2)
  103054:	10c00104 	addi	r3,r2,4
  103058:	e0bffc17 	ldw	r2,-16(fp)
  10305c:	10802f17 	ldw	r2,188(r2)
  103060:	10800104 	addi	r2,r2,4
  103064:	10800037 	ldwio	r2,0(r2)
  103068:	113c002c 	andhi	r4,r2,61440
  10306c:	00802034 	movhi	r2,128
  103070:	10bfffc4 	addi	r2,r2,-1
  103074:	2084b03a 	or	r2,r4,r2
  103078:	18800035 	stwio	r2,0(r3)
  10307c:	e0bfff17 	ldw	r2,-4(fp)
  103080:	1000010e 	bge	r2,zero,103088 <alt_onchip_flash_erase_block+0xd4>
  103084:	108000c4 	addi	r2,r2,3
  103088:	1005d0ba 	srai	r2,r2,2
  10308c:	e0bffd15 	stw	r2,-12(fp)
  103090:	e0bffc17 	ldw	r2,-16(fp)
  103094:	10802f17 	ldw	r2,188(r2)
  103098:	10800104 	addi	r2,r2,4
  10309c:	e0fffc17 	ldw	r3,-16(fp)
  1030a0:	18c02f17 	ldw	r3,188(r3)
  1030a4:	18c00104 	addi	r3,r3,4
  1030a8:	18c00037 	ldwio	r3,0(r3)
  1030ac:	193c002c 	andhi	r4,r3,61440
  1030b0:	e0fffd17 	ldw	r3,-12(fp)
  1030b4:	18c01c34 	orhi	r3,r3,112
  1030b8:	20c6b03a 	or	r3,r4,r3
  1030bc:	10c00035 	stwio	r3,0(r2)
  1030c0:	e13ffc17 	ldw	r4,-16(fp)
  1030c4:	0103ba80 	call	103ba8 <alt_onchip_flash_poll_for_status_to_go_idle>
  1030c8:	e0bffb15 	stw	r2,-20(fp)
  1030cc:	e13ffc17 	ldw	r4,-16(fp)
  1030d0:	0103c380 	call	103c38 <alt_onchip_flash_poll_for_status_erase_passed>
  1030d4:	e0bffb15 	stw	r2,-20(fp)
  1030d8:	e0bffc17 	ldw	r2,-16(fp)
  1030dc:	10802f17 	ldw	r2,188(r2)
  1030e0:	10c00104 	addi	r3,r2,4
  1030e4:	e0bffc17 	ldw	r2,-16(fp)
  1030e8:	10802f17 	ldw	r2,188(r2)
  1030ec:	10800104 	addi	r2,r2,4
  1030f0:	11000037 	ldwio	r4,0(r2)
  1030f4:	00840034 	movhi	r2,4096
  1030f8:	10bfffc4 	addi	r2,r2,-1
  1030fc:	2084b03a 	or	r2,r4,r2
  103100:	18800035 	stwio	r2,0(r3)
  103104:	e0bffb17 	ldw	r2,-20(fp)
  103108:	e037883a 	mov	sp,fp
  10310c:	dfc00117 	ldw	ra,4(sp)
  103110:	df000017 	ldw	fp,0(sp)
  103114:	dec00204 	addi	sp,sp,8
  103118:	f800283a 	ret

0010311c <alt_onchip_flash_write_block>:
  10311c:	defff204 	addi	sp,sp,-56
  103120:	dfc00d15 	stw	ra,52(sp)
  103124:	df000c15 	stw	fp,48(sp)
  103128:	df000c04 	addi	fp,sp,48
  10312c:	e13ffc15 	stw	r4,-16(fp)
  103130:	e17ffd15 	stw	r5,-12(fp)
  103134:	e1bffe15 	stw	r6,-8(fp)
  103138:	e1ffff15 	stw	r7,-4(fp)
  10313c:	e03ff415 	stw	zero,-48(fp)
  103140:	e0bffc17 	ldw	r2,-16(fp)
  103144:	e0bff815 	stw	r2,-32(fp)
  103148:	e03ff515 	stw	zero,-44(fp)
  10314c:	e0bffe17 	ldw	r2,-8(fp)
  103150:	e0bff615 	stw	r2,-40(fp)
  103154:	e0bff817 	ldw	r2,-32(fp)
  103158:	10800b17 	ldw	r2,44(r2)
  10315c:	e0fffd17 	ldw	r3,-12(fp)
  103160:	18800a0e 	bge	r3,r2,10318c <alt_onchip_flash_write_block+0x70>
  103164:	e0bff817 	ldw	r2,-32(fp)
  103168:	10800b17 	ldw	r2,44(r2)
  10316c:	e0fffe17 	ldw	r3,-8(fp)
  103170:	1880060e 	bge	r3,r2,10318c <alt_onchip_flash_write_block+0x70>
  103174:	e0bff817 	ldw	r2,-32(fp)
  103178:	10c00b17 	ldw	r3,44(r2)
  10317c:	e0bffe17 	ldw	r2,-8(fp)
  103180:	1887c83a 	sub	r3,r3,r2
  103184:	e0800217 	ldw	r2,8(fp)
  103188:	1880020e 	bge	r3,r2,103194 <alt_onchip_flash_write_block+0x78>
  10318c:	00bffc84 	movi	r2,-14
  103190:	00009306 	br	1033e0 <alt_onchip_flash_write_block+0x2c4>
  103194:	e0bff817 	ldw	r2,-32(fp)
  103198:	10802f17 	ldw	r2,188(r2)
  10319c:	10000326 	beq	r2,zero,1031ac <alt_onchip_flash_write_block+0x90>
  1031a0:	e0bff817 	ldw	r2,-32(fp)
  1031a4:	10802e17 	ldw	r2,184(r2)
  1031a8:	10000226 	beq	r2,zero,1031b4 <alt_onchip_flash_write_block+0x98>
  1031ac:	00bffb44 	movi	r2,-19
  1031b0:	00008b06 	br	1033e0 <alt_onchip_flash_write_block+0x2c4>
  1031b4:	e13ff817 	ldw	r4,-32(fp)
  1031b8:	0103ba80 	call	103ba8 <alt_onchip_flash_poll_for_status_to_go_idle>
  1031bc:	e0bff415 	stw	r2,-48(fp)
  1031c0:	e0bff417 	ldw	r2,-48(fp)
  1031c4:	10000226 	beq	r2,zero,1031d0 <alt_onchip_flash_write_block+0xb4>
  1031c8:	e0bff417 	ldw	r2,-48(fp)
  1031cc:	00008406 	br	1033e0 <alt_onchip_flash_write_block+0x2c4>
  1031d0:	e0bff817 	ldw	r2,-32(fp)
  1031d4:	10802f17 	ldw	r2,188(r2)
  1031d8:	10c00104 	addi	r3,r2,4
  1031dc:	e0bff817 	ldw	r2,-32(fp)
  1031e0:	10802f17 	ldw	r2,188(r2)
  1031e4:	10800104 	addi	r2,r2,4
  1031e8:	10800037 	ldwio	r2,0(r2)
  1031ec:	113c002c 	andhi	r4,r2,61440
  1031f0:	00802034 	movhi	r2,128
  1031f4:	10bfffc4 	addi	r2,r2,-1
  1031f8:	2084b03a 	or	r2,r4,r2
  1031fc:	18800035 	stwio	r2,0(r3)
  103200:	00006506 	br	103398 <alt_onchip_flash_write_block+0x27c>
  103204:	00bfffc4 	movi	r2,-1
  103208:	e0bffb15 	stw	r2,-20(fp)
  10320c:	e0bff617 	ldw	r2,-40(fp)
  103210:	108000cc 	andi	r2,r2,3
  103214:	10001e1e 	bne	r2,zero,103290 <alt_onchip_flash_write_block+0x174>
  103218:	e0bff617 	ldw	r2,-40(fp)
  10321c:	10c00104 	addi	r3,r2,4
  103220:	00bfff04 	movi	r2,-4
  103224:	1884703a 	and	r2,r3,r2
  103228:	e0bff715 	stw	r2,-36(fp)
  10322c:	e0fff717 	ldw	r3,-36(fp)
  103230:	e0bff617 	ldw	r2,-40(fp)
  103234:	1885c83a 	sub	r2,r3,r2
  103238:	e0c00217 	ldw	r3,8(fp)
  10323c:	1880010e 	bge	r3,r2,103244 <alt_onchip_flash_write_block+0x128>
  103240:	1805883a 	mov	r2,r3
  103244:	e0bff915 	stw	r2,-28(fp)
  103248:	e0bff517 	ldw	r2,-44(fp)
  10324c:	e0ffff17 	ldw	r3,-4(fp)
  103250:	1887883a 	add	r3,r3,r2
  103254:	e13ff917 	ldw	r4,-28(fp)
  103258:	e0bffb04 	addi	r2,fp,-20
  10325c:	200d883a 	mov	r6,r4
  103260:	180b883a 	mov	r5,r3
  103264:	1009883a 	mov	r4,r2
  103268:	0101e840 	call	101e84 <memcpy>
  10326c:	e0fff517 	ldw	r3,-44(fp)
  103270:	e0bff917 	ldw	r2,-28(fp)
  103274:	1885883a 	add	r2,r3,r2
  103278:	e0bff515 	stw	r2,-44(fp)
  10327c:	e0c00217 	ldw	r3,8(fp)
  103280:	e0bff917 	ldw	r2,-28(fp)
  103284:	1885c83a 	sub	r2,r3,r2
  103288:	e0800215 	stw	r2,8(fp)
  10328c:	00003006 	br	103350 <alt_onchip_flash_write_block+0x234>
  103290:	e0bff617 	ldw	r2,-40(fp)
  103294:	108000cc 	andi	r2,r2,3
  103298:	e0bffa15 	stw	r2,-24(fp)
  10329c:	e0fff617 	ldw	r3,-40(fp)
  1032a0:	e0bffa17 	ldw	r2,-24(fp)
  1032a4:	1885c83a 	sub	r2,r3,r2
  1032a8:	e0bff615 	stw	r2,-40(fp)
  1032ac:	e0bff617 	ldw	r2,-40(fp)
  1032b0:	10c00104 	addi	r3,r2,4
  1032b4:	00bfff04 	movi	r2,-4
  1032b8:	1884703a 	and	r2,r3,r2
  1032bc:	e0bff715 	stw	r2,-36(fp)
  1032c0:	e0fff717 	ldw	r3,-36(fp)
  1032c4:	e0bff617 	ldw	r2,-40(fp)
  1032c8:	1889c83a 	sub	r4,r3,r2
  1032cc:	e0c00217 	ldw	r3,8(fp)
  1032d0:	e0bffa17 	ldw	r2,-24(fp)
  1032d4:	1887883a 	add	r3,r3,r2
  1032d8:	2005883a 	mov	r2,r4
  1032dc:	1880010e 	bge	r3,r2,1032e4 <alt_onchip_flash_write_block+0x1c8>
  1032e0:	1805883a 	mov	r2,r3
  1032e4:	e0bff915 	stw	r2,-28(fp)
  1032e8:	e0fffb04 	addi	r3,fp,-20
  1032ec:	e0bffa17 	ldw	r2,-24(fp)
  1032f0:	1885883a 	add	r2,r3,r2
  1032f4:	100f883a 	mov	r7,r2
  1032f8:	e0bff517 	ldw	r2,-44(fp)
  1032fc:	e0ffff17 	ldw	r3,-4(fp)
  103300:	1889883a 	add	r4,r3,r2
  103304:	e0fff917 	ldw	r3,-28(fp)
  103308:	e0bffa17 	ldw	r2,-24(fp)
  10330c:	1885c83a 	sub	r2,r3,r2
  103310:	100d883a 	mov	r6,r2
  103314:	200b883a 	mov	r5,r4
  103318:	3809883a 	mov	r4,r7
  10331c:	0101e840 	call	101e84 <memcpy>
  103320:	e0fff917 	ldw	r3,-28(fp)
  103324:	e0bffa17 	ldw	r2,-24(fp)
  103328:	1885c83a 	sub	r2,r3,r2
  10332c:	e0fff517 	ldw	r3,-44(fp)
  103330:	1885883a 	add	r2,r3,r2
  103334:	e0bff515 	stw	r2,-44(fp)
  103338:	e0fff917 	ldw	r3,-28(fp)
  10333c:	e0bffa17 	ldw	r2,-24(fp)
  103340:	1885c83a 	sub	r2,r3,r2
  103344:	e0c00217 	ldw	r3,8(fp)
  103348:	1885c83a 	sub	r2,r3,r2
  10334c:	e0800215 	stw	r2,8(fp)
  103350:	e0bff817 	ldw	r2,-32(fp)
  103354:	10c00a17 	ldw	r3,40(r2)
  103358:	e0bff617 	ldw	r2,-40(fp)
  10335c:	1885883a 	add	r2,r3,r2
  103360:	e0fffb17 	ldw	r3,-20(fp)
  103364:	10c00035 	stwio	r3,0(r2)
  103368:	e13ff817 	ldw	r4,-32(fp)
  10336c:	0103ba80 	call	103ba8 <alt_onchip_flash_poll_for_status_to_go_idle>
  103370:	e0bff415 	stw	r2,-48(fp)
  103374:	e0bff417 	ldw	r2,-48(fp)
  103378:	10000a1e 	bne	r2,zero,1033a4 <alt_onchip_flash_write_block+0x288>
  10337c:	e13ff817 	ldw	r4,-32(fp)
  103380:	0103cc80 	call	103cc8 <alt_onchip_flash_poll_for_status_write_passed>
  103384:	e0bff415 	stw	r2,-48(fp)
  103388:	e0bff417 	ldw	r2,-48(fp)
  10338c:	1000071e 	bne	r2,zero,1033ac <alt_onchip_flash_write_block+0x290>
  103390:	e0bff717 	ldw	r2,-36(fp)
  103394:	e0bff615 	stw	r2,-40(fp)
  103398:	e0800217 	ldw	r2,8(fp)
  10339c:	103f991e 	bne	r2,zero,103204 <_gp+0xffefaa3c>
  1033a0:	00000306 	br	1033b0 <alt_onchip_flash_write_block+0x294>
  1033a4:	0001883a 	nop
  1033a8:	00000106 	br	1033b0 <alt_onchip_flash_write_block+0x294>
  1033ac:	0001883a 	nop
  1033b0:	e0bff817 	ldw	r2,-32(fp)
  1033b4:	10802f17 	ldw	r2,188(r2)
  1033b8:	10c00104 	addi	r3,r2,4
  1033bc:	e0bff817 	ldw	r2,-32(fp)
  1033c0:	10802f17 	ldw	r2,188(r2)
  1033c4:	10800104 	addi	r2,r2,4
  1033c8:	11000037 	ldwio	r4,0(r2)
  1033cc:	00840034 	movhi	r2,4096
  1033d0:	10bfffc4 	addi	r2,r2,-1
  1033d4:	2084b03a 	or	r2,r4,r2
  1033d8:	18800035 	stwio	r2,0(r3)
  1033dc:	e0bff417 	ldw	r2,-48(fp)
  1033e0:	e037883a 	mov	sp,fp
  1033e4:	dfc00117 	ldw	ra,4(sp)
  1033e8:	df000017 	ldw	fp,0(sp)
  1033ec:	dec00204 	addi	sp,sp,8
  1033f0:	f800283a 	ret

001033f4 <alt_onchip_flash_write>:
  1033f4:	defff104 	addi	sp,sp,-60
  1033f8:	dfc00e15 	stw	ra,56(sp)
  1033fc:	df000d15 	stw	fp,52(sp)
  103400:	df000d04 	addi	fp,sp,52
  103404:	e13ffc15 	stw	r4,-16(fp)
  103408:	e17ffd15 	stw	r5,-12(fp)
  10340c:	e1bffe15 	stw	r6,-8(fp)
  103410:	e1ffff15 	stw	r7,-4(fp)
  103414:	e03ff415 	stw	zero,-48(fp)
  103418:	e0bfff17 	ldw	r2,-4(fp)
  10341c:	e0bff815 	stw	r2,-32(fp)
  103420:	e0bffd17 	ldw	r2,-12(fp)
  103424:	e0bff915 	stw	r2,-28(fp)
  103428:	e0bffc17 	ldw	r2,-16(fp)
  10342c:	e0bffa15 	stw	r2,-24(fp)
  103430:	e0bffa17 	ldw	r2,-24(fp)
  103434:	10800b17 	ldw	r2,44(r2)
  103438:	e0fffd17 	ldw	r3,-12(fp)
  10343c:	1880060e 	bge	r3,r2,103458 <alt_onchip_flash_write+0x64>
  103440:	e0bffa17 	ldw	r2,-24(fp)
  103444:	10c00b17 	ldw	r3,44(r2)
  103448:	e0bffd17 	ldw	r2,-12(fp)
  10344c:	1887c83a 	sub	r3,r3,r2
  103450:	e0bfff17 	ldw	r2,-4(fp)
  103454:	1880020e 	bge	r3,r2,103460 <alt_onchip_flash_write+0x6c>
  103458:	00bffc84 	movi	r2,-14
  10345c:	00009606 	br	1036b8 <alt_onchip_flash_write+0x2c4>
  103460:	e03ff515 	stw	zero,-44(fp)
  103464:	00008706 	br	103684 <alt_onchip_flash_write+0x290>
  103468:	e0fffa17 	ldw	r3,-24(fp)
  10346c:	e0bff517 	ldw	r2,-44(fp)
  103470:	1004913a 	slli	r2,r2,4
  103474:	1885883a 	add	r2,r3,r2
  103478:	10800d04 	addi	r2,r2,52
  10347c:	10800017 	ldw	r2,0(r2)
  103480:	e0fffd17 	ldw	r3,-12(fp)
  103484:	18807c16 	blt	r3,r2,103678 <alt_onchip_flash_write+0x284>
  103488:	e0fffa17 	ldw	r3,-24(fp)
  10348c:	e0bff517 	ldw	r2,-44(fp)
  103490:	1004913a 	slli	r2,r2,4
  103494:	1885883a 	add	r2,r3,r2
  103498:	10800d04 	addi	r2,r2,52
  10349c:	10c00017 	ldw	r3,0(r2)
  1034a0:	e13ffa17 	ldw	r4,-24(fp)
  1034a4:	e0bff517 	ldw	r2,-44(fp)
  1034a8:	1004913a 	slli	r2,r2,4
  1034ac:	2085883a 	add	r2,r4,r2
  1034b0:	10800e04 	addi	r2,r2,56
  1034b4:	10800017 	ldw	r2,0(r2)
  1034b8:	1885883a 	add	r2,r3,r2
  1034bc:	e0fffd17 	ldw	r3,-12(fp)
  1034c0:	18806d0e 	bge	r3,r2,103678 <alt_onchip_flash_write+0x284>
  1034c4:	e0fffa17 	ldw	r3,-24(fp)
  1034c8:	e0bff517 	ldw	r2,-44(fp)
  1034cc:	1004913a 	slli	r2,r2,4
  1034d0:	1885883a 	add	r2,r3,r2
  1034d4:	10800d04 	addi	r2,r2,52
  1034d8:	10800017 	ldw	r2,0(r2)
  1034dc:	e0bff715 	stw	r2,-36(fp)
  1034e0:	e03ff615 	stw	zero,-40(fp)
  1034e4:	00005c06 	br	103658 <alt_onchip_flash_write+0x264>
  1034e8:	e0fffd17 	ldw	r3,-12(fp)
  1034ec:	e0bff717 	ldw	r2,-36(fp)
  1034f0:	18804d16 	blt	r3,r2,103628 <alt_onchip_flash_write+0x234>
  1034f4:	e0fffa17 	ldw	r3,-24(fp)
  1034f8:	e0bff517 	ldw	r2,-44(fp)
  1034fc:	10800104 	addi	r2,r2,4
  103500:	1004913a 	slli	r2,r2,4
  103504:	1885883a 	add	r2,r3,r2
  103508:	10c00017 	ldw	r3,0(r2)
  10350c:	e0bff717 	ldw	r2,-36(fp)
  103510:	1885883a 	add	r2,r3,r2
  103514:	e0fffd17 	ldw	r3,-12(fp)
  103518:	1880430e 	bge	r3,r2,103628 <alt_onchip_flash_write+0x234>
  10351c:	e0fffa17 	ldw	r3,-24(fp)
  103520:	e0bff517 	ldw	r2,-44(fp)
  103524:	10800104 	addi	r2,r2,4
  103528:	1004913a 	slli	r2,r2,4
  10352c:	1885883a 	add	r2,r3,r2
  103530:	10c00017 	ldw	r3,0(r2)
  103534:	e0bff717 	ldw	r2,-36(fp)
  103538:	1887883a 	add	r3,r3,r2
  10353c:	e0bffd17 	ldw	r2,-12(fp)
  103540:	1885c83a 	sub	r2,r3,r2
  103544:	e0bffb15 	stw	r2,-20(fp)
  103548:	e0fffb17 	ldw	r3,-20(fp)
  10354c:	e0bfff17 	ldw	r2,-4(fp)
  103550:	1880010e 	bge	r3,r2,103558 <alt_onchip_flash_write+0x164>
  103554:	1805883a 	mov	r2,r3
  103558:	e0bffb15 	stw	r2,-20(fp)
  10355c:	e0bffa17 	ldw	r2,-24(fp)
  103560:	10c00a17 	ldw	r3,40(r2)
  103564:	e0bffd17 	ldw	r2,-12(fp)
  103568:	1885883a 	add	r2,r3,r2
  10356c:	e0fffb17 	ldw	r3,-20(fp)
  103570:	180d883a 	mov	r6,r3
  103574:	100b883a 	mov	r5,r2
  103578:	e13ffe17 	ldw	r4,-8(fp)
  10357c:	01047740 	call	104774 <memcmp>
  103580:	10001326 	beq	r2,zero,1035d0 <alt_onchip_flash_write+0x1dc>
  103584:	e0bffa17 	ldw	r2,-24(fp)
  103588:	10800817 	ldw	r2,32(r2)
  10358c:	e0fffa17 	ldw	r3,-24(fp)
  103590:	e17ff717 	ldw	r5,-36(fp)
  103594:	1809883a 	mov	r4,r3
  103598:	103ee83a 	callr	r2
  10359c:	e0bff415 	stw	r2,-48(fp)
  1035a0:	e0bff417 	ldw	r2,-48(fp)
  1035a4:	10000a1e 	bne	r2,zero,1035d0 <alt_onchip_flash_write+0x1dc>
  1035a8:	e0bffa17 	ldw	r2,-24(fp)
  1035ac:	10800917 	ldw	r2,36(r2)
  1035b0:	e13ffa17 	ldw	r4,-24(fp)
  1035b4:	e0fffb17 	ldw	r3,-20(fp)
  1035b8:	d8c00015 	stw	r3,0(sp)
  1035bc:	e1fffe17 	ldw	r7,-8(fp)
  1035c0:	e1bffd17 	ldw	r6,-12(fp)
  1035c4:	e17ff717 	ldw	r5,-36(fp)
  1035c8:	103ee83a 	callr	r2
  1035cc:	e0bff415 	stw	r2,-48(fp)
  1035d0:	e0ffff17 	ldw	r3,-4(fp)
  1035d4:	e0bffb17 	ldw	r2,-20(fp)
  1035d8:	18802e26 	beq	r3,r2,103694 <alt_onchip_flash_write+0x2a0>
  1035dc:	e0bff417 	ldw	r2,-48(fp)
  1035e0:	10002c1e 	bne	r2,zero,103694 <alt_onchip_flash_write+0x2a0>
  1035e4:	e0ffff17 	ldw	r3,-4(fp)
  1035e8:	e0bffb17 	ldw	r2,-20(fp)
  1035ec:	1885c83a 	sub	r2,r3,r2
  1035f0:	e0bfff15 	stw	r2,-4(fp)
  1035f4:	e0fffa17 	ldw	r3,-24(fp)
  1035f8:	e0bff517 	ldw	r2,-44(fp)
  1035fc:	10800104 	addi	r2,r2,4
  103600:	1004913a 	slli	r2,r2,4
  103604:	1885883a 	add	r2,r3,r2
  103608:	10c00017 	ldw	r3,0(r2)
  10360c:	e0bff717 	ldw	r2,-36(fp)
  103610:	1885883a 	add	r2,r3,r2
  103614:	e0bffd15 	stw	r2,-12(fp)
  103618:	e0bffb17 	ldw	r2,-20(fp)
  10361c:	e0fffe17 	ldw	r3,-8(fp)
  103620:	1885883a 	add	r2,r3,r2
  103624:	e0bffe15 	stw	r2,-8(fp)
  103628:	e0fffa17 	ldw	r3,-24(fp)
  10362c:	e0bff517 	ldw	r2,-44(fp)
  103630:	10800104 	addi	r2,r2,4
  103634:	1004913a 	slli	r2,r2,4
  103638:	1885883a 	add	r2,r3,r2
  10363c:	10800017 	ldw	r2,0(r2)
  103640:	e0fff717 	ldw	r3,-36(fp)
  103644:	1885883a 	add	r2,r3,r2
  103648:	e0bff715 	stw	r2,-36(fp)
  10364c:	e0bff617 	ldw	r2,-40(fp)
  103650:	10800044 	addi	r2,r2,1
  103654:	e0bff615 	stw	r2,-40(fp)
  103658:	e0fffa17 	ldw	r3,-24(fp)
  10365c:	e0bff517 	ldw	r2,-44(fp)
  103660:	1004913a 	slli	r2,r2,4
  103664:	1885883a 	add	r2,r3,r2
  103668:	10800f04 	addi	r2,r2,60
  10366c:	10800017 	ldw	r2,0(r2)
  103670:	e0fff617 	ldw	r3,-40(fp)
  103674:	18bf9c16 	blt	r3,r2,1034e8 <_gp+0xffefad20>
  103678:	e0bff517 	ldw	r2,-44(fp)
  10367c:	10800044 	addi	r2,r2,1
  103680:	e0bff515 	stw	r2,-44(fp)
  103684:	e0bffa17 	ldw	r2,-24(fp)
  103688:	10800c17 	ldw	r2,48(r2)
  10368c:	e0fff517 	ldw	r3,-44(fp)
  103690:	18bf7516 	blt	r3,r2,103468 <_gp+0xffefaca0>
  103694:	e0bffa17 	ldw	r2,-24(fp)
  103698:	10c00a17 	ldw	r3,40(r2)
  10369c:	e0bff917 	ldw	r2,-28(fp)
  1036a0:	1885883a 	add	r2,r3,r2
  1036a4:	e0fff817 	ldw	r3,-32(fp)
  1036a8:	180b883a 	mov	r5,r3
  1036ac:	1009883a 	mov	r4,r2
  1036b0:	0103fc40 	call	103fc4 <alt_dcache_flush>
  1036b4:	e0bff417 	ldw	r2,-48(fp)
  1036b8:	e037883a 	mov	sp,fp
  1036bc:	dfc00117 	ldw	ra,4(sp)
  1036c0:	df000017 	ldw	fp,0(sp)
  1036c4:	dec00204 	addi	sp,sp,8
  1036c8:	f800283a 	ret

001036cc <altera_onchip_flash_init>:
  1036cc:	defff504 	addi	sp,sp,-44
  1036d0:	dfc00a15 	stw	ra,40(sp)
  1036d4:	df000915 	stw	fp,36(sp)
  1036d8:	dc000815 	stw	r16,32(sp)
  1036dc:	df000904 	addi	fp,sp,36
  1036e0:	e13ffe15 	stw	r4,-8(fp)
  1036e4:	e03ff815 	stw	zero,-32(fp)
  1036e8:	e03ff915 	stw	zero,-28(fp)
  1036ec:	e03ffa15 	stw	zero,-24(fp)
  1036f0:	e03ffb15 	stw	zero,-20(fp)
  1036f4:	e03ffc15 	stw	zero,-16(fp)
  1036f8:	e03ff715 	stw	zero,-36(fp)
  1036fc:	e0bffe17 	ldw	r2,-8(fp)
  103700:	10800d04 	addi	r2,r2,52
  103704:	e0bffd15 	stw	r2,-12(fp)
  103708:	e0bffe17 	ldw	r2,-8(fp)
  10370c:	10802f17 	ldw	r2,188(r2)
  103710:	10001926 	beq	r2,zero,103778 <altera_onchip_flash_init+0xac>
  103714:	e0bffe17 	ldw	r2,-8(fp)
  103718:	10802f17 	ldw	r2,188(r2)
  10371c:	10800037 	ldwio	r2,0(r2)
  103720:	1080080c 	andi	r2,r2,32
  103724:	e0bff815 	stw	r2,-32(fp)
  103728:	e0bffe17 	ldw	r2,-8(fp)
  10372c:	10802f17 	ldw	r2,188(r2)
  103730:	10800037 	ldwio	r2,0(r2)
  103734:	1080100c 	andi	r2,r2,64
  103738:	e0bff915 	stw	r2,-28(fp)
  10373c:	e0bffe17 	ldw	r2,-8(fp)
  103740:	10802f17 	ldw	r2,188(r2)
  103744:	10800037 	ldwio	r2,0(r2)
  103748:	1080200c 	andi	r2,r2,128
  10374c:	e0bffa15 	stw	r2,-24(fp)
  103750:	e0bffe17 	ldw	r2,-8(fp)
  103754:	10802f17 	ldw	r2,188(r2)
  103758:	10800037 	ldwio	r2,0(r2)
  10375c:	1080400c 	andi	r2,r2,256
  103760:	e0bffb15 	stw	r2,-20(fp)
  103764:	e0bffe17 	ldw	r2,-8(fp)
  103768:	10802f17 	ldw	r2,188(r2)
  10376c:	10800037 	ldwio	r2,0(r2)
  103770:	1080800c 	andi	r2,r2,512
  103774:	e0bffc15 	stw	r2,-16(fp)
  103778:	e0bffe17 	ldw	r2,-8(fp)
  10377c:	10803017 	ldw	r2,192(r2)
  103780:	10800058 	cmpnei	r2,r2,1
  103784:	10002f1e 	bne	r2,zero,103844 <altera_onchip_flash_init+0x178>
  103788:	e0bff817 	ldw	r2,-32(fp)
  10378c:	10800820 	cmpeqi	r2,r2,32
  103790:	10002c1e 	bne	r2,zero,103844 <altera_onchip_flash_init+0x178>
  103794:	e0bff717 	ldw	r2,-36(fp)
  103798:	1004913a 	slli	r2,r2,4
  10379c:	e0fffd17 	ldw	r3,-12(fp)
  1037a0:	1885883a 	add	r2,r3,r2
  1037a4:	e0fffe17 	ldw	r3,-8(fp)
  1037a8:	18c03117 	ldw	r3,196(r3)
  1037ac:	10c00015 	stw	r3,0(r2)
  1037b0:	e0bff717 	ldw	r2,-36(fp)
  1037b4:	1004913a 	slli	r2,r2,4
  1037b8:	e0fffd17 	ldw	r3,-12(fp)
  1037bc:	1885883a 	add	r2,r3,r2
  1037c0:	e0fffe17 	ldw	r3,-8(fp)
  1037c4:	19003217 	ldw	r4,200(r3)
  1037c8:	e0fffe17 	ldw	r3,-8(fp)
  1037cc:	18c03117 	ldw	r3,196(r3)
  1037d0:	20c7c83a 	sub	r3,r4,r3
  1037d4:	18c00044 	addi	r3,r3,1
  1037d8:	10c00115 	stw	r3,4(r2)
  1037dc:	e0bff717 	ldw	r2,-36(fp)
  1037e0:	1004913a 	slli	r2,r2,4
  1037e4:	e0fffd17 	ldw	r3,-12(fp)
  1037e8:	18a1883a 	add	r16,r3,r2
  1037ec:	e0fffe17 	ldw	r3,-8(fp)
  1037f0:	e0bff717 	ldw	r2,-36(fp)
  1037f4:	1004913a 	slli	r2,r2,4
  1037f8:	1885883a 	add	r2,r3,r2
  1037fc:	10800e04 	addi	r2,r2,56
  103800:	10c00017 	ldw	r3,0(r2)
  103804:	e0bffe17 	ldw	r2,-8(fp)
  103808:	10803f17 	ldw	r2,252(r2)
  10380c:	100b883a 	mov	r5,r2
  103810:	1809883a 	mov	r4,r3
  103814:	0101ca80 	call	101ca8 <__divsi3>
  103818:	80800215 	stw	r2,8(r16)
  10381c:	e0bff717 	ldw	r2,-36(fp)
  103820:	1004913a 	slli	r2,r2,4
  103824:	e0fffd17 	ldw	r3,-12(fp)
  103828:	1885883a 	add	r2,r3,r2
  10382c:	e0fffe17 	ldw	r3,-8(fp)
  103830:	18c03f17 	ldw	r3,252(r3)
  103834:	10c00315 	stw	r3,12(r2)
  103838:	e0bff717 	ldw	r2,-36(fp)
  10383c:	10800044 	addi	r2,r2,1
  103840:	e0bff715 	stw	r2,-36(fp)
  103844:	e0bffe17 	ldw	r2,-8(fp)
  103848:	10803317 	ldw	r2,204(r2)
  10384c:	10800058 	cmpnei	r2,r2,1
  103850:	10002f1e 	bne	r2,zero,103910 <altera_onchip_flash_init+0x244>
  103854:	e0bff917 	ldw	r2,-28(fp)
  103858:	10801020 	cmpeqi	r2,r2,64
  10385c:	10002c1e 	bne	r2,zero,103910 <altera_onchip_flash_init+0x244>
  103860:	e0bff717 	ldw	r2,-36(fp)
  103864:	1004913a 	slli	r2,r2,4
  103868:	e0fffd17 	ldw	r3,-12(fp)
  10386c:	1885883a 	add	r2,r3,r2
  103870:	e0fffe17 	ldw	r3,-8(fp)
  103874:	18c03417 	ldw	r3,208(r3)
  103878:	10c00015 	stw	r3,0(r2)
  10387c:	e0bff717 	ldw	r2,-36(fp)
  103880:	1004913a 	slli	r2,r2,4
  103884:	e0fffd17 	ldw	r3,-12(fp)
  103888:	1885883a 	add	r2,r3,r2
  10388c:	e0fffe17 	ldw	r3,-8(fp)
  103890:	19003517 	ldw	r4,212(r3)
  103894:	e0fffe17 	ldw	r3,-8(fp)
  103898:	18c03417 	ldw	r3,208(r3)
  10389c:	20c7c83a 	sub	r3,r4,r3
  1038a0:	18c00044 	addi	r3,r3,1
  1038a4:	10c00115 	stw	r3,4(r2)
  1038a8:	e0bff717 	ldw	r2,-36(fp)
  1038ac:	1004913a 	slli	r2,r2,4
  1038b0:	e0fffd17 	ldw	r3,-12(fp)
  1038b4:	18a1883a 	add	r16,r3,r2
  1038b8:	e0fffe17 	ldw	r3,-8(fp)
  1038bc:	e0bff717 	ldw	r2,-36(fp)
  1038c0:	1004913a 	slli	r2,r2,4
  1038c4:	1885883a 	add	r2,r3,r2
  1038c8:	10800e04 	addi	r2,r2,56
  1038cc:	10c00017 	ldw	r3,0(r2)
  1038d0:	e0bffe17 	ldw	r2,-8(fp)
  1038d4:	10803f17 	ldw	r2,252(r2)
  1038d8:	100b883a 	mov	r5,r2
  1038dc:	1809883a 	mov	r4,r3
  1038e0:	0101ca80 	call	101ca8 <__divsi3>
  1038e4:	80800215 	stw	r2,8(r16)
  1038e8:	e0bff717 	ldw	r2,-36(fp)
  1038ec:	1004913a 	slli	r2,r2,4
  1038f0:	e0fffd17 	ldw	r3,-12(fp)
  1038f4:	1885883a 	add	r2,r3,r2
  1038f8:	e0fffe17 	ldw	r3,-8(fp)
  1038fc:	18c03f17 	ldw	r3,252(r3)
  103900:	10c00315 	stw	r3,12(r2)
  103904:	e0bff717 	ldw	r2,-36(fp)
  103908:	10800044 	addi	r2,r2,1
  10390c:	e0bff715 	stw	r2,-36(fp)
  103910:	e0bffe17 	ldw	r2,-8(fp)
  103914:	10803617 	ldw	r2,216(r2)
  103918:	10800058 	cmpnei	r2,r2,1
  10391c:	10002f1e 	bne	r2,zero,1039dc <altera_onchip_flash_init+0x310>
  103920:	e0bffa17 	ldw	r2,-24(fp)
  103924:	10802020 	cmpeqi	r2,r2,128
  103928:	10002c1e 	bne	r2,zero,1039dc <altera_onchip_flash_init+0x310>
  10392c:	e0bff717 	ldw	r2,-36(fp)
  103930:	1004913a 	slli	r2,r2,4
  103934:	e0fffd17 	ldw	r3,-12(fp)
  103938:	1885883a 	add	r2,r3,r2
  10393c:	e0fffe17 	ldw	r3,-8(fp)
  103940:	18c03717 	ldw	r3,220(r3)
  103944:	10c00015 	stw	r3,0(r2)
  103948:	e0bff717 	ldw	r2,-36(fp)
  10394c:	1004913a 	slli	r2,r2,4
  103950:	e0fffd17 	ldw	r3,-12(fp)
  103954:	1885883a 	add	r2,r3,r2
  103958:	e0fffe17 	ldw	r3,-8(fp)
  10395c:	19003817 	ldw	r4,224(r3)
  103960:	e0fffe17 	ldw	r3,-8(fp)
  103964:	18c03717 	ldw	r3,220(r3)
  103968:	20c7c83a 	sub	r3,r4,r3
  10396c:	18c00044 	addi	r3,r3,1
  103970:	10c00115 	stw	r3,4(r2)
  103974:	e0bff717 	ldw	r2,-36(fp)
  103978:	1004913a 	slli	r2,r2,4
  10397c:	e0fffd17 	ldw	r3,-12(fp)
  103980:	18a1883a 	add	r16,r3,r2
  103984:	e0fffe17 	ldw	r3,-8(fp)
  103988:	e0bff717 	ldw	r2,-36(fp)
  10398c:	1004913a 	slli	r2,r2,4
  103990:	1885883a 	add	r2,r3,r2
  103994:	10800e04 	addi	r2,r2,56
  103998:	10c00017 	ldw	r3,0(r2)
  10399c:	e0bffe17 	ldw	r2,-8(fp)
  1039a0:	10803f17 	ldw	r2,252(r2)
  1039a4:	100b883a 	mov	r5,r2
  1039a8:	1809883a 	mov	r4,r3
  1039ac:	0101ca80 	call	101ca8 <__divsi3>
  1039b0:	80800215 	stw	r2,8(r16)
  1039b4:	e0bff717 	ldw	r2,-36(fp)
  1039b8:	1004913a 	slli	r2,r2,4
  1039bc:	e0fffd17 	ldw	r3,-12(fp)
  1039c0:	1885883a 	add	r2,r3,r2
  1039c4:	e0fffe17 	ldw	r3,-8(fp)
  1039c8:	18c03f17 	ldw	r3,252(r3)
  1039cc:	10c00315 	stw	r3,12(r2)
  1039d0:	e0bff717 	ldw	r2,-36(fp)
  1039d4:	10800044 	addi	r2,r2,1
  1039d8:	e0bff715 	stw	r2,-36(fp)
  1039dc:	e0bffe17 	ldw	r2,-8(fp)
  1039e0:	10803917 	ldw	r2,228(r2)
  1039e4:	10800058 	cmpnei	r2,r2,1
  1039e8:	10002f1e 	bne	r2,zero,103aa8 <altera_onchip_flash_init+0x3dc>
  1039ec:	e0bffb17 	ldw	r2,-20(fp)
  1039f0:	10804020 	cmpeqi	r2,r2,256
  1039f4:	10002c1e 	bne	r2,zero,103aa8 <altera_onchip_flash_init+0x3dc>
  1039f8:	e0bff717 	ldw	r2,-36(fp)
  1039fc:	1004913a 	slli	r2,r2,4
  103a00:	e0fffd17 	ldw	r3,-12(fp)
  103a04:	1885883a 	add	r2,r3,r2
  103a08:	e0fffe17 	ldw	r3,-8(fp)
  103a0c:	18c03a17 	ldw	r3,232(r3)
  103a10:	10c00015 	stw	r3,0(r2)
  103a14:	e0bff717 	ldw	r2,-36(fp)
  103a18:	1004913a 	slli	r2,r2,4
  103a1c:	e0fffd17 	ldw	r3,-12(fp)
  103a20:	1885883a 	add	r2,r3,r2
  103a24:	e0fffe17 	ldw	r3,-8(fp)
  103a28:	19003b17 	ldw	r4,236(r3)
  103a2c:	e0fffe17 	ldw	r3,-8(fp)
  103a30:	18c03a17 	ldw	r3,232(r3)
  103a34:	20c7c83a 	sub	r3,r4,r3
  103a38:	18c00044 	addi	r3,r3,1
  103a3c:	10c00115 	stw	r3,4(r2)
  103a40:	e0bff717 	ldw	r2,-36(fp)
  103a44:	1004913a 	slli	r2,r2,4
  103a48:	e0fffd17 	ldw	r3,-12(fp)
  103a4c:	18a1883a 	add	r16,r3,r2
  103a50:	e0fffe17 	ldw	r3,-8(fp)
  103a54:	e0bff717 	ldw	r2,-36(fp)
  103a58:	1004913a 	slli	r2,r2,4
  103a5c:	1885883a 	add	r2,r3,r2
  103a60:	10800e04 	addi	r2,r2,56
  103a64:	10c00017 	ldw	r3,0(r2)
  103a68:	e0bffe17 	ldw	r2,-8(fp)
  103a6c:	10803f17 	ldw	r2,252(r2)
  103a70:	100b883a 	mov	r5,r2
  103a74:	1809883a 	mov	r4,r3
  103a78:	0101ca80 	call	101ca8 <__divsi3>
  103a7c:	80800215 	stw	r2,8(r16)
  103a80:	e0bff717 	ldw	r2,-36(fp)
  103a84:	1004913a 	slli	r2,r2,4
  103a88:	e0fffd17 	ldw	r3,-12(fp)
  103a8c:	1885883a 	add	r2,r3,r2
  103a90:	e0fffe17 	ldw	r3,-8(fp)
  103a94:	18c03f17 	ldw	r3,252(r3)
  103a98:	10c00315 	stw	r3,12(r2)
  103a9c:	e0bff717 	ldw	r2,-36(fp)
  103aa0:	10800044 	addi	r2,r2,1
  103aa4:	e0bff715 	stw	r2,-36(fp)
  103aa8:	e0bffe17 	ldw	r2,-8(fp)
  103aac:	10803c17 	ldw	r2,240(r2)
  103ab0:	10800058 	cmpnei	r2,r2,1
  103ab4:	10002f1e 	bne	r2,zero,103b74 <altera_onchip_flash_init+0x4a8>
  103ab8:	e0bffc17 	ldw	r2,-16(fp)
  103abc:	10808020 	cmpeqi	r2,r2,512
  103ac0:	10002c1e 	bne	r2,zero,103b74 <altera_onchip_flash_init+0x4a8>
  103ac4:	e0bff717 	ldw	r2,-36(fp)
  103ac8:	1004913a 	slli	r2,r2,4
  103acc:	e0fffd17 	ldw	r3,-12(fp)
  103ad0:	1885883a 	add	r2,r3,r2
  103ad4:	e0fffe17 	ldw	r3,-8(fp)
  103ad8:	18c03d17 	ldw	r3,244(r3)
  103adc:	10c00015 	stw	r3,0(r2)
  103ae0:	e0bff717 	ldw	r2,-36(fp)
  103ae4:	1004913a 	slli	r2,r2,4
  103ae8:	e0fffd17 	ldw	r3,-12(fp)
  103aec:	1885883a 	add	r2,r3,r2
  103af0:	e0fffe17 	ldw	r3,-8(fp)
  103af4:	19003e17 	ldw	r4,248(r3)
  103af8:	e0fffe17 	ldw	r3,-8(fp)
  103afc:	18c03d17 	ldw	r3,244(r3)
  103b00:	20c7c83a 	sub	r3,r4,r3
  103b04:	18c00044 	addi	r3,r3,1
  103b08:	10c00115 	stw	r3,4(r2)
  103b0c:	e0bff717 	ldw	r2,-36(fp)
  103b10:	1004913a 	slli	r2,r2,4
  103b14:	e0fffd17 	ldw	r3,-12(fp)
  103b18:	18a1883a 	add	r16,r3,r2
  103b1c:	e0fffe17 	ldw	r3,-8(fp)
  103b20:	e0bff717 	ldw	r2,-36(fp)
  103b24:	1004913a 	slli	r2,r2,4
  103b28:	1885883a 	add	r2,r3,r2
  103b2c:	10800e04 	addi	r2,r2,56
  103b30:	10c00017 	ldw	r3,0(r2)
  103b34:	e0bffe17 	ldw	r2,-8(fp)
  103b38:	10803f17 	ldw	r2,252(r2)
  103b3c:	100b883a 	mov	r5,r2
  103b40:	1809883a 	mov	r4,r3
  103b44:	0101ca80 	call	101ca8 <__divsi3>
  103b48:	80800215 	stw	r2,8(r16)
  103b4c:	e0bff717 	ldw	r2,-36(fp)
  103b50:	1004913a 	slli	r2,r2,4
  103b54:	e0fffd17 	ldw	r3,-12(fp)
  103b58:	1885883a 	add	r2,r3,r2
  103b5c:	e0fffe17 	ldw	r3,-8(fp)
  103b60:	18c03f17 	ldw	r3,252(r3)
  103b64:	10c00315 	stw	r3,12(r2)
  103b68:	e0bff717 	ldw	r2,-36(fp)
  103b6c:	10800044 	addi	r2,r2,1
  103b70:	e0bff715 	stw	r2,-36(fp)
  103b74:	e0bffe17 	ldw	r2,-8(fp)
  103b78:	e0fff717 	ldw	r3,-36(fp)
  103b7c:	10c00c15 	stw	r3,48(r2)
  103b80:	e0bffe17 	ldw	r2,-8(fp)
  103b84:	1009883a 	mov	r4,r2
  103b88:	0102e180 	call	102e18 <alt_flash_device_register>
  103b8c:	0001883a 	nop
  103b90:	e6ffff04 	addi	sp,fp,-4
  103b94:	dfc00217 	ldw	ra,8(sp)
  103b98:	df000117 	ldw	fp,4(sp)
  103b9c:	dc000017 	ldw	r16,0(sp)
  103ba0:	dec00304 	addi	sp,sp,12
  103ba4:	f800283a 	ret

00103ba8 <alt_onchip_flash_poll_for_status_to_go_idle>:
  103ba8:	defffa04 	addi	sp,sp,-24
  103bac:	dfc00515 	stw	ra,20(sp)
  103bb0:	df000415 	stw	fp,16(sp)
  103bb4:	df000404 	addi	fp,sp,16
  103bb8:	e13fff15 	stw	r4,-4(fp)
  103bbc:	e03ffc15 	stw	zero,-16(fp)
  103bc0:	008002f4 	movhi	r2,11
  103bc4:	10ab9804 	addi	r2,r2,-20896
  103bc8:	e0bffe15 	stw	r2,-8(fp)
  103bcc:	008002f4 	movhi	r2,11
  103bd0:	10ab9804 	addi	r2,r2,-20896
  103bd4:	e0bffd15 	stw	r2,-12(fp)
  103bd8:	00000c06 	br	103c0c <alt_onchip_flash_poll_for_status_to_go_idle+0x64>
  103bdc:	01000044 	movi	r4,1
  103be0:	0103d580 	call	103d58 <alt_busy_sleep>
  103be4:	e0bffe17 	ldw	r2,-8(fp)
  103be8:	10000826 	beq	r2,zero,103c0c <alt_onchip_flash_poll_for_status_to_go_idle+0x64>
  103bec:	e0bffd17 	ldw	r2,-12(fp)
  103bf0:	10bfffc4 	addi	r2,r2,-1
  103bf4:	e0bffd15 	stw	r2,-12(fp)
  103bf8:	e0bffd17 	ldw	r2,-12(fp)
  103bfc:	1000031e 	bne	r2,zero,103c0c <alt_onchip_flash_poll_for_status_to_go_idle+0x64>
  103c00:	00bfe304 	movi	r2,-116
  103c04:	e0bffc15 	stw	r2,-16(fp)
  103c08:	00000506 	br	103c20 <alt_onchip_flash_poll_for_status_to_go_idle+0x78>
  103c0c:	e0bfff17 	ldw	r2,-4(fp)
  103c10:	10802f17 	ldw	r2,188(r2)
  103c14:	10800037 	ldwio	r2,0(r2)
  103c18:	108000cc 	andi	r2,r2,3
  103c1c:	103fef1e 	bne	r2,zero,103bdc <_gp+0xffefb414>
  103c20:	e0bffc17 	ldw	r2,-16(fp)
  103c24:	e037883a 	mov	sp,fp
  103c28:	dfc00117 	ldw	ra,4(sp)
  103c2c:	df000017 	ldw	fp,0(sp)
  103c30:	dec00204 	addi	sp,sp,8
  103c34:	f800283a 	ret

00103c38 <alt_onchip_flash_poll_for_status_erase_passed>:
  103c38:	defffa04 	addi	sp,sp,-24
  103c3c:	dfc00515 	stw	ra,20(sp)
  103c40:	df000415 	stw	fp,16(sp)
  103c44:	df000404 	addi	fp,sp,16
  103c48:	e13fff15 	stw	r4,-4(fp)
  103c4c:	e03ffc15 	stw	zero,-16(fp)
  103c50:	008002f4 	movhi	r2,11
  103c54:	10ab9804 	addi	r2,r2,-20896
  103c58:	e0bffe15 	stw	r2,-8(fp)
  103c5c:	008002f4 	movhi	r2,11
  103c60:	10ab9804 	addi	r2,r2,-20896
  103c64:	e0bffd15 	stw	r2,-12(fp)
  103c68:	00000c06 	br	103c9c <alt_onchip_flash_poll_for_status_erase_passed+0x64>
  103c6c:	01000044 	movi	r4,1
  103c70:	0103d580 	call	103d58 <alt_busy_sleep>
  103c74:	e0bffe17 	ldw	r2,-8(fp)
  103c78:	10000826 	beq	r2,zero,103c9c <alt_onchip_flash_poll_for_status_erase_passed+0x64>
  103c7c:	e0bffd17 	ldw	r2,-12(fp)
  103c80:	10bfffc4 	addi	r2,r2,-1
  103c84:	e0bffd15 	stw	r2,-12(fp)
  103c88:	e0bffd17 	ldw	r2,-12(fp)
  103c8c:	1000031e 	bne	r2,zero,103c9c <alt_onchip_flash_poll_for_status_erase_passed+0x64>
  103c90:	00bfe304 	movi	r2,-116
  103c94:	e0bffc15 	stw	r2,-16(fp)
  103c98:	00000506 	br	103cb0 <alt_onchip_flash_poll_for_status_erase_passed+0x78>
  103c9c:	e0bfff17 	ldw	r2,-4(fp)
  103ca0:	10802f17 	ldw	r2,188(r2)
  103ca4:	10800037 	ldwio	r2,0(r2)
  103ca8:	1080040c 	andi	r2,r2,16
  103cac:	103fef26 	beq	r2,zero,103c6c <_gp+0xffefb4a4>
  103cb0:	e0bffc17 	ldw	r2,-16(fp)
  103cb4:	e037883a 	mov	sp,fp
  103cb8:	dfc00117 	ldw	ra,4(sp)
  103cbc:	df000017 	ldw	fp,0(sp)
  103cc0:	dec00204 	addi	sp,sp,8
  103cc4:	f800283a 	ret

00103cc8 <alt_onchip_flash_poll_for_status_write_passed>:
  103cc8:	defffa04 	addi	sp,sp,-24
  103ccc:	dfc00515 	stw	ra,20(sp)
  103cd0:	df000415 	stw	fp,16(sp)
  103cd4:	df000404 	addi	fp,sp,16
  103cd8:	e13fff15 	stw	r4,-4(fp)
  103cdc:	e03ffc15 	stw	zero,-16(fp)
  103ce0:	008002f4 	movhi	r2,11
  103ce4:	10ab9804 	addi	r2,r2,-20896
  103ce8:	e0bffe15 	stw	r2,-8(fp)
  103cec:	008002f4 	movhi	r2,11
  103cf0:	10ab9804 	addi	r2,r2,-20896
  103cf4:	e0bffd15 	stw	r2,-12(fp)
  103cf8:	00000c06 	br	103d2c <alt_onchip_flash_poll_for_status_write_passed+0x64>
  103cfc:	01000044 	movi	r4,1
  103d00:	0103d580 	call	103d58 <alt_busy_sleep>
  103d04:	e0bffe17 	ldw	r2,-8(fp)
  103d08:	10000826 	beq	r2,zero,103d2c <alt_onchip_flash_poll_for_status_write_passed+0x64>
  103d0c:	e0bffd17 	ldw	r2,-12(fp)
  103d10:	10bfffc4 	addi	r2,r2,-1
  103d14:	e0bffd15 	stw	r2,-12(fp)
  103d18:	e0bffd17 	ldw	r2,-12(fp)
  103d1c:	1000031e 	bne	r2,zero,103d2c <alt_onchip_flash_poll_for_status_write_passed+0x64>
  103d20:	00bfe304 	movi	r2,-116
  103d24:	e0bffc15 	stw	r2,-16(fp)
  103d28:	00000506 	br	103d40 <alt_onchip_flash_poll_for_status_write_passed+0x78>
  103d2c:	e0bfff17 	ldw	r2,-4(fp)
  103d30:	10802f17 	ldw	r2,188(r2)
  103d34:	10800037 	ldwio	r2,0(r2)
  103d38:	1080020c 	andi	r2,r2,8
  103d3c:	103fef26 	beq	r2,zero,103cfc <_gp+0xffefb534>
  103d40:	e0bffc17 	ldw	r2,-16(fp)
  103d44:	e037883a 	mov	sp,fp
  103d48:	dfc00117 	ldw	ra,4(sp)
  103d4c:	df000017 	ldw	fp,0(sp)
  103d50:	dec00204 	addi	sp,sp,8
  103d54:	f800283a 	ret

00103d58 <alt_busy_sleep>:
  103d58:	defffa04 	addi	sp,sp,-24
  103d5c:	dfc00515 	stw	ra,20(sp)
  103d60:	df000415 	stw	fp,16(sp)
  103d64:	df000404 	addi	fp,sp,16
  103d68:	e13fff15 	stw	r4,-4(fp)
  103d6c:	00800244 	movi	r2,9
  103d70:	e0bffd15 	stw	r2,-12(fp)
  103d74:	014003f4 	movhi	r5,15
  103d78:	29509004 	addi	r5,r5,16960
  103d7c:	e13ffd17 	ldw	r4,-12(fp)
  103d80:	0101e5c0 	call	101e5c <__mulsi3>
  103d84:	100b883a 	mov	r5,r2
  103d88:	010098b4 	movhi	r4,610
  103d8c:	21168004 	addi	r4,r4,23040
  103d90:	0101da00 	call	101da0 <__udivsi3>
  103d94:	100b883a 	mov	r5,r2
  103d98:	01200034 	movhi	r4,32768
  103d9c:	213fffc4 	addi	r4,r4,-1
  103da0:	0101da00 	call	101da0 <__udivsi3>
  103da4:	100b883a 	mov	r5,r2
  103da8:	e13fff17 	ldw	r4,-4(fp)
  103dac:	0101da00 	call	101da0 <__udivsi3>
  103db0:	e0bffe15 	stw	r2,-8(fp)
  103db4:	e0bffe17 	ldw	r2,-8(fp)
  103db8:	10002a26 	beq	r2,zero,103e64 <alt_busy_sleep+0x10c>
  103dbc:	e03ffc15 	stw	zero,-16(fp)
  103dc0:	00001706 	br	103e20 <alt_busy_sleep+0xc8>
  103dc4:	00a00034 	movhi	r2,32768
  103dc8:	10bfffc4 	addi	r2,r2,-1
  103dcc:	10bfffc4 	addi	r2,r2,-1
  103dd0:	103ffe1e 	bne	r2,zero,103dcc <_gp+0xffefb604>
  103dd4:	014003f4 	movhi	r5,15
  103dd8:	29509004 	addi	r5,r5,16960
  103ddc:	e13ffd17 	ldw	r4,-12(fp)
  103de0:	0101e5c0 	call	101e5c <__mulsi3>
  103de4:	100b883a 	mov	r5,r2
  103de8:	010098b4 	movhi	r4,610
  103dec:	21168004 	addi	r4,r4,23040
  103df0:	0101da00 	call	101da0 <__udivsi3>
  103df4:	100b883a 	mov	r5,r2
  103df8:	01200034 	movhi	r4,32768
  103dfc:	213fffc4 	addi	r4,r4,-1
  103e00:	0101da00 	call	101da0 <__udivsi3>
  103e04:	1007883a 	mov	r3,r2
  103e08:	e0bfff17 	ldw	r2,-4(fp)
  103e0c:	10c5c83a 	sub	r2,r2,r3
  103e10:	e0bfff15 	stw	r2,-4(fp)
  103e14:	e0bffc17 	ldw	r2,-16(fp)
  103e18:	10800044 	addi	r2,r2,1
  103e1c:	e0bffc15 	stw	r2,-16(fp)
  103e20:	e0fffc17 	ldw	r3,-16(fp)
  103e24:	e0bffe17 	ldw	r2,-8(fp)
  103e28:	18bfe616 	blt	r3,r2,103dc4 <_gp+0xffefb5fc>
  103e2c:	014003f4 	movhi	r5,15
  103e30:	29509004 	addi	r5,r5,16960
  103e34:	e13ffd17 	ldw	r4,-12(fp)
  103e38:	0101e5c0 	call	101e5c <__mulsi3>
  103e3c:	100b883a 	mov	r5,r2
  103e40:	010098b4 	movhi	r4,610
  103e44:	21168004 	addi	r4,r4,23040
  103e48:	0101da00 	call	101da0 <__udivsi3>
  103e4c:	e17fff17 	ldw	r5,-4(fp)
  103e50:	1009883a 	mov	r4,r2
  103e54:	0101e5c0 	call	101e5c <__mulsi3>
  103e58:	10bfffc4 	addi	r2,r2,-1
  103e5c:	103ffe1e 	bne	r2,zero,103e58 <_gp+0xffefb690>
  103e60:	00000d06 	br	103e98 <alt_busy_sleep+0x140>
  103e64:	014003f4 	movhi	r5,15
  103e68:	29509004 	addi	r5,r5,16960
  103e6c:	e13ffd17 	ldw	r4,-12(fp)
  103e70:	0101e5c0 	call	101e5c <__mulsi3>
  103e74:	100b883a 	mov	r5,r2
  103e78:	010098b4 	movhi	r4,610
  103e7c:	21168004 	addi	r4,r4,23040
  103e80:	0101da00 	call	101da0 <__udivsi3>
  103e84:	e17fff17 	ldw	r5,-4(fp)
  103e88:	1009883a 	mov	r4,r2
  103e8c:	0101e5c0 	call	101e5c <__mulsi3>
  103e90:	10bfffc4 	addi	r2,r2,-1
  103e94:	00bffe16 	blt	zero,r2,103e90 <_gp+0xffefb6c8>
  103e98:	0005883a 	mov	r2,zero
  103e9c:	e037883a 	mov	sp,fp
  103ea0:	dfc00117 	ldw	ra,4(sp)
  103ea4:	df000017 	ldw	fp,0(sp)
  103ea8:	dec00204 	addi	sp,sp,8
  103eac:	f800283a 	ret

00103eb0 <alt_get_errno>:
  103eb0:	defffe04 	addi	sp,sp,-8
  103eb4:	dfc00115 	stw	ra,4(sp)
  103eb8:	df000015 	stw	fp,0(sp)
  103ebc:	d839883a 	mov	fp,sp
  103ec0:	d0a00d17 	ldw	r2,-32716(gp)
  103ec4:	10000326 	beq	r2,zero,103ed4 <alt_get_errno+0x24>
  103ec8:	d0a00d17 	ldw	r2,-32716(gp)
  103ecc:	103ee83a 	callr	r2
  103ed0:	00000106 	br	103ed8 <alt_get_errno+0x28>
  103ed4:	d0a02c04 	addi	r2,gp,-32592
  103ed8:	e037883a 	mov	sp,fp
  103edc:	dfc00117 	ldw	ra,4(sp)
  103ee0:	df000017 	ldw	fp,0(sp)
  103ee4:	dec00204 	addi	sp,sp,8
  103ee8:	f800283a 	ret

00103eec <close>:
  103eec:	defffb04 	addi	sp,sp,-20
  103ef0:	dfc00415 	stw	ra,16(sp)
  103ef4:	df000315 	stw	fp,12(sp)
  103ef8:	df000304 	addi	fp,sp,12
  103efc:	e13fff15 	stw	r4,-4(fp)
  103f00:	e0bfff17 	ldw	r2,-4(fp)
  103f04:	10000816 	blt	r2,zero,103f28 <close+0x3c>
  103f08:	01400304 	movi	r5,12
  103f0c:	e13fff17 	ldw	r4,-4(fp)
  103f10:	0101e5c0 	call	101e5c <__mulsi3>
  103f14:	1007883a 	mov	r3,r2
  103f18:	00800834 	movhi	r2,32
  103f1c:	10808904 	addi	r2,r2,548
  103f20:	1885883a 	add	r2,r3,r2
  103f24:	00000106 	br	103f2c <close+0x40>
  103f28:	0005883a 	mov	r2,zero
  103f2c:	e0bffd15 	stw	r2,-12(fp)
  103f30:	e0bffd17 	ldw	r2,-12(fp)
  103f34:	10001926 	beq	r2,zero,103f9c <close+0xb0>
  103f38:	e0bffd17 	ldw	r2,-12(fp)
  103f3c:	10800017 	ldw	r2,0(r2)
  103f40:	10800417 	ldw	r2,16(r2)
  103f44:	10000626 	beq	r2,zero,103f60 <close+0x74>
  103f48:	e0bffd17 	ldw	r2,-12(fp)
  103f4c:	10800017 	ldw	r2,0(r2)
  103f50:	10800417 	ldw	r2,16(r2)
  103f54:	e13ffd17 	ldw	r4,-12(fp)
  103f58:	103ee83a 	callr	r2
  103f5c:	00000106 	br	103f64 <close+0x78>
  103f60:	0005883a 	mov	r2,zero
  103f64:	e0bffe15 	stw	r2,-8(fp)
  103f68:	e13fff17 	ldw	r4,-4(fp)
  103f6c:	01045540 	call	104554 <alt_release_fd>
  103f70:	e0bffe17 	ldw	r2,-8(fp)
  103f74:	1000070e 	bge	r2,zero,103f94 <close+0xa8>
  103f78:	0103eb00 	call	103eb0 <alt_get_errno>
  103f7c:	1007883a 	mov	r3,r2
  103f80:	e0bffe17 	ldw	r2,-8(fp)
  103f84:	0085c83a 	sub	r2,zero,r2
  103f88:	18800015 	stw	r2,0(r3)
  103f8c:	00bfffc4 	movi	r2,-1
  103f90:	00000706 	br	103fb0 <close+0xc4>
  103f94:	0005883a 	mov	r2,zero
  103f98:	00000506 	br	103fb0 <close+0xc4>
  103f9c:	0103eb00 	call	103eb0 <alt_get_errno>
  103fa0:	1007883a 	mov	r3,r2
  103fa4:	00801444 	movi	r2,81
  103fa8:	18800015 	stw	r2,0(r3)
  103fac:	00bfffc4 	movi	r2,-1
  103fb0:	e037883a 	mov	sp,fp
  103fb4:	dfc00117 	ldw	ra,4(sp)
  103fb8:	df000017 	ldw	fp,0(sp)
  103fbc:	dec00204 	addi	sp,sp,8
  103fc0:	f800283a 	ret

00103fc4 <alt_dcache_flush>:
  103fc4:	defffd04 	addi	sp,sp,-12
  103fc8:	df000215 	stw	fp,8(sp)
  103fcc:	df000204 	addi	fp,sp,8
  103fd0:	e13ffe15 	stw	r4,-8(fp)
  103fd4:	e17fff15 	stw	r5,-4(fp)
  103fd8:	0001883a 	nop
  103fdc:	e037883a 	mov	sp,fp
  103fe0:	df000017 	ldw	fp,0(sp)
  103fe4:	dec00104 	addi	sp,sp,4
  103fe8:	f800283a 	ret

00103fec <alt_dcache_flush_all>:
  103fec:	deffff04 	addi	sp,sp,-4
  103ff0:	df000015 	stw	fp,0(sp)
  103ff4:	d839883a 	mov	fp,sp
  103ff8:	0001883a 	nop
  103ffc:	e037883a 	mov	sp,fp
  104000:	df000017 	ldw	fp,0(sp)
  104004:	dec00104 	addi	sp,sp,4
  104008:	f800283a 	ret

0010400c <alt_dev_null_write>:
  10400c:	defffc04 	addi	sp,sp,-16
  104010:	df000315 	stw	fp,12(sp)
  104014:	df000304 	addi	fp,sp,12
  104018:	e13ffd15 	stw	r4,-12(fp)
  10401c:	e17ffe15 	stw	r5,-8(fp)
  104020:	e1bfff15 	stw	r6,-4(fp)
  104024:	e0bfff17 	ldw	r2,-4(fp)
  104028:	e037883a 	mov	sp,fp
  10402c:	df000017 	ldw	fp,0(sp)
  104030:	dec00104 	addi	sp,sp,4
  104034:	f800283a 	ret

00104038 <alt_get_errno>:
  104038:	defffe04 	addi	sp,sp,-8
  10403c:	dfc00115 	stw	ra,4(sp)
  104040:	df000015 	stw	fp,0(sp)
  104044:	d839883a 	mov	fp,sp
  104048:	d0a00d17 	ldw	r2,-32716(gp)
  10404c:	10000326 	beq	r2,zero,10405c <alt_get_errno+0x24>
  104050:	d0a00d17 	ldw	r2,-32716(gp)
  104054:	103ee83a 	callr	r2
  104058:	00000106 	br	104060 <alt_get_errno+0x28>
  10405c:	d0a02c04 	addi	r2,gp,-32592
  104060:	e037883a 	mov	sp,fp
  104064:	dfc00117 	ldw	ra,4(sp)
  104068:	df000017 	ldw	fp,0(sp)
  10406c:	dec00204 	addi	sp,sp,8
  104070:	f800283a 	ret

00104074 <alt_dev_llist_insert>:
  104074:	defffa04 	addi	sp,sp,-24
  104078:	dfc00515 	stw	ra,20(sp)
  10407c:	df000415 	stw	fp,16(sp)
  104080:	df000404 	addi	fp,sp,16
  104084:	e13ffe15 	stw	r4,-8(fp)
  104088:	e17fff15 	stw	r5,-4(fp)
  10408c:	e0bffe17 	ldw	r2,-8(fp)
  104090:	10000326 	beq	r2,zero,1040a0 <alt_dev_llist_insert+0x2c>
  104094:	e0bffe17 	ldw	r2,-8(fp)
  104098:	10800217 	ldw	r2,8(r2)
  10409c:	1000061e 	bne	r2,zero,1040b8 <alt_dev_llist_insert+0x44>
  1040a0:	01040380 	call	104038 <alt_get_errno>
  1040a4:	1007883a 	mov	r3,r2
  1040a8:	00800584 	movi	r2,22
  1040ac:	18800015 	stw	r2,0(r3)
  1040b0:	00bffa84 	movi	r2,-22
  1040b4:	00001306 	br	104104 <alt_dev_llist_insert+0x90>
  1040b8:	e0bffe17 	ldw	r2,-8(fp)
  1040bc:	e0ffff17 	ldw	r3,-4(fp)
  1040c0:	e0fffc15 	stw	r3,-16(fp)
  1040c4:	e0bffd15 	stw	r2,-12(fp)
  1040c8:	e0bffd17 	ldw	r2,-12(fp)
  1040cc:	e0fffc17 	ldw	r3,-16(fp)
  1040d0:	10c00115 	stw	r3,4(r2)
  1040d4:	e0bffc17 	ldw	r2,-16(fp)
  1040d8:	10c00017 	ldw	r3,0(r2)
  1040dc:	e0bffd17 	ldw	r2,-12(fp)
  1040e0:	10c00015 	stw	r3,0(r2)
  1040e4:	e0bffc17 	ldw	r2,-16(fp)
  1040e8:	10800017 	ldw	r2,0(r2)
  1040ec:	e0fffd17 	ldw	r3,-12(fp)
  1040f0:	10c00115 	stw	r3,4(r2)
  1040f4:	e0bffc17 	ldw	r2,-16(fp)
  1040f8:	e0fffd17 	ldw	r3,-12(fp)
  1040fc:	10c00015 	stw	r3,0(r2)
  104100:	0005883a 	mov	r2,zero
  104104:	e037883a 	mov	sp,fp
  104108:	dfc00117 	ldw	ra,4(sp)
  10410c:	df000017 	ldw	fp,0(sp)
  104110:	dec00204 	addi	sp,sp,8
  104114:	f800283a 	ret

00104118 <_do_ctors>:
  104118:	defffd04 	addi	sp,sp,-12
  10411c:	dfc00215 	stw	ra,8(sp)
  104120:	df000115 	stw	fp,4(sp)
  104124:	df000104 	addi	fp,sp,4
  104128:	00800434 	movhi	r2,16
  10412c:	1092d404 	addi	r2,r2,19280
  104130:	e0bfff15 	stw	r2,-4(fp)
  104134:	00000606 	br	104150 <_do_ctors+0x38>
  104138:	e0bfff17 	ldw	r2,-4(fp)
  10413c:	10800017 	ldw	r2,0(r2)
  104140:	103ee83a 	callr	r2
  104144:	e0bfff17 	ldw	r2,-4(fp)
  104148:	10bfff04 	addi	r2,r2,-4
  10414c:	e0bfff15 	stw	r2,-4(fp)
  104150:	e0ffff17 	ldw	r3,-4(fp)
  104154:	00800434 	movhi	r2,16
  104158:	1092d504 	addi	r2,r2,19284
  10415c:	18bff62e 	bgeu	r3,r2,104138 <_gp+0xffefb970>
  104160:	0001883a 	nop
  104164:	e037883a 	mov	sp,fp
  104168:	dfc00117 	ldw	ra,4(sp)
  10416c:	df000017 	ldw	fp,0(sp)
  104170:	dec00204 	addi	sp,sp,8
  104174:	f800283a 	ret

00104178 <_do_dtors>:
  104178:	defffd04 	addi	sp,sp,-12
  10417c:	dfc00215 	stw	ra,8(sp)
  104180:	df000115 	stw	fp,4(sp)
  104184:	df000104 	addi	fp,sp,4
  104188:	00800434 	movhi	r2,16
  10418c:	1092d404 	addi	r2,r2,19280
  104190:	e0bfff15 	stw	r2,-4(fp)
  104194:	00000606 	br	1041b0 <_do_dtors+0x38>
  104198:	e0bfff17 	ldw	r2,-4(fp)
  10419c:	10800017 	ldw	r2,0(r2)
  1041a0:	103ee83a 	callr	r2
  1041a4:	e0bfff17 	ldw	r2,-4(fp)
  1041a8:	10bfff04 	addi	r2,r2,-4
  1041ac:	e0bfff15 	stw	r2,-4(fp)
  1041b0:	e0ffff17 	ldw	r3,-4(fp)
  1041b4:	00800434 	movhi	r2,16
  1041b8:	1092d504 	addi	r2,r2,19284
  1041bc:	18bff62e 	bgeu	r3,r2,104198 <_gp+0xffefb9d0>
  1041c0:	0001883a 	nop
  1041c4:	e037883a 	mov	sp,fp
  1041c8:	dfc00117 	ldw	ra,4(sp)
  1041cc:	df000017 	ldw	fp,0(sp)
  1041d0:	dec00204 	addi	sp,sp,8
  1041d4:	f800283a 	ret

001041d8 <alt_flash_open_dev>:
  1041d8:	defffc04 	addi	sp,sp,-16
  1041dc:	dfc00315 	stw	ra,12(sp)
  1041e0:	df000215 	stw	fp,8(sp)
  1041e4:	df000204 	addi	fp,sp,8
  1041e8:	e13fff15 	stw	r4,-4(fp)
  1041ec:	d1600e04 	addi	r5,gp,-32712
  1041f0:	e13fff17 	ldw	r4,-4(fp)
  1041f4:	01045fc0 	call	1045fc <alt_find_dev>
  1041f8:	e0bffe15 	stw	r2,-8(fp)
  1041fc:	e0bffe17 	ldw	r2,-8(fp)
  104200:	10000926 	beq	r2,zero,104228 <alt_flash_open_dev+0x50>
  104204:	e0bffe17 	ldw	r2,-8(fp)
  104208:	10800317 	ldw	r2,12(r2)
  10420c:	10000626 	beq	r2,zero,104228 <alt_flash_open_dev+0x50>
  104210:	e0bffe17 	ldw	r2,-8(fp)
  104214:	10800317 	ldw	r2,12(r2)
  104218:	e17fff17 	ldw	r5,-4(fp)
  10421c:	e13ffe17 	ldw	r4,-8(fp)
  104220:	103ee83a 	callr	r2
  104224:	00000106 	br	10422c <alt_flash_open_dev+0x54>
  104228:	e0bffe17 	ldw	r2,-8(fp)
  10422c:	e037883a 	mov	sp,fp
  104230:	dfc00117 	ldw	ra,4(sp)
  104234:	df000017 	ldw	fp,0(sp)
  104238:	dec00204 	addi	sp,sp,8
  10423c:	f800283a 	ret

00104240 <alt_flash_close_dev>:
  104240:	defffd04 	addi	sp,sp,-12
  104244:	dfc00215 	stw	ra,8(sp)
  104248:	df000115 	stw	fp,4(sp)
  10424c:	df000104 	addi	fp,sp,4
  104250:	e13fff15 	stw	r4,-4(fp)
  104254:	e0bfff17 	ldw	r2,-4(fp)
  104258:	10000826 	beq	r2,zero,10427c <alt_flash_close_dev+0x3c>
  10425c:	e0bfff17 	ldw	r2,-4(fp)
  104260:	10800417 	ldw	r2,16(r2)
  104264:	10000526 	beq	r2,zero,10427c <alt_flash_close_dev+0x3c>
  104268:	e0bfff17 	ldw	r2,-4(fp)
  10426c:	10800417 	ldw	r2,16(r2)
  104270:	e13fff17 	ldw	r4,-4(fp)
  104274:	103ee83a 	callr	r2
  104278:	0001883a 	nop
  10427c:	0001883a 	nop
  104280:	e037883a 	mov	sp,fp
  104284:	dfc00117 	ldw	ra,4(sp)
  104288:	df000017 	ldw	fp,0(sp)
  10428c:	dec00204 	addi	sp,sp,8
  104290:	f800283a 	ret

00104294 <alt_icache_flush_all>:
  104294:	deffff04 	addi	sp,sp,-4
  104298:	df000015 	stw	fp,0(sp)
  10429c:	d839883a 	mov	fp,sp
  1042a0:	0001883a 	nop
  1042a4:	e037883a 	mov	sp,fp
  1042a8:	df000017 	ldw	fp,0(sp)
  1042ac:	dec00104 	addi	sp,sp,4
  1042b0:	f800283a 	ret

001042b4 <alt_ic_isr_register>:
  1042b4:	defff904 	addi	sp,sp,-28
  1042b8:	dfc00615 	stw	ra,24(sp)
  1042bc:	df000515 	stw	fp,20(sp)
  1042c0:	df000504 	addi	fp,sp,20
  1042c4:	e13ffc15 	stw	r4,-16(fp)
  1042c8:	e17ffd15 	stw	r5,-12(fp)
  1042cc:	e1bffe15 	stw	r6,-8(fp)
  1042d0:	e1ffff15 	stw	r7,-4(fp)
  1042d4:	e0800217 	ldw	r2,8(fp)
  1042d8:	d8800015 	stw	r2,0(sp)
  1042dc:	e1ffff17 	ldw	r7,-4(fp)
  1042e0:	e1bffe17 	ldw	r6,-8(fp)
  1042e4:	e17ffd17 	ldw	r5,-12(fp)
  1042e8:	e13ffc17 	ldw	r4,-16(fp)
  1042ec:	01044640 	call	104464 <alt_iic_isr_register>
  1042f0:	e037883a 	mov	sp,fp
  1042f4:	dfc00117 	ldw	ra,4(sp)
  1042f8:	df000017 	ldw	fp,0(sp)
  1042fc:	dec00204 	addi	sp,sp,8
  104300:	f800283a 	ret

00104304 <alt_ic_irq_enable>:
  104304:	defff904 	addi	sp,sp,-28
  104308:	df000615 	stw	fp,24(sp)
  10430c:	df000604 	addi	fp,sp,24
  104310:	e13ffe15 	stw	r4,-8(fp)
  104314:	e17fff15 	stw	r5,-4(fp)
  104318:	e0bfff17 	ldw	r2,-4(fp)
  10431c:	e0bffa15 	stw	r2,-24(fp)
  104320:	0005303a 	rdctl	r2,status
  104324:	e0bffb15 	stw	r2,-20(fp)
  104328:	e0fffb17 	ldw	r3,-20(fp)
  10432c:	00bfff84 	movi	r2,-2
  104330:	1884703a 	and	r2,r3,r2
  104334:	1001703a 	wrctl	status,r2
  104338:	e0bffb17 	ldw	r2,-20(fp)
  10433c:	e0bffc15 	stw	r2,-16(fp)
  104340:	00c00044 	movi	r3,1
  104344:	e0bffa17 	ldw	r2,-24(fp)
  104348:	1884983a 	sll	r2,r3,r2
  10434c:	1007883a 	mov	r3,r2
  104350:	d0a02a17 	ldw	r2,-32600(gp)
  104354:	1884b03a 	or	r2,r3,r2
  104358:	d0a02a15 	stw	r2,-32600(gp)
  10435c:	d0a02a17 	ldw	r2,-32600(gp)
  104360:	100170fa 	wrctl	ienable,r2
  104364:	e0bffc17 	ldw	r2,-16(fp)
  104368:	e0bffd15 	stw	r2,-12(fp)
  10436c:	e0bffd17 	ldw	r2,-12(fp)
  104370:	1001703a 	wrctl	status,r2
  104374:	0005883a 	mov	r2,zero
  104378:	0001883a 	nop
  10437c:	e037883a 	mov	sp,fp
  104380:	df000017 	ldw	fp,0(sp)
  104384:	dec00104 	addi	sp,sp,4
  104388:	f800283a 	ret

0010438c <alt_ic_irq_disable>:
  10438c:	defff904 	addi	sp,sp,-28
  104390:	df000615 	stw	fp,24(sp)
  104394:	df000604 	addi	fp,sp,24
  104398:	e13ffe15 	stw	r4,-8(fp)
  10439c:	e17fff15 	stw	r5,-4(fp)
  1043a0:	e0bfff17 	ldw	r2,-4(fp)
  1043a4:	e0bffa15 	stw	r2,-24(fp)
  1043a8:	0005303a 	rdctl	r2,status
  1043ac:	e0bffb15 	stw	r2,-20(fp)
  1043b0:	e0fffb17 	ldw	r3,-20(fp)
  1043b4:	00bfff84 	movi	r2,-2
  1043b8:	1884703a 	and	r2,r3,r2
  1043bc:	1001703a 	wrctl	status,r2
  1043c0:	e0bffb17 	ldw	r2,-20(fp)
  1043c4:	e0bffc15 	stw	r2,-16(fp)
  1043c8:	00c00044 	movi	r3,1
  1043cc:	e0bffa17 	ldw	r2,-24(fp)
  1043d0:	1884983a 	sll	r2,r3,r2
  1043d4:	0084303a 	nor	r2,zero,r2
  1043d8:	1007883a 	mov	r3,r2
  1043dc:	d0a02a17 	ldw	r2,-32600(gp)
  1043e0:	1884703a 	and	r2,r3,r2
  1043e4:	d0a02a15 	stw	r2,-32600(gp)
  1043e8:	d0a02a17 	ldw	r2,-32600(gp)
  1043ec:	100170fa 	wrctl	ienable,r2
  1043f0:	e0bffc17 	ldw	r2,-16(fp)
  1043f4:	e0bffd15 	stw	r2,-12(fp)
  1043f8:	e0bffd17 	ldw	r2,-12(fp)
  1043fc:	1001703a 	wrctl	status,r2
  104400:	0005883a 	mov	r2,zero
  104404:	0001883a 	nop
  104408:	e037883a 	mov	sp,fp
  10440c:	df000017 	ldw	fp,0(sp)
  104410:	dec00104 	addi	sp,sp,4
  104414:	f800283a 	ret

00104418 <alt_ic_irq_enabled>:
  104418:	defffc04 	addi	sp,sp,-16
  10441c:	df000315 	stw	fp,12(sp)
  104420:	df000304 	addi	fp,sp,12
  104424:	e13ffe15 	stw	r4,-8(fp)
  104428:	e17fff15 	stw	r5,-4(fp)
  10442c:	000530fa 	rdctl	r2,ienable
  104430:	e0bffd15 	stw	r2,-12(fp)
  104434:	00c00044 	movi	r3,1
  104438:	e0bfff17 	ldw	r2,-4(fp)
  10443c:	1884983a 	sll	r2,r3,r2
  104440:	1007883a 	mov	r3,r2
  104444:	e0bffd17 	ldw	r2,-12(fp)
  104448:	1884703a 	and	r2,r3,r2
  10444c:	1004c03a 	cmpne	r2,r2,zero
  104450:	10803fcc 	andi	r2,r2,255
  104454:	e037883a 	mov	sp,fp
  104458:	df000017 	ldw	fp,0(sp)
  10445c:	dec00104 	addi	sp,sp,4
  104460:	f800283a 	ret

00104464 <alt_iic_isr_register>:
  104464:	defff504 	addi	sp,sp,-44
  104468:	dfc00a15 	stw	ra,40(sp)
  10446c:	df000915 	stw	fp,36(sp)
  104470:	df000904 	addi	fp,sp,36
  104474:	e13ffc15 	stw	r4,-16(fp)
  104478:	e17ffd15 	stw	r5,-12(fp)
  10447c:	e1bffe15 	stw	r6,-8(fp)
  104480:	e1ffff15 	stw	r7,-4(fp)
  104484:	00bffa84 	movi	r2,-22
  104488:	e0bff715 	stw	r2,-36(fp)
  10448c:	e0bffd17 	ldw	r2,-12(fp)
  104490:	e0bff815 	stw	r2,-32(fp)
  104494:	e0bff817 	ldw	r2,-32(fp)
  104498:	10800808 	cmpgei	r2,r2,32
  10449c:	1000271e 	bne	r2,zero,10453c <alt_iic_isr_register+0xd8>
  1044a0:	0005303a 	rdctl	r2,status
  1044a4:	e0bffb15 	stw	r2,-20(fp)
  1044a8:	e0fffb17 	ldw	r3,-20(fp)
  1044ac:	00bfff84 	movi	r2,-2
  1044b0:	1884703a 	and	r2,r3,r2
  1044b4:	1001703a 	wrctl	status,r2
  1044b8:	e0bffb17 	ldw	r2,-20(fp)
  1044bc:	e0bffa15 	stw	r2,-24(fp)
  1044c0:	00800834 	movhi	r2,32
  1044c4:	10827f04 	addi	r2,r2,2556
  1044c8:	e0fff817 	ldw	r3,-32(fp)
  1044cc:	180690fa 	slli	r3,r3,3
  1044d0:	10c5883a 	add	r2,r2,r3
  1044d4:	e0fffe17 	ldw	r3,-8(fp)
  1044d8:	10c00015 	stw	r3,0(r2)
  1044dc:	00800834 	movhi	r2,32
  1044e0:	10827f04 	addi	r2,r2,2556
  1044e4:	e0fff817 	ldw	r3,-32(fp)
  1044e8:	180690fa 	slli	r3,r3,3
  1044ec:	10c5883a 	add	r2,r2,r3
  1044f0:	10800104 	addi	r2,r2,4
  1044f4:	e0ffff17 	ldw	r3,-4(fp)
  1044f8:	10c00015 	stw	r3,0(r2)
  1044fc:	e0bffe17 	ldw	r2,-8(fp)
  104500:	10000526 	beq	r2,zero,104518 <alt_iic_isr_register+0xb4>
  104504:	e0bff817 	ldw	r2,-32(fp)
  104508:	100b883a 	mov	r5,r2
  10450c:	e13ffc17 	ldw	r4,-16(fp)
  104510:	01043040 	call	104304 <alt_ic_irq_enable>
  104514:	00000406 	br	104528 <alt_iic_isr_register+0xc4>
  104518:	e0bff817 	ldw	r2,-32(fp)
  10451c:	100b883a 	mov	r5,r2
  104520:	e13ffc17 	ldw	r4,-16(fp)
  104524:	010438c0 	call	10438c <alt_ic_irq_disable>
  104528:	e0bff715 	stw	r2,-36(fp)
  10452c:	e0bffa17 	ldw	r2,-24(fp)
  104530:	e0bff915 	stw	r2,-28(fp)
  104534:	e0bff917 	ldw	r2,-28(fp)
  104538:	1001703a 	wrctl	status,r2
  10453c:	e0bff717 	ldw	r2,-36(fp)
  104540:	e037883a 	mov	sp,fp
  104544:	dfc00117 	ldw	ra,4(sp)
  104548:	df000017 	ldw	fp,0(sp)
  10454c:	dec00204 	addi	sp,sp,8
  104550:	f800283a 	ret

00104554 <alt_release_fd>:
  104554:	defffc04 	addi	sp,sp,-16
  104558:	dfc00315 	stw	ra,12(sp)
  10455c:	df000215 	stw	fp,8(sp)
  104560:	dc000115 	stw	r16,4(sp)
  104564:	df000204 	addi	fp,sp,8
  104568:	e13ffe15 	stw	r4,-8(fp)
  10456c:	e0bffe17 	ldw	r2,-8(fp)
  104570:	108000d0 	cmplti	r2,r2,3
  104574:	1000111e 	bne	r2,zero,1045bc <alt_release_fd+0x68>
  104578:	04000834 	movhi	r16,32
  10457c:	84008904 	addi	r16,r16,548
  104580:	e0bffe17 	ldw	r2,-8(fp)
  104584:	01400304 	movi	r5,12
  104588:	1009883a 	mov	r4,r2
  10458c:	0101e5c0 	call	101e5c <__mulsi3>
  104590:	8085883a 	add	r2,r16,r2
  104594:	10800204 	addi	r2,r2,8
  104598:	10000015 	stw	zero,0(r2)
  10459c:	04000834 	movhi	r16,32
  1045a0:	84008904 	addi	r16,r16,548
  1045a4:	e0bffe17 	ldw	r2,-8(fp)
  1045a8:	01400304 	movi	r5,12
  1045ac:	1009883a 	mov	r4,r2
  1045b0:	0101e5c0 	call	101e5c <__mulsi3>
  1045b4:	8085883a 	add	r2,r16,r2
  1045b8:	10000015 	stw	zero,0(r2)
  1045bc:	0001883a 	nop
  1045c0:	e6ffff04 	addi	sp,fp,-4
  1045c4:	dfc00217 	ldw	ra,8(sp)
  1045c8:	df000117 	ldw	fp,4(sp)
  1045cc:	dc000017 	ldw	r16,0(sp)
  1045d0:	dec00304 	addi	sp,sp,12
  1045d4:	f800283a 	ret

001045d8 <altera_nios2_gen2_irq_init>:
  1045d8:	deffff04 	addi	sp,sp,-4
  1045dc:	df000015 	stw	fp,0(sp)
  1045e0:	d839883a 	mov	fp,sp
  1045e4:	000170fa 	wrctl	ienable,zero
  1045e8:	0001883a 	nop
  1045ec:	e037883a 	mov	sp,fp
  1045f0:	df000017 	ldw	fp,0(sp)
  1045f4:	dec00104 	addi	sp,sp,4
  1045f8:	f800283a 	ret

001045fc <alt_find_dev>:
  1045fc:	defffa04 	addi	sp,sp,-24
  104600:	dfc00515 	stw	ra,20(sp)
  104604:	df000415 	stw	fp,16(sp)
  104608:	df000404 	addi	fp,sp,16
  10460c:	e13ffe15 	stw	r4,-8(fp)
  104610:	e17fff15 	stw	r5,-4(fp)
  104614:	e0bfff17 	ldw	r2,-4(fp)
  104618:	10800017 	ldw	r2,0(r2)
  10461c:	e0bffc15 	stw	r2,-16(fp)
  104620:	e13ffe17 	ldw	r4,-8(fp)
  104624:	01047f00 	call	1047f0 <strlen>
  104628:	10800044 	addi	r2,r2,1
  10462c:	e0bffd15 	stw	r2,-12(fp)
  104630:	00000d06 	br	104668 <alt_find_dev+0x6c>
  104634:	e0bffc17 	ldw	r2,-16(fp)
  104638:	10800217 	ldw	r2,8(r2)
  10463c:	e0fffd17 	ldw	r3,-12(fp)
  104640:	180d883a 	mov	r6,r3
  104644:	e17ffe17 	ldw	r5,-8(fp)
  104648:	1009883a 	mov	r4,r2
  10464c:	01047740 	call	104774 <memcmp>
  104650:	1000021e 	bne	r2,zero,10465c <alt_find_dev+0x60>
  104654:	e0bffc17 	ldw	r2,-16(fp)
  104658:	00000706 	br	104678 <alt_find_dev+0x7c>
  10465c:	e0bffc17 	ldw	r2,-16(fp)
  104660:	10800017 	ldw	r2,0(r2)
  104664:	e0bffc15 	stw	r2,-16(fp)
  104668:	e0fffc17 	ldw	r3,-16(fp)
  10466c:	e0bfff17 	ldw	r2,-4(fp)
  104670:	18bff01e 	bne	r3,r2,104634 <_gp+0xffefbe6c>
  104674:	0005883a 	mov	r2,zero
  104678:	e037883a 	mov	sp,fp
  10467c:	dfc00117 	ldw	ra,4(sp)
  104680:	df000017 	ldw	fp,0(sp)
  104684:	dec00204 	addi	sp,sp,8
  104688:	f800283a 	ret

0010468c <alt_exception_cause_generated_bad_addr>:
  10468c:	defffe04 	addi	sp,sp,-8
  104690:	df000115 	stw	fp,4(sp)
  104694:	df000104 	addi	fp,sp,4
  104698:	e13fff15 	stw	r4,-4(fp)
  10469c:	e0bfff17 	ldw	r2,-4(fp)
  1046a0:	10bffe84 	addi	r2,r2,-6
  1046a4:	10c00428 	cmpgeui	r3,r2,16
  1046a8:	18001a1e 	bne	r3,zero,104714 <alt_exception_cause_generated_bad_addr+0x88>
  1046ac:	100690ba 	slli	r3,r2,2
  1046b0:	00800434 	movhi	r2,16
  1046b4:	1091b104 	addi	r2,r2,18116
  1046b8:	1885883a 	add	r2,r3,r2
  1046bc:	10800017 	ldw	r2,0(r2)
  1046c0:	1000683a 	jmp	r2
  1046c4:	00104704 	movi	zero,16668
  1046c8:	00104704 	movi	zero,16668
  1046cc:	00104714 	movui	zero,16668
  1046d0:	00104714 	movui	zero,16668
  1046d4:	00104714 	movui	zero,16668
  1046d8:	00104704 	movi	zero,16668
  1046dc:	0010470c 	andi	zero,zero,16668
  1046e0:	00104714 	movui	zero,16668
  1046e4:	00104704 	movi	zero,16668
  1046e8:	00104704 	movi	zero,16668
  1046ec:	00104714 	movui	zero,16668
  1046f0:	00104704 	movi	zero,16668
  1046f4:	0010470c 	andi	zero,zero,16668
  1046f8:	00104714 	movui	zero,16668
  1046fc:	00104714 	movui	zero,16668
  104700:	00104704 	movi	zero,16668
  104704:	00800044 	movi	r2,1
  104708:	00000306 	br	104718 <alt_exception_cause_generated_bad_addr+0x8c>
  10470c:	0005883a 	mov	r2,zero
  104710:	00000106 	br	104718 <alt_exception_cause_generated_bad_addr+0x8c>
  104714:	0005883a 	mov	r2,zero
  104718:	e037883a 	mov	sp,fp
  10471c:	df000017 	ldw	fp,0(sp)
  104720:	dec00104 	addi	sp,sp,4
  104724:	f800283a 	ret

00104728 <atexit>:
  104728:	200b883a 	mov	r5,r4
  10472c:	000f883a 	mov	r7,zero
  104730:	000d883a 	mov	r6,zero
  104734:	0009883a 	mov	r4,zero
  104738:	01048881 	jmpi	104888 <__register_exitproc>

0010473c <exit>:
  10473c:	defffe04 	addi	sp,sp,-8
  104740:	000b883a 	mov	r5,zero
  104744:	dc000015 	stw	r16,0(sp)
  104748:	dfc00115 	stw	ra,4(sp)
  10474c:	2021883a 	mov	r16,r4
  104750:	01049a00 	call	1049a0 <__call_exitprocs>
  104754:	00800834 	movhi	r2,32
  104758:	10820304 	addi	r2,r2,2060
  10475c:	11000017 	ldw	r4,0(r2)
  104760:	20800f17 	ldw	r2,60(r4)
  104764:	10000126 	beq	r2,zero,10476c <exit+0x30>
  104768:	103ee83a 	callr	r2
  10476c:	8009883a 	mov	r4,r16
  104770:	0104b200 	call	104b20 <_exit>

00104774 <memcmp>:
  104774:	01c000c4 	movi	r7,3
  104778:	3980192e 	bgeu	r7,r6,1047e0 <memcmp+0x6c>
  10477c:	2144b03a 	or	r2,r4,r5
  104780:	11c4703a 	and	r2,r2,r7
  104784:	10000f26 	beq	r2,zero,1047c4 <memcmp+0x50>
  104788:	20800003 	ldbu	r2,0(r4)
  10478c:	28c00003 	ldbu	r3,0(r5)
  104790:	10c0151e 	bne	r2,r3,1047e8 <memcmp+0x74>
  104794:	31bfff84 	addi	r6,r6,-2
  104798:	01ffffc4 	movi	r7,-1
  10479c:	00000406 	br	1047b0 <memcmp+0x3c>
  1047a0:	20800003 	ldbu	r2,0(r4)
  1047a4:	28c00003 	ldbu	r3,0(r5)
  1047a8:	31bfffc4 	addi	r6,r6,-1
  1047ac:	10c00e1e 	bne	r2,r3,1047e8 <memcmp+0x74>
  1047b0:	21000044 	addi	r4,r4,1
  1047b4:	29400044 	addi	r5,r5,1
  1047b8:	31fff91e 	bne	r6,r7,1047a0 <_gp+0xffefbfd8>
  1047bc:	0005883a 	mov	r2,zero
  1047c0:	f800283a 	ret
  1047c4:	20c00017 	ldw	r3,0(r4)
  1047c8:	28800017 	ldw	r2,0(r5)
  1047cc:	18bfee1e 	bne	r3,r2,104788 <_gp+0xffefbfc0>
  1047d0:	31bfff04 	addi	r6,r6,-4
  1047d4:	21000104 	addi	r4,r4,4
  1047d8:	29400104 	addi	r5,r5,4
  1047dc:	39bff936 	bltu	r7,r6,1047c4 <_gp+0xffefbffc>
  1047e0:	303fe91e 	bne	r6,zero,104788 <_gp+0xffefbfc0>
  1047e4:	003ff506 	br	1047bc <_gp+0xffefbff4>
  1047e8:	10c5c83a 	sub	r2,r2,r3
  1047ec:	f800283a 	ret

001047f0 <strlen>:
  1047f0:	208000cc 	andi	r2,r4,3
  1047f4:	10002026 	beq	r2,zero,104878 <strlen+0x88>
  1047f8:	20800007 	ldb	r2,0(r4)
  1047fc:	10002026 	beq	r2,zero,104880 <strlen+0x90>
  104800:	2005883a 	mov	r2,r4
  104804:	00000206 	br	104810 <strlen+0x20>
  104808:	10c00007 	ldb	r3,0(r2)
  10480c:	18001826 	beq	r3,zero,104870 <strlen+0x80>
  104810:	10800044 	addi	r2,r2,1
  104814:	10c000cc 	andi	r3,r2,3
  104818:	183ffb1e 	bne	r3,zero,104808 <_gp+0xffefc040>
  10481c:	10c00017 	ldw	r3,0(r2)
  104820:	01ffbff4 	movhi	r7,65279
  104824:	39ffbfc4 	addi	r7,r7,-257
  104828:	00ca303a 	nor	r5,zero,r3
  10482c:	01a02074 	movhi	r6,32897
  104830:	19c7883a 	add	r3,r3,r7
  104834:	31a02004 	addi	r6,r6,-32640
  104838:	1946703a 	and	r3,r3,r5
  10483c:	1986703a 	and	r3,r3,r6
  104840:	1800091e 	bne	r3,zero,104868 <strlen+0x78>
  104844:	10800104 	addi	r2,r2,4
  104848:	10c00017 	ldw	r3,0(r2)
  10484c:	19cb883a 	add	r5,r3,r7
  104850:	00c6303a 	nor	r3,zero,r3
  104854:	28c6703a 	and	r3,r5,r3
  104858:	1986703a 	and	r3,r3,r6
  10485c:	183ff926 	beq	r3,zero,104844 <_gp+0xffefc07c>
  104860:	00000106 	br	104868 <strlen+0x78>
  104864:	10800044 	addi	r2,r2,1
  104868:	10c00007 	ldb	r3,0(r2)
  10486c:	183ffd1e 	bne	r3,zero,104864 <_gp+0xffefc09c>
  104870:	1105c83a 	sub	r2,r2,r4
  104874:	f800283a 	ret
  104878:	2005883a 	mov	r2,r4
  10487c:	003fe706 	br	10481c <_gp+0xffefc054>
  104880:	0005883a 	mov	r2,zero
  104884:	f800283a 	ret

00104888 <__register_exitproc>:
  104888:	defffa04 	addi	sp,sp,-24
  10488c:	dc000315 	stw	r16,12(sp)
  104890:	04000834 	movhi	r16,32
  104894:	84020304 	addi	r16,r16,2060
  104898:	80c00017 	ldw	r3,0(r16)
  10489c:	dc400415 	stw	r17,16(sp)
  1048a0:	dfc00515 	stw	ra,20(sp)
  1048a4:	18805217 	ldw	r2,328(r3)
  1048a8:	2023883a 	mov	r17,r4
  1048ac:	10003726 	beq	r2,zero,10498c <__register_exitproc+0x104>
  1048b0:	10c00117 	ldw	r3,4(r2)
  1048b4:	010007c4 	movi	r4,31
  1048b8:	20c00e16 	blt	r4,r3,1048f4 <__register_exitproc+0x6c>
  1048bc:	1a000044 	addi	r8,r3,1
  1048c0:	8800221e 	bne	r17,zero,10494c <__register_exitproc+0xc4>
  1048c4:	18c00084 	addi	r3,r3,2
  1048c8:	18c7883a 	add	r3,r3,r3
  1048cc:	18c7883a 	add	r3,r3,r3
  1048d0:	12000115 	stw	r8,4(r2)
  1048d4:	10c7883a 	add	r3,r2,r3
  1048d8:	19400015 	stw	r5,0(r3)
  1048dc:	0005883a 	mov	r2,zero
  1048e0:	dfc00517 	ldw	ra,20(sp)
  1048e4:	dc400417 	ldw	r17,16(sp)
  1048e8:	dc000317 	ldw	r16,12(sp)
  1048ec:	dec00604 	addi	sp,sp,24
  1048f0:	f800283a 	ret
  1048f4:	00800034 	movhi	r2,0
  1048f8:	10800004 	addi	r2,r2,0
  1048fc:	10002626 	beq	r2,zero,104998 <__register_exitproc+0x110>
  104900:	01006404 	movi	r4,400
  104904:	d9400015 	stw	r5,0(sp)
  104908:	d9800115 	stw	r6,4(sp)
  10490c:	d9c00215 	stw	r7,8(sp)
  104910:	00000000 	call	0 <__reset-0x100000>
  104914:	d9400017 	ldw	r5,0(sp)
  104918:	d9800117 	ldw	r6,4(sp)
  10491c:	d9c00217 	ldw	r7,8(sp)
  104920:	10001d26 	beq	r2,zero,104998 <__register_exitproc+0x110>
  104924:	81000017 	ldw	r4,0(r16)
  104928:	10000115 	stw	zero,4(r2)
  10492c:	02000044 	movi	r8,1
  104930:	22405217 	ldw	r9,328(r4)
  104934:	0007883a 	mov	r3,zero
  104938:	12400015 	stw	r9,0(r2)
  10493c:	20805215 	stw	r2,328(r4)
  104940:	10006215 	stw	zero,392(r2)
  104944:	10006315 	stw	zero,396(r2)
  104948:	883fde26 	beq	r17,zero,1048c4 <_gp+0xffefc0fc>
  10494c:	18c9883a 	add	r4,r3,r3
  104950:	2109883a 	add	r4,r4,r4
  104954:	1109883a 	add	r4,r2,r4
  104958:	21802215 	stw	r6,136(r4)
  10495c:	01800044 	movi	r6,1
  104960:	12406217 	ldw	r9,392(r2)
  104964:	30cc983a 	sll	r6,r6,r3
  104968:	4992b03a 	or	r9,r9,r6
  10496c:	12406215 	stw	r9,392(r2)
  104970:	21c04215 	stw	r7,264(r4)
  104974:	01000084 	movi	r4,2
  104978:	893fd21e 	bne	r17,r4,1048c4 <_gp+0xffefc0fc>
  10497c:	11006317 	ldw	r4,396(r2)
  104980:	218cb03a 	or	r6,r4,r6
  104984:	11806315 	stw	r6,396(r2)
  104988:	003fce06 	br	1048c4 <_gp+0xffefc0fc>
  10498c:	18805304 	addi	r2,r3,332
  104990:	18805215 	stw	r2,328(r3)
  104994:	003fc606 	br	1048b0 <_gp+0xffefc0e8>
  104998:	00bfffc4 	movi	r2,-1
  10499c:	003fd006 	br	1048e0 <_gp+0xffefc118>

001049a0 <__call_exitprocs>:
  1049a0:	defff504 	addi	sp,sp,-44
  1049a4:	df000915 	stw	fp,36(sp)
  1049a8:	dd400615 	stw	r21,24(sp)
  1049ac:	dc800315 	stw	r18,12(sp)
  1049b0:	dfc00a15 	stw	ra,40(sp)
  1049b4:	ddc00815 	stw	r23,32(sp)
  1049b8:	dd800715 	stw	r22,28(sp)
  1049bc:	dd000515 	stw	r20,20(sp)
  1049c0:	dcc00415 	stw	r19,16(sp)
  1049c4:	dc400215 	stw	r17,8(sp)
  1049c8:	dc000115 	stw	r16,4(sp)
  1049cc:	d9000015 	stw	r4,0(sp)
  1049d0:	2839883a 	mov	fp,r5
  1049d4:	04800044 	movi	r18,1
  1049d8:	057fffc4 	movi	r21,-1
  1049dc:	00800834 	movhi	r2,32
  1049e0:	10820304 	addi	r2,r2,2060
  1049e4:	12000017 	ldw	r8,0(r2)
  1049e8:	45005217 	ldw	r20,328(r8)
  1049ec:	44c05204 	addi	r19,r8,328
  1049f0:	a0001c26 	beq	r20,zero,104a64 <__call_exitprocs+0xc4>
  1049f4:	a0800117 	ldw	r2,4(r20)
  1049f8:	15ffffc4 	addi	r23,r2,-1
  1049fc:	b8000d16 	blt	r23,zero,104a34 <__call_exitprocs+0x94>
  104a00:	14000044 	addi	r16,r2,1
  104a04:	8421883a 	add	r16,r16,r16
  104a08:	8421883a 	add	r16,r16,r16
  104a0c:	84402004 	addi	r17,r16,128
  104a10:	a463883a 	add	r17,r20,r17
  104a14:	a421883a 	add	r16,r20,r16
  104a18:	e0001e26 	beq	fp,zero,104a94 <__call_exitprocs+0xf4>
  104a1c:	80804017 	ldw	r2,256(r16)
  104a20:	e0801c26 	beq	fp,r2,104a94 <__call_exitprocs+0xf4>
  104a24:	bdffffc4 	addi	r23,r23,-1
  104a28:	843fff04 	addi	r16,r16,-4
  104a2c:	8c7fff04 	addi	r17,r17,-4
  104a30:	bd7ff91e 	bne	r23,r21,104a18 <_gp+0xffefc250>
  104a34:	00800034 	movhi	r2,0
  104a38:	10800004 	addi	r2,r2,0
  104a3c:	10000926 	beq	r2,zero,104a64 <__call_exitprocs+0xc4>
  104a40:	a0800117 	ldw	r2,4(r20)
  104a44:	1000301e 	bne	r2,zero,104b08 <__call_exitprocs+0x168>
  104a48:	a0800017 	ldw	r2,0(r20)
  104a4c:	10003226 	beq	r2,zero,104b18 <__call_exitprocs+0x178>
  104a50:	a009883a 	mov	r4,r20
  104a54:	98800015 	stw	r2,0(r19)
  104a58:	00000000 	call	0 <__reset-0x100000>
  104a5c:	9d000017 	ldw	r20,0(r19)
  104a60:	a03fe41e 	bne	r20,zero,1049f4 <_gp+0xffefc22c>
  104a64:	dfc00a17 	ldw	ra,40(sp)
  104a68:	df000917 	ldw	fp,36(sp)
  104a6c:	ddc00817 	ldw	r23,32(sp)
  104a70:	dd800717 	ldw	r22,28(sp)
  104a74:	dd400617 	ldw	r21,24(sp)
  104a78:	dd000517 	ldw	r20,20(sp)
  104a7c:	dcc00417 	ldw	r19,16(sp)
  104a80:	dc800317 	ldw	r18,12(sp)
  104a84:	dc400217 	ldw	r17,8(sp)
  104a88:	dc000117 	ldw	r16,4(sp)
  104a8c:	dec00b04 	addi	sp,sp,44
  104a90:	f800283a 	ret
  104a94:	a0800117 	ldw	r2,4(r20)
  104a98:	80c00017 	ldw	r3,0(r16)
  104a9c:	10bfffc4 	addi	r2,r2,-1
  104aa0:	15c01426 	beq	r2,r23,104af4 <__call_exitprocs+0x154>
  104aa4:	80000015 	stw	zero,0(r16)
  104aa8:	183fde26 	beq	r3,zero,104a24 <_gp+0xffefc25c>
  104aac:	95c8983a 	sll	r4,r18,r23
  104ab0:	a0806217 	ldw	r2,392(r20)
  104ab4:	a5800117 	ldw	r22,4(r20)
  104ab8:	2084703a 	and	r2,r4,r2
  104abc:	10000b26 	beq	r2,zero,104aec <__call_exitprocs+0x14c>
  104ac0:	a0806317 	ldw	r2,396(r20)
  104ac4:	2088703a 	and	r4,r4,r2
  104ac8:	20000c1e 	bne	r4,zero,104afc <__call_exitprocs+0x15c>
  104acc:	89400017 	ldw	r5,0(r17)
  104ad0:	d9000017 	ldw	r4,0(sp)
  104ad4:	183ee83a 	callr	r3
  104ad8:	a0800117 	ldw	r2,4(r20)
  104adc:	15bfbf1e 	bne	r2,r22,1049dc <_gp+0xffefc214>
  104ae0:	98800017 	ldw	r2,0(r19)
  104ae4:	153fcf26 	beq	r2,r20,104a24 <_gp+0xffefc25c>
  104ae8:	003fbc06 	br	1049dc <_gp+0xffefc214>
  104aec:	183ee83a 	callr	r3
  104af0:	003ff906 	br	104ad8 <_gp+0xffefc310>
  104af4:	a5c00115 	stw	r23,4(r20)
  104af8:	003feb06 	br	104aa8 <_gp+0xffefc2e0>
  104afc:	89000017 	ldw	r4,0(r17)
  104b00:	183ee83a 	callr	r3
  104b04:	003ff406 	br	104ad8 <_gp+0xffefc310>
  104b08:	a0800017 	ldw	r2,0(r20)
  104b0c:	a027883a 	mov	r19,r20
  104b10:	1029883a 	mov	r20,r2
  104b14:	003fb606 	br	1049f0 <_gp+0xffefc228>
  104b18:	0005883a 	mov	r2,zero
  104b1c:	003ffb06 	br	104b0c <_gp+0xffefc344>

00104b20 <_exit>:
  104b20:	defffd04 	addi	sp,sp,-12
  104b24:	df000215 	stw	fp,8(sp)
  104b28:	df000204 	addi	fp,sp,8
  104b2c:	e13fff15 	stw	r4,-4(fp)
  104b30:	0001883a 	nop
  104b34:	e0bfff17 	ldw	r2,-4(fp)
  104b38:	e0bffe15 	stw	r2,-8(fp)
  104b3c:	e0bffe17 	ldw	r2,-8(fp)
  104b40:	10000226 	beq	r2,zero,104b4c <_exit+0x2c>
  104b44:	002af070 	cmpltui	zero,zero,43969
  104b48:	00000106 	br	104b50 <_exit+0x30>
  104b4c:	002af0b0 	cmpltui	zero,zero,43970
  104b50:	003fff06 	br	104b50 <_gp+0xffefc388>
